 vvis_dll

 Timestamp is 4e78505d (Tue Sep 20 09:35:41 2011)

 Preferred load address is 10000000

 Start         Length     Name                   Class
 0001:00000000 0005083dH .text                   CODE
 0001:00050840 00000afaH .text$yc                CODE
 0001:00051340 00000a75H .text$yd                CODE
 0002:00000000 00000344H .idata$5                DATA
 0002:00000344 00000004H .CRT$XCA                DATA
 0002:00000348 00000218H .CRT$XCU                DATA
 0002:00000560 00000004H .CRT$XCZ                DATA
 0002:00000564 00000004H .CRT$XIA                DATA
 0002:00000568 00000014H .CRT$XIC                DATA
 0002:0000057c 00000004H .CRT$XIZ                DATA
 0002:00000580 00000004H .CRT$XPA                DATA
 0002:00000584 0000000cH .CRT$XPX                DATA
 0002:00000590 00000004H .CRT$XPXA               DATA
 0002:00000594 00000004H .CRT$XPZ                DATA
 0002:00000598 00000004H .CRT$XTA                DATA
 0002:0000059c 00000004H .CRT$XTZ                DATA
 0002:000005a0 00011886H .rdata                  DATA
 0002:00011e28 0000004aH .rdata$debug            DATA
 0002:00011e74 000011a8H .rdata$r                DATA
 0002:0001301c 00000004H .rtc$IAA                DATA
 0002:00013020 00000004H .rtc$IZZ                DATA
 0002:00013024 00000004H .rtc$TAA                DATA
 0002:00013028 00000004H .rtc$TZZ                DATA
 0002:00013030 000006dcH .xdata$x                DATA
 0002:0001370c 0000008cH .idata$2                DATA
 0002:00013798 00000014H .idata$3                DATA
 0002:000137ac 00000344H .idata$4                DATA
 0002:00013af0 00000e9eH .idata$6                DATA
 0002:00014990 0000004fH .edata                  DATA
 0003:00000000 00009528H .data                   DATA
 0003:00009540 03f09e64H .bss                    DATA

  Address         Publics by Value              Rva+Base       Lib:Object

 0000:00000000       ___safe_se_handler_count   00000000     <absolute>
 0000:00000000       ___safe_se_handler_table   00000000     <absolute>
 0000:00000000       __except_list              00000000     <absolute>
 0000:00000000       ___ImageBase               10000000     <linker-defined>
 0001:00000000       ?ReleasePakFileLumps@@YAXXZ 10001000 f   bsplib.obj
 0001:00000020       ?CompressVis@@YAHPAE0@Z    10001020 f   bsplib.obj
 0001:00000080       ?DecompressVis@@YAXPAE0@Z  10001080 f   bsplib.obj
 0001:00000110       ?ParseEpair@@YAPAUepair_t@@XZ 10001110 f   bsplib.obj
 0001:000001f0       ?ValueForKey@@YAPADPAUentity_t@@PAD@Z 100011f0 f   bsplib.obj
 0001:00000230       ?FloatForKey@@YAMPAUentity_t@@PAD@Z 10001230 f   bsplib.obj
 0001:00000280       ?GetPlatformMapPath@@YAXPBDPADHH@Z 10001280 f   bsplib.obj
 0001:000002b0       ??$SwapFieldsToTargetEndian@UStaticPropDictLump_t@@@CByteswap@@QAEXPAUStaticPropDictLump_t@@PAXI@Z 100012b0 f i bsplib.obj
 0001:00000300       ??$SwapFieldsToTargetEndian@UStaticPropLeafLump_t@@@CByteswap@@QAEXPAUStaticPropLeafLump_t@@PAXI@Z 10001300 f i bsplib.obj
 0001:00000350       ??$SwapFieldsToTargetEndian@UDetailObjectDictLump_t@@@CByteswap@@QAEXPAUDetailObjectDictLump_t@@PAXI@Z 10001350 f i bsplib.obj
 0001:000003a0       ??$SwapFieldsToTargetEndian@UDetailPropLightstylesLump_t@@@CByteswap@@QAEXPAUDetailPropLightstylesLump_t@@PAXI@Z 100013a0 f i bsplib.obj
 0001:000003f0       ??$SwapFieldsToTargetEndian@Udgamelumpheader_t@@@CByteswap@@QAEXPAUdgamelumpheader_t@@PAXI@Z 100013f0 f i bsplib.obj
 0001:00000440       ??$SwapFieldsToTargetEndian@Udheader_t@@@CByteswap@@QAEXPAUdheader_t@@PAXI@Z 10001440 f i bsplib.obj
 0001:00000490       ??$SwapFieldsToTargetEndian@Udleafambientlighting_t@@@CByteswap@@QAEXPAUdleafambientlighting_t@@PAXI@Z 10001490 f i bsplib.obj
 0001:000004e0       ??$SwapFieldsToTargetEndian@Udleafambientindex_t@@@CByteswap@@QAEXPAUdleafambientindex_t@@PAXI@Z 100014e0 f i bsplib.obj
 0001:00000530       ??$SwapFieldsToTargetEndian@Udflagslump_t@@@CByteswap@@QAEXPAUdflagslump_t@@PAXI@Z 10001530 f i bsplib.obj
 0001:00000580       ??$SwapFieldsToTargetEndian@Udface_t@@@CByteswap@@QAEXPAUdface_t@@PAXI@Z 10001580 f i bsplib.obj
 0001:000005d0       ??$SwapFieldsToTargetEndian@Udworldlight_t@@@CByteswap@@QAEXPAUdworldlight_t@@PAXI@Z 100015d0 f i bsplib.obj
 0001:00000620       ??$SwapFieldsToTargetEndian@Udmodel_t@@@CByteswap@@QAEXPAUdmodel_t@@PAXI@Z 10001620 f i bsplib.obj
 0001:00000670       ??$SwapFieldsToTargetEndian@Udvertex_t@@@CByteswap@@QAEXPAUdvertex_t@@PAXI@Z 10001670 f i bsplib.obj
 0001:000006c0       ??$SwapFieldsToTargetEndian@Udplane_t@@@CByteswap@@QAEXPAUdplane_t@@PAXI@Z 100016c0 f i bsplib.obj
 0001:00000710       ??$SwapFieldsToTargetEndian@Utexinfo_s@@@CByteswap@@QAEXPAUtexinfo_s@@PAXI@Z 10001710 f i bsplib.obj
 0001:00000760       ??$SwapFieldsToTargetEndian@Vddispinfo_t@@@CByteswap@@QAEXPAVddispinfo_t@@PAXI@Z 10001760 f i bsplib.obj
 0001:000007b0       ??$SwapFieldsToTargetEndian@VCDispVert@@@CByteswap@@QAEXPAVCDispVert@@PAXI@Z 100017b0 f i bsplib.obj
 0001:00000800       ??$SwapFieldsToTargetEndian@VCDispTri@@@CByteswap@@QAEXPAVCDispTri@@PAXI@Z 10001800 f i bsplib.obj
 0001:00000850       ??$SwapFieldsToTargetEndian@VCFaceMacroTextureInfo@@@CByteswap@@QAEXPAVCFaceMacroTextureInfo@@PAXI@Z 10001850 f i bsplib.obj
 0001:000008a0       ??$SwapFieldsToTargetEndian@Udprimitive_t@@@CByteswap@@QAEXPAUdprimitive_t@@PAXI@Z 100018a0 f i bsplib.obj
 0001:000008f0       ??$SwapFieldsToTargetEndian@Udprimvert_t@@@CByteswap@@QAEXPAUdprimvert_t@@PAXI@Z 100018f0 f i bsplib.obj
 0001:00000940       ??$SwapFieldsToTargetEndian@Udbrush_t@@@CByteswap@@QAEXPAUdbrush_t@@PAXI@Z 10001940 f i bsplib.obj
 0001:00000990       ??$SwapFieldsToTargetEndian@Udareaportal_t@@@CByteswap@@QAEXPAUdareaportal_t@@PAXI@Z 10001990 f i bsplib.obj
 0001:000009e0       ??$SwapFieldsToTargetEndian@Udleafwaterdata_t@@@CByteswap@@QAEXPAUdleafwaterdata_t@@PAXI@Z 100019e0 f i bsplib.obj
 0001:00000a30       ??$SwapFieldsToTargetEndian@Udcubemapsample_t@@@CByteswap@@QAEXPAUdcubemapsample_t@@PAXI@Z 10001a30 f i bsplib.obj
 0001:00000a80       ??$SwapFieldsToTargetEndian@Udoverlay_t@@@CByteswap@@QAEXPAUdoverlay_t@@PAXI@Z 10001a80 f i bsplib.obj
 0001:00000ad0       ??$SwapFieldsToTargetEndian@Udwateroverlay_t@@@CByteswap@@QAEXPAUdwateroverlay_t@@PAXI@Z 10001ad0 f i bsplib.obj
 0001:00000b20       ??$SwapFieldsToTargetEndian@Udoverlayfade_t@@@CByteswap@@QAEXPAUdoverlayfade_t@@PAXI@Z 10001b20 f i bsplib.obj
 0001:00000b70       ??$SwapFieldsToTargetEndian@Udoccluderdata_t@@@CByteswap@@QAEXPAUdoccluderdata_t@@PAXI@Z 10001b70 f i bsplib.obj
 0001:00000bc0       ??$SwapFieldsToTargetEndian@Udoccluderpolydata_t@@@CByteswap@@QAEXPAUdoccluderpolydata_t@@PAXI@Z 10001bc0 f i bsplib.obj
 0001:00000c10       ??$SwapFieldsToTargetEndian@Udfaceid_t@@@CByteswap@@QAEXPAUdfaceid_t@@PAXI@Z 10001c10 f i bsplib.obj
 0001:00000c60       ?Grow@?$CUtlMemory@DH@@QAEXH@Z 10001c60 f i bsplib.obj
 0001:00000c60       ?Grow@?$CUtlMemory@EH@@QAEXH@Z 10001c60 f i bsplib.obj
 0001:00000d10       ?Grow@?$CUtlMemory@Utexinfo_s@@H@@QAEXH@Z 10001d10 f i bsplib.obj
 0001:00000db0       ?Grow@?$CUtlMemory@VCUtlString@@H@@QAEXH@Z 10001db0 f i bsplib.obj
 0001:00000e60       ?Grow@?$CUtlMemory@Udoccluderdata_t@@H@@QAEXH@Z 10001e60 f i bsplib.obj
 0001:00000f00       ?Grow@?$CUtlMemory@Udoccluderpolydata_t@@H@@QAEXH@Z 10001f00 f i bsplib.obj
 0001:00000f00       ?Grow@?$CUtlMemory@VVector@@H@@QAEXH@Z 10001f00 f i flow.obj
 0001:00000fa0       ?Grow@?$CUtlMemory@Udleafambientlighting_t@@H@@QAEXH@Z 10001fa0 f i bsplib.obj
 0001:00000fa0       ?Grow@?$CUtlMemory@VCSPVert@@H@@QAEXH@Z 10001fa0 f i scratchpad3d.obj
 0001:00001060       ??4ddispinfo_t@@QAEAAV0@ABV0@@Z 10002060 f i bsplib.obj
 0001:000011d0       ?Grow@?$CUtlMemory@Vddispinfo_t@@H@@QAEXH@Z 100021d0 f i bsplib.obj
 0001:00001280       ?Grow@?$CUtlMemory@VCDispVert@@H@@QAEXH@Z 10002280 f i bsplib.obj
 0001:00001320       ?Grow@?$CUtlMemory@Udfaceid_t@@H@@QAEXH@Z 10002320 f i bsplib.obj
 0001:00001320       ?Grow@?$CUtlMemory@VCDispTri@@H@@QAEXH@Z 10002320 f i bsplib.obj
 0001:00001320       ?Grow@?$CUtlMemory@GH@@QAEXH@Z 10002320 f i tier1:stringpool.obj
 0001:00001320       ?Grow@?$CUtlMemory@VCFaceMacroTextureInfo@@H@@QAEXH@Z 10002320 f i bsplib.obj
 0001:00001530       ?Purge@?$CUtlMemory@EH@@QAEXXZ 10002530 f i bsplib.obj
 0001:00001560       ??$SwapBufferToTargetEndian@M@CByteswap@@QAEXPAM0H@Z 10002560 f i bsplib.obj
 0001:000015e0       ??$SwapBufferToTargetEndian@I@CByteswap@@QAEXPAI0H@Z 100025e0 f i tier1:byteswap.obj
 0001:000015e0       ??$SwapBufferToTargetEndian@H@CByteswap@@QAEXPAH0H@Z 100025e0 f i bsplib.obj
 0001:00001660       ??$SwapBufferToTargetEndian@F@CByteswap@@QAEXPAF0H@Z 10002660 f i bsplib.obj
 0001:00001660       ??$SwapBufferToTargetEndian@G@CByteswap@@QAEXPAG0H@Z 10002660 f i bsplib.obj
 0001:000016d0       ??$CopyLumpInternal@Udleafambientlighting_t@@@@YAHHPAUdleafambientlighting_t@@H@Z 100026d0 f i bsplib.obj
 0001:000017b0       ??$CopyLumpInternal@Udleafambientindex_t@@@@YAHHPAUdleafambientindex_t@@H@Z 100027b0 f i bsplib.obj
 0001:00001860       ??$CopyLumpInternal@Udmodel_t@@@@YAHHPAUdmodel_t@@H@Z 10002860 f i bsplib.obj
 0001:00001930       ??$CopyLumpInternal@Udvertex_t@@@@YAHHPAUdvertex_t@@H@Z 10002930 f i bsplib.obj
 0001:00001a00       ??$CopyLumpInternal@Udplane_t@@@@YAHHPAUdplane_t@@H@Z 10002a00 f i bsplib.obj
 0001:00001ad0       ??$CopyLumpInternal@Utexinfo_s@@@@YAHHPAUtexinfo_s@@H@Z 10002ad0 f i bsplib.obj
 0001:00001ba0       ??$CopyLumpInternal@Vddispinfo_t@@@@YAHHPAVddispinfo_t@@H@Z 10002ba0 f i bsplib.obj
 0001:00001c70       ??$CopyLumpInternal@VCDispVert@@@@YAHHPAVCDispVert@@H@Z 10002c70 f i bsplib.obj
 0001:00001d40       ??$CopyLumpInternal@Udface_t@@@@YAHHPAUdface_t@@H@Z 10002d40 f i bsplib.obj
 0001:00001e20       ??$CopyLumpInternal@Udfaceid_t@@@@YAHHPAUdfaceid_t@@H@Z 10002e20 f i bsplib.obj
 0001:00001ed0       ??$CopyLumpInternal@Udprimitive_t@@@@YAHHPAUdprimitive_t@@H@Z 10002ed0 f i bsplib.obj
 0001:00001fb0       ??$CopyLumpInternal@Udprimvert_t@@@@YAHHPAUdprimvert_t@@H@Z 10002fb0 f i bsplib.obj
 0001:00002080       ??$CopyLumpInternal@Udbrush_t@@@@YAHHPAUdbrush_t@@H@Z 10003080 f i bsplib.obj
 0001:00002150       ??$CopyLumpInternal@Udareaportal_t@@@@YAHHPAUdareaportal_t@@H@Z 10003150 f i bsplib.obj
 0001:00002220       ??$CopyLumpInternal@Udworldlight_t@@@@YAHHPAUdworldlight_t@@H@Z 10003220 f i bsplib.obj
 0001:000022e0       ??$CopyLumpInternal@Udleafwaterdata_t@@@@YAHHPAUdleafwaterdata_t@@H@Z 100032e0 f i bsplib.obj
 0001:000023b0       ??$CopyLumpInternal@Udcubemapsample_t@@@@YAHHPAUdcubemapsample_t@@H@Z 100033b0 f i bsplib.obj
 0001:00002460       ??$CopyLumpInternal@Udoverlay_t@@@@YAHHPAUdoverlay_t@@H@Z 10003460 f i bsplib.obj
 0001:00002530       ??$CopyLumpInternal@Udwateroverlay_t@@@@YAHHPAUdwateroverlay_t@@H@Z 10003530 f i bsplib.obj
 0001:00002600       ??$CopyLumpInternal@Udoverlayfade_t@@@@YAHHPAUdoverlayfade_t@@H@Z 10003600 f i bsplib.obj
 0001:000026b0       ??$CopyLumpInternal@Udflagslump_t@@@@YAHHPAUdflagslump_t@@H@Z 100036b0 f i bsplib.obj
 0001:00002760       ?Grow@?$CUtlMemory@U?$UtlLinkedListElem_t@UGameLump_t@@G@@G@@QAEXH@Z 10003760 f i bsplib.obj
 0001:00002810       ?SwapGameLump@CGameLump@@QAEXHHPAE0H@Z 10003810 f   bsplib.obj
 0001:000030f0       ?Lumps_Write@@YAXXZ        100040f0 f   bsplib.obj
 0001:00003160       ?OpenBSPFile@@YAXPBD@Z     10004160 f   bsplib.obj
 0001:00003220       ?ParseEntities@@YAXXZ      10004220 f   bsplib.obj
 0001:000032f0       ?Purge@?$CUtlVector@DV?$CUtlMemory@DH@@@@QAEXXZ 100042f0 f i bsplib.obj
 0001:000032f0       ?Purge@?$CUtlVector@VCIPAddr@@V?$CUtlMemory@VCIPAddr@@H@@@@QAEXXZ 100042f0 f i vmpi:vmpi.obj
 0001:00003340       ??$GetObjects@Udoccluderdata_t@@@CUtlBuffer@@QAEXPAUdoccluderdata_t@@H@Z 10004340 f i bsplib.obj
 0001:000033d0       ??$GetObjects@Udoccluderpolydata_t@@@CUtlBuffer@@QAEXPAUdoccluderpolydata_t@@H@Z 100043d0 f i bsplib.obj
 0001:00003430       ?InsertMultipleBefore@?$CUtlVector@DV?$CUtlMemory@DH@@@@QAEHHHPBD@Z 10004430 f i bsplib.obj
 0001:000034c0       ?InsertMultipleBefore@?$CUtlVector@Utexinfo_s@@V?$CUtlMemory@Utexinfo_s@@H@@@@QAEHHHPBUtexinfo_s@@@Z 100044c0 f i bsplib.obj
 0001:00003570       ?InsertMultipleBefore@?$CUtlVector@HV?$CUtlMemory@HH@@@@QAEHHHPBH@Z 10004570 f i bsplib.obj
 0001:00003610       ??$CopyLumpInternal@D@@YAHHHPADH@Z 10004610 f i bsplib.obj
 0001:00003610       ??$CopyLumpInternal@E@@YAHHHPAEH@Z 10004610 f i bsplib.obj
 0001:00003750       ??$CopyLumpInternal@G@@YAHHHPAGH@Z 10004750 f i bsplib.obj
 0001:00003890       ??$CopyLumpInternal@H@@YAHHHPAHH@Z 10004890 f i bsplib.obj
 0001:000039d0       ??$CopyLumpInternal@M@@YAHHHPAMH@Z 100049d0 f i bsplib.obj
 0001:00003b10       ?InsertMultipleBefore@?$CUtlVector@Udoccluderdata_t@@V?$CUtlMemory@Udoccluderdata_t@@H@@@@QAEHHHPBUdoccluderdata_t@@@Z 10004b10 f i bsplib.obj
 0001:00003d60       ?InsertMultipleBefore@?$CUtlVector@Udoccluderpolydata_t@@V?$CUtlMemory@Udoccluderpolydata_t@@H@@@@QAEHHHPBUdoccluderpolydata_t@@@Z 10004d60 f i bsplib.obj
 0001:00003e10       ?AllocInternal@?$CUtlLinkedList@UGameLump_t@@G$0A@GV?$CUtlMemory@U?$UtlLinkedListElem_t@UGameLump_t@@G@@G@@@@IAEG_N@Z 10004e10 f i bsplib.obj
 0001:00003f30       ?InsertMultipleBefore@?$CUtlVector@Udleafambientlighting_t@@V?$CUtlMemory@Udleafambientlighting_t@@H@@@@QAEHHHPBUdleafambientlighting_t@@@Z 10004f30 f i bsplib.obj
 0001:00004000       ?InsertMultipleBefore@?$CUtlVector@Vddispinfo_t@@V?$CUtlMemory@Vddispinfo_t@@H@@@@QAEHHHPBVddispinfo_t@@@Z 10005000 f i bsplib.obj
 0001:000040b0       ?InsertMultipleBefore@?$CUtlVector@VCDispVert@@V?$CUtlMemory@VCDispVert@@H@@@@QAEHHHPBVCDispVert@@@Z 100050b0 f i bsplib.obj
 0001:00004240       ?GetInt@CUtlBuffer@@QAEHXZ 10005240 f i bsplib.obj
 0001:000042c0       ?PutTabs@CUtlBuffer@@IAEXXZ 100052c0 f i bsplib.obj
 0001:00004310       ?ComputeGameLumpSizeAndCount@CGameLump@@QAEXAAH0@Z 10005310 f   bsplib.obj
 0001:00004820       ?Unlink@?$CUtlLinkedList@UGameLump_t@@G$0A@GV?$CUtlMemory@U?$UtlLinkedListElem_t@UGameLump_t@@G@@G@@@@QAEXG@Z 10005820 f i bsplib.obj
 0001:000048b0       ??1CDatadescGeneratedNameHolder@@QAE@XZ 100058b0 f i bsplib.obj
 0001:000049f0       ?Lumps_Parse@@YAXXZ        100059f0 f   bsplib.obj
 0001:00004a50       ?WriteBSPFile@@YAXPBDPAD@Z 10005a50 f   bsplib.obj
 0001:000050c0       ?SetSize@?$CUtlVector@EV?$CUtlMemory@EH@@@@QAEXH@Z 100060c0 f i bsplib.obj
 0001:000050c0       ?SetSize@?$CUtlVector@DV?$CUtlMemory@DH@@@@QAEXH@Z 100060c0 f i bsplib.obj
 0001:00005110       ?SetCount@?$CUtlVector@Udleafambientindex_t@@V?$CUtlMemory@Udleafambientindex_t@@H@@@@QAEXH@Z 10006110 f i bsplib.obj
 0001:00005170       ??$CopyLump@D@@YAXHHAAV?$CUtlVector@DV?$CUtlMemory@DH@@@@H@Z 10006170 f i bsplib.obj
 0001:000051f0       ??$CopyLump@H@@YAXHHAAV?$CUtlVector@HV?$CUtlMemory@HH@@@@H@Z 100061f0 f i bsplib.obj
 0001:00005270       ?LinkBefore@?$CUtlLinkedList@UGameLump_t@@G$0A@GV?$CUtlMemory@U?$UtlLinkedListElem_t@UGameLump_t@@G@@G@@@@QAEXGG@Z 10006270 f i bsplib.obj
 0001:00005300       ??4?$CUtlVector@HV?$CUtlMemory@HH@@@@QAEAAV0@ABV0@@Z 10006300 f i bsplib.obj
 0001:00005380       ??$DataMapInit@Udheader_t@@@@YAPAUdatamap_t@@PAUdheader_t@@@Z 10006380 f   bsplib.obj
 0001:00005400       ??$DataMapInit@Ulump_t@@@@YAPAUdatamap_t@@PAUlump_t@@@Z 10006400 f   bsplib.obj
 0001:00005480       ??$DataMapInit@Udflagslump_t@@@@YAPAUdatamap_t@@PAUdflagslump_t@@@Z 10006480 f   bsplib.obj
 0001:00005500       ??$DataMapInit@Udplane_t@@@@YAPAUdatamap_t@@PAUdplane_t@@@Z 10006500 f   bsplib.obj
 0001:00005580       ??$DataMapInit@Udleaf_version_0_t@@@@YAPAUdatamap_t@@PAUdleaf_version_0_t@@@Z 10006580 f   bsplib.obj
 0001:00005600       ??$DataMapInit@Udleaf_t@@@@YAPAUdatamap_t@@PAUdleaf_t@@@Z 10006600 f   bsplib.obj
 0001:00005680       ??$DataMapInit@UCompressedLightCube@@@@YAPAUdatamap_t@@PAUCompressedLightCube@@@Z 10006680 f   bsplib.obj
 0001:00005700       ??$DataMapInit@Udleafambientindex_t@@@@YAPAUdatamap_t@@PAUdleafambientindex_t@@@Z 10006700 f   bsplib.obj
 0001:00005780       ??$DataMapInit@Udleafambientlighting_t@@@@YAPAUdatamap_t@@PAUdleafambientlighting_t@@@Z 10006780 f   bsplib.obj
 0001:00005800       ??$DataMapInit@Udvertex_t@@@@YAPAUdatamap_t@@PAUdvertex_t@@@Z 10006800 f   bsplib.obj
 0001:00005880       ??$DataMapInit@Udnode_t@@@@YAPAUdatamap_t@@PAUdnode_t@@@Z 10006880 f   bsplib.obj
 0001:00005900       ??$DataMapInit@Utexinfo_s@@@@YAPAUdatamap_t@@PAUtexinfo_s@@@Z 10006900 f   bsplib.obj
 0001:00005980       ??$DataMapInit@Udtexdata_t@@@@YAPAUdatamap_t@@PAUdtexdata_t@@@Z 10006980 f   bsplib.obj
 0001:00005a00       ??$DataMapInit@Vddispinfo_t@@@@YAPAUdatamap_t@@PAVddispinfo_t@@@Z 10006a00 f   bsplib.obj
 0001:00005a80       ??$DataMapInit@VCDispNeighbor@@@@YAPAUdatamap_t@@PAVCDispNeighbor@@@Z 10006a80 f   bsplib.obj
 0001:00005b00       ??$DataMapInit@VCDispCornerNeighbors@@@@YAPAUdatamap_t@@PAVCDispCornerNeighbors@@@Z 10006b00 f   bsplib.obj
 0001:00005b80       ??$DataMapInit@UCDispSubNeighbor@@@@YAPAUdatamap_t@@PAUCDispSubNeighbor@@@Z 10006b80 f   bsplib.obj
 0001:00005c00       ??$DataMapInit@VCDispVert@@@@YAPAUdatamap_t@@PAVCDispVert@@@Z 10006c00 f   bsplib.obj
 0001:00005c80       ??$DataMapInit@VCDispTri@@@@YAPAUdatamap_t@@PAVCDispTri@@@Z 10006c80 f   bsplib.obj
 0001:00005d00       ??$DataMapInit@VCFaceMacroTextureInfo@@@@YAPAUdatamap_t@@PAVCFaceMacroTextureInfo@@@Z 10006d00 f   bsplib.obj
 0001:00005d80       ??$DataMapInit@Udprimitive_t@@@@YAPAUdatamap_t@@PAUdprimitive_t@@@Z 10006d80 f   bsplib.obj
 0001:00005e00       ??$DataMapInit@Udprimvert_t@@@@YAPAUdatamap_t@@PAUdprimvert_t@@@Z 10006e00 f   bsplib.obj
 0001:00005e80       ??$DataMapInit@Udface_t@@@@YAPAUdatamap_t@@PAUdface_t@@@Z 10006e80 f   bsplib.obj
 0001:00005f00       ??$DataMapInit@Udfaceid_t@@@@YAPAUdatamap_t@@PAUdfaceid_t@@@Z 10006f00 f   bsplib.obj
 0001:00005f80       ??$DataMapInit@Udbrush_t@@@@YAPAUdatamap_t@@PAUdbrush_t@@@Z 10006f80 f   bsplib.obj
 0001:00006000       ??$DataMapInit@Udbrushside_t@@@@YAPAUdatamap_t@@PAUdbrushside_t@@@Z 10007000 f   bsplib.obj
 0001:00006080       ??$DataMapInit@Udedge_t@@@@YAPAUdatamap_t@@PAUdedge_t@@@Z 10007080 f   bsplib.obj
 0001:00006100       ??$DataMapInit@Udmodel_t@@@@YAPAUdatamap_t@@PAUdmodel_t@@@Z 10007100 f   bsplib.obj
 0001:00006180       ??$DataMapInit@Udphysmodel_t@@@@YAPAUdatamap_t@@PAUdphysmodel_t@@@Z 10007180 f   bsplib.obj
 0001:00006200       ??$DataMapInit@Udphysdisp_t@@@@YAPAUdatamap_t@@PAUdphysdisp_t@@@Z 10007200 f   bsplib.obj
 0001:00006280       ??$DataMapInit@Udarea_t@@@@YAPAUdatamap_t@@PAUdarea_t@@@Z 10007280 f   bsplib.obj
 0001:00006300       ??$DataMapInit@Udareaportal_t@@@@YAPAUdatamap_t@@PAUdareaportal_t@@@Z 10007300 f   bsplib.obj
 0001:00006380       ??$DataMapInit@Udworldlight_t@@@@YAPAUdatamap_t@@PAUdworldlight_t@@@Z 10007380 f   bsplib.obj
 0001:00006400       ??$DataMapInit@Udleafwaterdata_t@@@@YAPAUdatamap_t@@PAUdleafwaterdata_t@@@Z 10007400 f   bsplib.obj
 0001:00006480       ??$DataMapInit@Udoccluderdata_t@@@@YAPAUdatamap_t@@PAUdoccluderdata_t@@@Z 10007480 f   bsplib.obj
 0001:00006500       ??$DataMapInit@Udoccluderpolydata_t@@@@YAPAUdatamap_t@@PAUdoccluderpolydata_t@@@Z 10007500 f   bsplib.obj
 0001:00006580       ??$DataMapInit@Udcubemapsample_t@@@@YAPAUdatamap_t@@PAUdcubemapsample_t@@@Z 10007580 f   bsplib.obj
 0001:00006600       ??$DataMapInit@Udoverlay_t@@@@YAPAUdatamap_t@@PAUdoverlay_t@@@Z 10007600 f   bsplib.obj
 0001:00006680       ??$DataMapInit@Udwateroverlay_t@@@@YAPAUdatamap_t@@PAUdwateroverlay_t@@@Z 10007680 f   bsplib.obj
 0001:00006700       ??$DataMapInit@Udoverlayfade_t@@@@YAPAUdatamap_t@@PAUdoverlayfade_t@@@Z 10007700 f   bsplib.obj
 0001:00006780       ??$DataMapInit@Udgamelumpheader_t@@@@YAPAUdatamap_t@@PAUdgamelumpheader_t@@@Z 10007780 f   bsplib.obj
 0001:00006800       ??$DataMapInit@Udgamelump_t@@@@YAPAUdatamap_t@@PAUdgamelump_t@@@Z 10007800 f   bsplib.obj
 0001:00006880       ??$DataMapInit@UStaticPropDictLump_t@@@@YAPAUdatamap_t@@PAUStaticPropDictLump_t@@@Z 10007880 f   bsplib.obj
 0001:00006900       ??$DataMapInit@UStaticPropLump_t@@@@YAPAUdatamap_t@@PAUStaticPropLump_t@@@Z 10007900 f   bsplib.obj
 0001:00006980       ??$DataMapInit@UStaticPropLumpV4_t@@@@YAPAUdatamap_t@@PAUStaticPropLumpV4_t@@@Z 10007980 f   bsplib.obj
 0001:00006a00       ??$DataMapInit@UStaticPropLumpV5_t@@@@YAPAUdatamap_t@@PAUStaticPropLumpV5_t@@@Z 10007a00 f   bsplib.obj
 0001:00006a80       ??$DataMapInit@UStaticPropLeafLump_t@@@@YAPAUdatamap_t@@PAUStaticPropLeafLump_t@@@Z 10007a80 f   bsplib.obj
 0001:00006b00       ??$DataMapInit@UDetailObjectDictLump_t@@@@YAPAUdatamap_t@@PAUDetailObjectDictLump_t@@@Z 10007b00 f   bsplib.obj
 0001:00006b80       ??$DataMapInit@UDetailObjectLump_t@@@@YAPAUdatamap_t@@PAUDetailObjectLump_t@@@Z 10007b80 f   bsplib.obj
 0001:00006c00       ??$DataMapInit@UDetailSpriteDictLump_t@@@@YAPAUdatamap_t@@PAUDetailSpriteDictLump_t@@@Z 10007c00 f   bsplib.obj
 0001:00006c80       ??$DataMapInit@UDetailPropLightstylesLump_t@@@@YAPAUdatamap_t@@PAUDetailPropLightstylesLump_t@@@Z 10007c80 f   bsplib.obj
 0001:00006d00       ??$DataMapInit@UMeshHeader_t@HardwareVerts@@@HardwareVerts@@YAPAUdatamap_t@@PAUMeshHeader_t@0@@Z 10007d00 f   bsplib.obj
 0001:00006d80       ??$DataMapInit@UFileHeader_t@HardwareVerts@@@HardwareVerts@@YAPAUdatamap_t@@PAUFileHeader_t@0@@Z 10007d80 f   bsplib.obj
 0001:00006ff0       ??$DataMapInit@Uswapcollideheader_t@@@@YAPAUdatamap_t@@PAUswapcollideheader_t@@@Z 10007ff0 f   bsplib.obj
 0001:00007070       ??$DataMapInit@Uswapcompactsurfaceheader_t@@@@YAPAUdatamap_t@@PAUswapcompactsurfaceheader_t@@@Z 10008070 f   bsplib.obj
 0001:000070f0       ??$DataMapInit@Uswapmoppsurfaceheader_t@@@@YAPAUdatamap_t@@PAUswapmoppsurfaceheader_t@@@Z 100080f0 f   bsplib.obj
 0001:00007160       ?LoadLeafs@@YAHXZ          10008160 f   bsplib.obj
 0001:00007350       ?RemoveAll@?$CUtlLinkedList@UGameLump_t@@G$0A@GV?$CUtlMemory@U?$UtlLinkedListElem_t@UGameLump_t@@G@@G@@@@QAEXXZ 10008350 f i bsplib.obj
 0001:00007400       ??$CopyOptionalLump@Udleafambientlighting_t@@@@YAXHAAV?$CUtlVector@Udleafambientlighting_t@@V?$CUtlMemory@Udleafambientlighting_t@@H@@@@H@Z 10008400 f i bsplib.obj
 0001:00007460       ??$CopyOptionalLump@Udleafambientindex_t@@@@YAXHAAV?$CUtlVector@Udleafambientindex_t@@V?$CUtlMemory@Udleafambientindex_t@@H@@@@H@Z 10008460 f i bsplib.obj
 0001:000074e0       ?LoadLeafAmbientLighting@@YAXH@Z 100084e0 f   bsplib.obj
 0001:00007710       ??$CopyOptionalLump@Udfaceid_t@@@@YAXHAAV?$CUtlVector@Udfaceid_t@@V?$CUtlMemory@Udfaceid_t@@H@@@@H@Z 10008710 f i bsplib.obj
 0001:00007790       ?RemoveAll@?$CUtlVector@Uclusterlist_t@@V?$CUtlMemory@Uclusterlist_t@@H@@@@QAEXXZ 10008790 f i bsplib.obj
 0001:00007830       ?RemoveAll@?$CUtlVector@VCUtlString@@V?$CUtlMemory@VCUtlString@@H@@@@QAEXXZ 10008830 f i bsplib.obj
 0001:00007890       ?InsertMultipleBefore@?$CUtlVector@Uclusterlist_t@@V?$CUtlMemory@Uclusterlist_t@@H@@@@QAEHHHPBUclusterlist_t@@@Z 10008890 f i bsplib.obj
 0001:00007990       ?CreateGameLump@CGameLump@@QAEGHHHH@Z 10008990 f   bsplib.obj
 0001:00007a40       ?ParseGameLump@CGameLump@@QAEXPAUdheader_t@@@Z 10008a40 f   bsplib.obj
 0001:00007b40       ?LoadBSPFile@@YAXPBD@Z     10008b40 f   bsplib.obj
 0001:00008b20       ??1?$CUtlVector@Uclusterlist_t@@V?$CUtlMemory@Uclusterlist_t@@H@@@@QAE@XZ 10009b20 f i bsplib.obj
 0001:00008b80       ??1?$CUtlVector@VCUtlString@@V?$CUtlMemory@VCUtlString@@H@@@@QAE@XZ 10009b80 f i bsplib.obj
 0001:00008be0       ?BuildClusterTable@@YAXXZ  10009be0 f   bsplib.obj
 0001:00008d80       ?SetConsoleTextColor@@YAGHHHH@Z 10009d80 f   cmdlib.obj
 0001:00008e10       ?CmdLib_NewHandler@@YAHI@Z 10009e10 f   cmdlib.obj
 0001:00008e30       ?InstallAllocationFunctions@@YAXXZ 10009e30 f   cmdlib.obj
 0001:00008e50       ?CmdLib_Exit@@YAXH@Z       10009e50 f   cmdlib.obj
 0001:00008e60       ?qprintf@@YAXPADZZ         10009e60 f   cmdlib.obj
 0001:00008eb0       ?ExpandPath@@YAPADPAD@Z    10009eb0 f   cmdlib.obj
 0001:00008ef0       ?copystring@@YAPADPBD@Z    10009ef0 f   cmdlib.obj
 0001:00008f30       ?GetHourMinuteSecondsString@@YAXHPADH@Z 10009f30 f   cmdlib.obj
 0001:00009040       ?CmdLib_InitFileSystem@@YAXPBDH@Z 1000a040 f   cmdlib.obj
 0001:00009070       ?SafeOpenWrite@@YAPAXPBD@Z 1000a070 f   cmdlib.obj
 0001:000090b0       ?CmdLib_HasBasePath@@YA_NPBDAAH@Z 1000a0b0 f   cmdlib.obj
 0001:00009170       ?SafeOpenRead@@YAPAXPBD@Z  1000a170 f   cmdlib.obj
 0001:00009290       ?SafeWrite@@YAXPAX0H@Z     1000a290 f   cmdlib.obj
 0001:000092d0       ?LoadFile@@YAHPBDPAPAX@Z   1000a2d0 f   cmdlib.obj
 0001:00009360       ?Grow@?$CUtlMemory@U?$UtlLinkedListElem_t@PAVCZip@@G@@G@@QAEXH@Z 1000a360 f i zip_utils.obj
 0001:00009360       ?Grow@?$CUtlMemory@U?$UtlLinkedListElem_t@P6AXPBD@ZG@@G@@QAEXH@Z 1000a360 f i cmdlib.obj
 0001:00009360       ?Grow@?$CUtlMemory@U?$UtlLinkedListElem_t@P6AXXZG@@G@@QAEXH@Z 1000a360 f i cmdlib.obj
 0001:00009420       ?RemoveAll@?$CUtlLinkedList@P6AXXZG$0A@GV?$CUtlMemory@U?$UtlLinkedListElem_t@P6AXXZG@@G@@@@QAEXXZ 1000a420 f i cmdlib.obj
 0001:00009420       ?RemoveAll@?$CUtlLinkedList@PAVCZip@@G$0A@GV?$CUtlMemory@U?$UtlLinkedListElem_t@PAVCZip@@G@@G@@@@QAEXXZ 1000a420 f i zip_utils.obj
 0001:00009420       ?RemoveAll@?$CUtlLinkedList@P6AXPBD@ZG$0A@GV?$CUtlMemory@U?$UtlLinkedListElem_t@P6AXPBD@ZG@@G@@@@QAEXXZ 1000a420 f i cmdlib.obj
 0001:00009490       ?AllocInternal@?$CUtlLinkedList@PAVCZip@@G$0A@GV?$CUtlMemory@U?$UtlLinkedListElem_t@PAVCZip@@G@@G@@@@IAEG_N@Z 1000a490 f i zip_utils.obj
 0001:00009490       ?AllocInternal@?$CUtlLinkedList@P6AXXZG$0A@GV?$CUtlMemory@U?$UtlLinkedListElem_t@P6AXXZG@@G@@@@IAEG_N@Z 1000a490 f i cmdlib.obj
 0001:00009490       ?AllocInternal@?$CUtlLinkedList@P6AXPBD@ZG$0A@GV?$CUtlMemory@U?$UtlLinkedListElem_t@P6AXPBD@ZG@@G@@@@IAEG_N@Z 1000a490 f i cmdlib.obj
 0001:000095b0       ?CmdLib_Cleanup@@YAXXZ     1000a5b0 f   cmdlib.obj
 0001:00009620       ?Unlink@?$CUtlLinkedList@P6AXXZG$0A@GV?$CUtlMemory@U?$UtlLinkedListElem_t@P6AXXZG@@G@@@@QAEXG@Z 1000a620 f i cmdlib.obj
 0001:00009620       ?Unlink@?$CUtlLinkedList@PAVCZip@@G$0A@GV?$CUtlMemory@U?$UtlLinkedListElem_t@PAVCZip@@G@@G@@@@QAEXG@Z 1000a620 f i zip_utils.obj
 0001:00009620       ?Unlink@?$CUtlLinkedList@P6AXPBD@ZG$0A@GV?$CUtlMemory@U?$UtlLinkedListElem_t@P6AXPBD@ZG@@G@@@@QAEXG@Z 1000a620 f i cmdlib.obj
 0001:000096b0       ?CmdLib_FPrintf@@YAXPAXPBDZZ 1000a6b0 f   cmdlib.obj
 0001:00009840       ?CmdLib_SpewOutputFunc@@YA?AW4SpewRetval_t@@W4SpewType_t@@PBD@Z 1000a840 f   cmdlib.obj
 0001:00009ba0       ?InstallSpewFunction@@YAXXZ 1000aba0 f   cmdlib.obj
 0001:00009be0       ?SetSpewFunctionLogFile@@YAXPBD@Z 1000abe0 f   cmdlib.obj
 0001:00009c30       ?InstallExtraSpewHook@@YAXP6AXPBD@Z@Z 1000ac30 f   cmdlib.obj
 0001:00009c70       ?CmdLib_AtCleanup@@YAXP6AXXZ@Z 1000ac70 f   cmdlib.obj
 0001:00009cb0       ?IsBoxIntersectingBox@@YA_NABVVector@@000@Z 1000acb0 f   collisionutils.obj
 0001:00009d20       ?CountBits@@YAHPAEH@Z      1000ad20 f   flow.obj
 0001:00009d50       ?AllocStackWinding@@YAPAUwinding_t@@PAUpstack_t@@@Z 1000ad50 f   flow.obj
 0001:00009da0       ?FreeStackWinding@@YAXPAUwinding_t@@PAUpstack_t@@@Z 1000ada0 f   flow.obj
 0001:00009df0       ?ChopWinding@@YAPAUwinding_t@@PAU1@PAUpstack_t@@PAUplane_t@@@Z 1000adf0 f   flow.obj
 0001:0000a160       ?WindingCenter@@YAXPAUwinding_t@@AAVVector@@@Z 1000b160 f   flow.obj
 0001:0000a1e0       ?ClipToSeperators@@YAPAUwinding_t@@PAU1@00_NPAUpstack_t@@@Z 1000b1e0 f   flow.obj
 0001:0000a5b0       ?ClusterCenter@@YA?AVVector@@H@Z 1000b5b0 f   flow.obj
 0001:0000a670       ?WritePortalTrace@@YAXPBD@Z 1000b670 f   flow.obj
 0001:0000a760       ?SimpleFlood@@YAXPAUportal_t@@H@Z 1000b760 f   flow.obj
 0001:0000a810       ?BasePortalVis@@YAXHH@Z    1000b810 f   flow.obj
 0001:0000ad00       ?InsertBefore@?$CUtlVector@VVector@@V?$CUtlMemory@VVector@@H@@@@QAEHHABVVector@@@Z 1000bd00 f i flow.obj
 0001:0000ad80       ?DumpPortalTrace@@YAXPAUpstack_t@@@Z 1000bd80 f   flow.obj
 0001:0000b2c0       ?RecursiveLeafFlow@@YAXHPAUthreaddata_t@@PAUpstack_t@@@Z 1000c2c0 f   flow.obj
 0001:0000b620       ?PortalFlow@@YAXHH@Z       1000c620 f   flow.obj
 0001:0000b940       ?LoadCmdLineFromFile@@YAXAAHAAPAPADPBD2@Z 1000c940 f   loadcmdline.obj
 0001:0000ba10       ?DeleteCmdLine@@YAXHPAPAD@Z 1000ca10 f   loadcmdline.obj
 0001:0000ba50       ?GetID@ISQLDBCommand@@UAEHXZ 1000ca50 f i mpi_stats.obj
 0001:0000ba50       ?GetReturnData@ISQLDBCommand@@UAEPAXXZ 1000ca50 f i mpi_stats.obj
 0001:0000ba60       ?GetDebugInfo@ISQLDBCommand@@UAEXPADH@Z 1000ca60 f i mpi_stats.obj
 0001:0000ba70       ??_EISQLDBCommand@@MAEPAXI@Z 1000ca70 f i mpi_stats.obj
 0001:0000ba70       ??_GCSQLDBCommand_GraphEntry@@UAEPAXI@Z 1000ca70 f i mpi_stats.obj
 0001:0000ba70       ??_ECSQLDBCommand_GraphEntry@@UAEPAXI@Z 1000ca70 f i mpi_stats.obj
 0001:0000ba70       ??_GCSQLDBCommand_WorkerStats@@UAEPAXI@Z 1000ca70 f i mpi_stats.obj
 0001:0000ba70       ??_GISQLDBCommand@@MAEPAXI@Z 1000ca70 f i mpi_stats.obj
 0001:0000ba70       ??_ECSQLDBCommand_JobMasterEnd@@UAEPAXI@Z 1000ca70 f i mpi_stats.obj
 0001:0000ba70       ??_ECSQLDBCommand_WorkerStats@@UAEPAXI@Z 1000ca70 f i mpi_stats.obj
 0001:0000ba70       ??_GCSQLDBCommand_JobMasterEnd@@UAEPAXI@Z 1000ca70 f i mpi_stats.obj
 0001:0000baa0       ?FormatStringForSQL@@YAPADPBD@Z 1000caa0 f   mpi_stats.obj
 0001:0000bb10       ?UnloadMySQLWrapper@@YAXXZ 1000cb10 f   mpi_stats.obj
 0001:0000bb50       ?LoadMySQLWrapper@@YA_NPBD00@Z 1000cb50 f   mpi_stats.obj
 0001:0000bc30       ?GetDBInfo@@YAXPBDPAVCDBInfo@@@Z 1000cc30 f   mpi_stats.obj
 0001:0000bd80       ?RunJobWatchApp@@YAXPAD@Z  1000cd80 f   mpi_stats.obj
 0001:0000be50       ?StatsDB_GetUniqueJobID@@YAKXZ 1000ce50 f   mpi_stats.obj
 0001:0000be60       ?deleteThis@CSQLDBCommandBase@@UAEXXZ 1000ce60 f i mpi_stats.obj
 0001:0000be60       ?Release@CThreadedTCPSocket@@UAEXXZ 1000ce60 f i vmpi:ThreadedTCPSocket.obj
 0001:0000be70       ??_ECSQLDBCommand_TextMessage@@UAEPAXI@Z 1000ce70 f i mpi_stats.obj
 0001:0000be70       ??_GCSQLDBCommand_TextMessage@@UAEPAXI@Z 1000ce70 f i mpi_stats.obj
 0001:0000beb0       ?RunCommand@CSQLDBCommand_WorkerStats@@UAEHXZ 1000ceb0 f i mpi_stats.obj
 0001:0000bf80       ?PerfThread_AddGraphEntry@@YAXKAAK0@Z 1000cf80 f   mpi_stats.obj
 0001:0000c010       ?VMPI_Stats_Term@@YAXXZ    1000d010 f   mpi_stats.obj
 0001:0000c120       ?Execute@CMySQLQuery@@QAEHPAVIMySQL@@@Z 1000d120 f   mpi_stats.obj
 0001:0000c180       ?VMPI_Stats_SpewHook@@YAXPBD@Z 1000d180 f   mpi_stats.obj
 0001:0000c1d0       ?PerfThread_SendSpewText@@YAXXZ 1000d1d0 f   mpi_stats.obj
 0001:0000c310       ?PerfThreadFn@@YGKPAX@Z    1000d310 f   mpi_stats.obj
 0001:0000c430       ?VMPI_Stats_InstallSpewHook@@YAXXZ 1000d430 f   mpi_stats.obj
 0001:0000c440       ?Format@CMySQLQuery@@QAAXPBDZZ 1000d440 f   mpi_stats.obj
 0001:0000c520       ?RunCommand@CSQLDBCommand_JobMasterEnd@@UAEHXZ 1000d520 f i mpi_stats.obj
 0001:0000c610       ?UpdateJobWorkerRunningTime@@YAXXZ 1000d610 f   mpi_stats.obj
 0001:0000c6d0       ?RunCommand@CSQLDBCommand_GraphEntry@@UAEHXZ 1000d6d0 f i mpi_stats.obj
 0001:0000c770       ?RunCommand@CSQLDBCommand_TextMessage@@UAEHXZ 1000d770 f i mpi_stats.obj
 0001:0000c800       ?VMPI_Stats_Init_Worker@@YA_NPBD00K@Z 1000d800 f   mpi_stats.obj
 0001:0000c9b0       ?VMPI_Stats_Init_Master@@YA_NPBD000PAK@Z 1000d9b0 f   mpi_stats.obj
 0001:0000cb30       ?StatsDB_InitStatsDatabase@@YAXHPAPADPBD@Z 1000db30 f   mpi_stats.obj
 0001:0000cca0       ?VMPI_DeletePortalMCSocket@@YAXXZ 1000dca0 f   mpivis.obj
 0001:0000cd00       ?VVIS_SetupMPI@@YAXAAHAAPAPAD@Z 1000dd00 f   mpivis.obj
 0001:0000cde0       ?ReceiveBasePortalVis@@YAX_KPAVMessageBuffer@@H@Z 1000dde0 f   mpivis.obj
 0001:0000ced0       ?ReceivePortalFlow@@YAX_KPAVMessageBuffer@@H@Z 1000ded0 f   mpivis.obj
 0001:0000cf70       ?MCThreadCleanupFn@@YAXXZ  1000df70 f   mpivis.obj
 0001:0000cf80       ?OnWorkUnitsCompleted@IWorkUnitDistributorCallbacks@@UAEX_K@Z 1000df80 f i mpivis.obj
 0001:0000cf80       ?NoteLocalWorkUnitCompleted@CDistributor_DefaultWorker@@UAEX_K@Z 1000df80 f i vmpi:vmpi_distribute_work_default.obj
 0001:0000cf90       ?CheckExitedEarly@@YAXXZ   1000df90 f   mpivis.obj
 0001:0000d000       ?End@CFastTimer@@QAEXXZ    1000e000 f i mpivis.obj
 0001:0000d040       ?Update@CVisDistributeWorkCallbacks@@UAE_NXZ 1000e040 f i mpivis.obj
 0001:0000d1c0       ?ProcessBasePortalVis@@YAXH_KPAVMessageBuffer@@@Z 1000e1c0 f   mpivis.obj
 0001:0000d280       ?ProcessPortalFlow@@YAXH_KPAVMessageBuffer@@@Z 1000e280 f   mpivis.obj
 0001:0000d320       ?CopyArray@?$CUtlVector@DV?$CUtlMemory@DH@@@@QAEXPBDH@Z 1000e320 f i mpivis.obj
 0001:0000d390       ?VVIS_DispatchFn@@YA_NPAVMessageBuffer@@HH@Z 1000e390 f   mpivis.obj
 0001:0000d440       ?RunMPIBasePortalVis@@YAXXZ 1000e440 f   mpivis.obj
 0001:0000d760       ?PortalMCThreadFn@@YGKPAX@Z 1000e760 f   mpivis.obj
 0001:0000d890       ?RunMPIPortalFlow@@YAXXZ   1000e890 f   mpivis.obj
 0001:0000dc00       ?QueriesInOutQueue@CMySqlDatabase@@UAEHXZ 1000ec00 f   MySqlDatabase.obj
 0001:0000dc10       ?QueriesInFinishedQueue@CMySqlDatabase@@UAEHXZ 1000ec10 f   MySqlDatabase.obj
 0001:0000dc20       ?AllocInternal@?$CUtlLinkedList@Umsg_t@CMySqlDatabase@@H$0A@HV?$CUtlMemory@U?$UtlLinkedListElem_t@Umsg_t@CMySqlDatabase@@H@@H@@@@IAEH_N@Z 1000ec20 f i MySqlDatabase.obj
 0001:0000dd10       ?RemoveAll@?$CUtlLinkedList@Umsg_t@CMySqlDatabase@@H$0A@HV?$CUtlMemory@U?$UtlLinkedListElem_t@Umsg_t@CMySqlDatabase@@H@@H@@@@QAEXXZ 1000ed10 f i MySqlDatabase.obj
 0001:0000dd70       ?Unlink@?$CUtlLinkedList@Umsg_t@CMySqlDatabase@@H$0A@HV?$CUtlMemory@U?$UtlLinkedListElem_t@Umsg_t@CMySqlDatabase@@H@@H@@@@QAEXH@Z 1000ed70 f i MySqlDatabase.obj
 0001:0000ddf0       ??0CMySqlDatabase@@QAE@XZ  1000edf0 f   MySqlDatabase.obj
 0001:0000de70       ??1CMySqlDatabase@@QAE@XZ  1000ee70 f   MySqlDatabase.obj
 0001:0000df20       ?AddToTail@?$CUtlLinkedList@Umsg_t@CMySqlDatabase@@H$0A@HV?$CUtlMemory@U?$UtlLinkedListElem_t@Umsg_t@CMySqlDatabase@@H@@H@@@@QAEHABUmsg_t@CMySqlDatabase@@@Z 1000ef20 f i MySqlDatabase.obj
 0001:0000dfa0       ?RunThread@CMySqlDatabase@@QAEXXZ 1000efa0 f   MySqlDatabase.obj
 0001:0000e1a0       ?AddCommandToQueue@CMySqlDatabase@@QAEXPAVISQLDBCommand@@PAVISQLDBReplyTarget@@H@Z 1000f1a0 f   MySqlDatabase.obj
 0001:0000e220       ?Initialize@CMySqlDatabase@@QAE_NXZ 1000f220 f   MySqlDatabase.obj
 0001:0000e280       ?UpdatePacifier@@YAXM@Z    1000f280 f   pacifier.obj
 0001:0000e310       ?EndPacifier@@YAX_N@Z      1000f310 f   pacifier.obj
 0001:0000e340       ?StartPacifier@@YAXPBD@Z   1000f340 f   pacifier.obj
 0001:0000e380       ??_GIScratchPad3D@@MAEPAXI@Z 1000f380 f i scratchpad3d.obj
 0001:0000e380       ??_EIScratchPad3D@@MAEPAXI@Z 1000f380 f i scratchpad3d.obj
 0001:0000e3b0       ?Read@CCommand_Point@CScratchPad3D@@UAEXPAVCFileRead@@@Z 1000f3b0 f   scratchpad3d.obj
 0001:0000e400       ?Write@CCommand_Point@CScratchPad3D@@UAEXPAVIFileSystem@@PAX@Z 1000f400 f   scratchpad3d.obj
 0001:0000e440       ?Read@CCommand_Line@CScratchPad3D@@UAEXPAVCFileRead@@@Z 1000f440 f   scratchpad3d.obj
 0001:0000e470       ?Write@CCommand_Line@CScratchPad3D@@UAEXPAVIFileSystem@@PAX@Z 1000f470 f   scratchpad3d.obj
 0001:0000e4a0       ?Read@CCommand_Matrix@CScratchPad3D@@UAEXPAVCFileRead@@@Z 1000f4a0 f   scratchpad3d.obj
 0001:0000e4d0       ?Write@CCommand_Matrix@CScratchPad3D@@UAEXPAVIFileSystem@@PAX@Z 1000f4d0 f   scratchpad3d.obj
 0001:0000e500       ?Read@CCommand_RenderState@CScratchPad3D@@UAEXPAVCFileRead@@@Z 1000f500 f   scratchpad3d.obj
 0001:0000e550       ?Write@CCommand_RenderState@CScratchPad3D@@UAEXPAVIFileSystem@@PAX@Z 1000f550 f   scratchpad3d.obj
 0001:0000e590       ?Release@CScratchPad3D@@UAEXXZ 1000f590 f   scratchpad3d.obj
 0001:0000e5b0       ?GetAutoFlush@CScratchPad3D@@UAE_NXZ 1000f5b0 f   scratchpad3d.obj
 0001:0000e5c0       ?SetAutoFlush@CScratchPad3D@@UAEX_N@Z 1000f5c0 f   scratchpad3d.obj
 0001:0000e5e0       ??4CTextParams@@QAEAAV0@ABV0@@Z 1000f5e0 f i scratchpad3d.obj
 0001:0000e650       ?DrawImageBW@CScratchPad3D@@UAEXPBEHHH_N1PAVVector@@@Z 1000f650 f   scratchpad3d.obj
 0001:0000e710       ?Write@CCommand_Polygon@CScratchPad3D@@UAEXPAVIFileSystem@@PAX@Z 1000f710 f   scratchpad3d.obj
 0001:0000e770       ?Write@CCommand_Text@CScratchPad3D@@UAEXPAVIFileSystem@@PAX@Z 1000f770 f   scratchpad3d.obj
 0001:0000e7d0       ?DrawWireframeBox@CScratchPad3D@@UAEXABVVector@@00@Z 1000f7d0 f   scratchpad3d.obj
 0001:0000ed60       ?DeleteCommands@CScratchPad3D@@QAEXXZ 1000fd60 f   scratchpad3d.obj
 0001:0000edc0       ?Clear@CScratchPad3D@@UAEXXZ 1000fdc0 f   scratchpad3d.obj
 0001:0000ee20       ?Flush@CScratchPad3D@@UAEXXZ 1000fe20 f   scratchpad3d.obj
 0001:0000eec0       ?InsertMultipleBefore@?$CUtlVector@VCSPVert@@V?$CUtlMemory@VCSPVert@@H@@@@QAEHHHPBVCSPVert@@@Z 1000fec0 f i scratchpad3d.obj
 0001:0000f150       ??0CCommand_Text@CScratchPad3D@@QAE@XZ 10010150 f i scratchpad3d.obj
 0001:0000f1b0       ?ScratchPad3D_Create@@YAPAVIScratchPad3D@@PBD@Z 100101b0 f   scratchpad3d.obj
 0001:0000f240       ?AddVectorToTail@?$CUtlVector@VCSPVert@@V?$CUtlMemory@VCSPVert@@H@@@@QAEHABV1@@Z 10010240 f i scratchpad3d.obj
 0001:0000f2e0       ??0CSPVertList@@QAE@PBVVector@@HVCSPColor@@@Z 100102e0 f i scratchpad3d.obj
 0001:0000f470       ?Read@CCommand_Polygon@CScratchPad3D@@UAEXPAVCFileRead@@@Z 10010470 f   scratchpad3d.obj
 0001:0000f4e0       ??_ECScratchPad3D@@UAEPAXI@Z 100104e0 f i scratchpad3d.obj
 0001:0000f4e0       ??_GCScratchPad3D@@UAEPAXI@Z 100104e0 f i scratchpad3d.obj
 0001:0000f510       ?DrawRectGeneric@CScratchPad3D@@QAEXHHHMABVVector2D@@0ABVCSPColor@@@Z 10010510 f   scratchpad3d.obj
 0001:0000f5c0       ?SetMapping@CScratchPad3D@@UAEXABVVector@@000@Z 100105c0 f   scratchpad3d.obj
 0001:0000f740       ?DrawPoint@CScratchPad3D@@UAEXABVCSPVert@@M@Z 10010740 f   scratchpad3d.obj
 0001:0000f810       ?DrawLine@CScratchPad3D@@UAEXABVCSPVert@@0@Z 10010810 f   scratchpad3d.obj
 0001:0000f900       ?DrawPolygon@CScratchPad3D@@UAEXABVCSPVertList@@@Z 10010900 f   scratchpad3d.obj
 0001:0000f9c0       ?DrawRectYZ@CScratchPad3D@@UAEXMABVVector2D@@0ABVCSPColor@@@Z 100109c0 f   scratchpad3d.obj
 0001:0000f9f0       ?DrawRectXZ@CScratchPad3D@@UAEXMABVVector2D@@0ABVCSPColor@@@Z 100109f0 f   scratchpad3d.obj
 0001:0000fa20       ?DrawRectXY@CScratchPad3D@@UAEXMABVVector2D@@0ABVCSPColor@@@Z 10010a20 f   scratchpad3d.obj
 0001:0000fa50       ?SetRenderState@CScratchPad3D@@UAEXW4RenderState@IScratchPad3D@@K@Z 10010a50 f   scratchpad3d.obj
 0001:0000faf0       ?DrawPolygonsForPixels@CScratchPad3D@@QAEXPAVSPRGBA@@HHHPAVVector@@@Z 10010af0 f   scratchpad3d.obj
 0001:0000ff90       ?DrawImageRGBA@CScratchPad3D@@UAEXPAVSPRGBA@@HHH_N1PAVVector@@@Z 10010f90 f   scratchpad3d.obj
 0001:000100b0       ?Read@CCommand_Text@CScratchPad3D@@UAEXPAVCFileRead@@@Z 100110b0 f   scratchpad3d.obj
 0001:00010160       ?DrawText@CScratchPad3D@@UAEXPBDABVCTextParams@@@Z 10011160 f   scratchpad3d.obj
 0001:00010220       ?ScratchPad_DrawWinding@@YAXPAVIScratchPad3D@@HPAVVector@@V2@2@Z 10011220 f   scratchpad_helpers.obj
 0001:000102f0       ?ScratchPad_DrawFace@@YAXPAVIScratchPad3D@@PAUdface_t@@HABVCSPColor@@ABVVector@@@Z 100112f0 f   scratchpad_helpers.obj
 0001:000105c0       ?ScratchPad_DrawWorld@@YAXPAVIScratchPad3D@@_NABVCSPColor@@@Z 100115c0 f   scratchpad_helpers.obj
 0001:000106b0       ?AddScriptToStack@@YAXPADW4ScriptPathMode_t@@@Z 100116b0 f   scriplib.obj
 0001:00010790       ?AddMacroToStack@@YA_NPAD@Z 10011790 f   scriplib.obj
 0001:00010950       ?ExpandMacroToken@@YA_NAAPAD@Z 10011950 f   scriplib.obj
 0001:00010a80       ?ParseFromMemory@@YAXPADH@Z 10011a80 f   scriplib.obj
 0001:00010af0       ?EndOfScript@@YAHH@Z       10011af0 f   scriplib.obj
 0001:00010bb0       ?TokenAvailable@@YAHXZ     10011bb0 f   scriplib.obj
 0001:00010c10       ?DoesFileExist@CScriptLib@@UAE_NPBD@Z 10011c10 f   scriplib.obj
 0001:00010c30       ?ReadFileToBuffer@CScriptLib@@UAE_NPBDAAVCUtlBuffer@@_N2@Z 10011c30 f   scriplib.obj
 0001:00010cb0       ?WriteBufferToFile@CScriptLib@@UAE_NPBDAAVCUtlBuffer@@W4DiskWriteMode_t@@@Z 10011cb0 f   scriplib.obj
 0001:00010d70       ?CompareFileTime@CScriptLib@@UAEHPBD0@Z 10011d70 f   scriplib.obj
 0001:00010dd0       ?MakeTemporaryFilename@CScriptLib@@UAEPADPBDPADH@Z 10011dd0 f   scriplib.obj
 0001:00010e40       ?Grow@?$CUtlMemory@UfileList_t@@H@@QAEXH@Z 10011e40 f i scriplib.obj
 0001:00010e40       ?Grow@?$CUtlMemory@Uclusterlist_t@@H@@QAEXH@Z 10011e40 f i bsplib.obj
 0001:00010e40       ?Grow@?$CUtlMemory@U?$UtlLinkedListElem_t@Umsg_t@CMySqlDatabase@@H@@H@@QAEXH@Z 10011e40 f i MySqlDatabase.obj
 0001:00010ee0       ?DefineMacro@@YAXPAD@Z     10011ee0 f   scriplib.obj
 0001:00011080       ?Grow@?$CUtlMemory@Uvariable_t@@H@@QAEXH@Z 10012080 f i scriplib.obj
 0001:00011130       ?ExpandVariableToken@@YA_NAAPAD@Z 10012130 f   scriplib.obj
 0001:00011260       ?InsertBefore@?$CUtlVector@Uvariable_t@@V?$CUtlMemory@Uvariable_t@@H@@@@QAEHHABUvariable_t@@@Z 10012260 f i scriplib.obj
 0001:000112d0       ?InsertBefore@?$CUtlVector@VCUtlString@@V?$CUtlMemory@VCUtlString@@H@@@@QAEHH@Z 100122d0 f i scriplib.obj
 0001:00011340       ?DefineVariable@@YAXPAD@Z  10012340 f   scriplib.obj
 0001:00011400       ?GetToken@@YAHH@Z          10012400 f   scriplib.obj
 0001:00011800       ?InsertBefore@?$CUtlVector@UfileList_t@@V?$CUtlMemory@UfileList_t@@H@@@@QAEHH@Z 10012800 f i scriplib.obj
 0001:00011870       ?InsertMultipleBefore@?$CUtlVector@UfileList_t@@V?$CUtlMemory@UfileList_t@@H@@@@QAEHHHPBUfileList_t@@@Z 10012870 f i scriplib.obj
 0001:00011970       ?RemoveAll@?$CUtlVector@UfileList_t@@V?$CUtlMemory@UfileList_t@@H@@@@QAEXXZ 10012970 f i scriplib.obj
 0001:000119e0       ?GetFileList@CScriptLib@@AAEHPBD0AAV?$CUtlVector@UfileList_t@@V?$CUtlMemory@UfileList_t@@H@@@@@Z 100129e0 f   scriplib.obj
 0001:00011c40       ??1?$CUtlVector@UfileList_t@@V?$CUtlMemory@UfileList_t@@H@@@@QAE@XZ 10012c40 f i scriplib.obj
 0001:00011ca0       ?DeleteTemporaryFiles@CScriptLib@@UAEXPBD@Z 10012ca0 f   scriplib.obj
 0001:00011dd0       ?RecurseFileTree_r@CScriptLib@@AAEXPBDHAAV?$CUtlVector@VCUtlString@@V?$CUtlMemory@VCUtlString@@H@@@@@Z 10012dd0 f   scriplib.obj
 0001:00011ef0       ?FindFiles@CScriptLib@@UAEHPAD_NAAV?$CUtlVector@UfileList_t@@V?$CUtlMemory@UfileList_t@@H@@@@@Z 10012ef0 f   scriplib.obj
 0001:000121c0       ?SetLowPriority@@YAXXZ     100131c0 f   threads.obj
 0001:000121d0       ?ThreadSetDefault@@YAXXZ   100131d0 f   threads.obj
 0001:00012220       ?InternalRunThreadsFn@@YGKPAX@Z 10013220 f   threads.obj
 0001:00012240       ?RunThreads_Start@@YAXP6AXHPAX@Z0W4ERunThreadsPriority@@@Z 10013240 f   threads.obj
 0001:000122d0       ?RunThreads_End@@YAXXZ     100132d0 f   threads.obj
 0001:00012330       ?RunThreadsOn@@YAXHHP6AXHPAX@Z0@Z 10013330 f   threads.obj
 0001:000123b0       ?ThreadWorkerFunction@@YAXHPAX@Z 100133b0 f   threads.obj
 0001:000124b0       ?RunThreadsOnIndividual@@YAXHHP6AXHH@Z@Z 100134b0 f   threads.obj
 0001:00012570       ?EnableFullMinidumps@@YAX_N@Z 10013570 f   tools_minidump.obj
 0001:00012580       ?SetupDefaultToolsMinidumpHandler@@YAXXZ 10013580 f   tools_minidump.obj
 0001:00012590       ?SetupToolsMinidumpHandler@@YAXP6AXKPAX@Z@Z 10013590 f   tools_minidump.obj
 0001:000125b0       ?SharedDispatch@@YA_NPAVMessageBuffer@@HH@Z 100135b0 f   vmpi_tools_shared.obj
 0001:000127f0       ?SendQDirInfo@@YAXXZ       100137f0 f   vmpi_tools_shared.obj
 0001:00012880       ?RecvQDirInfo@@YAXXZ       10013880 f   vmpi_tools_shared.obj
 0001:000128b0       ?SendDBInfo@@YAXPBVCDBInfo@@K@Z 100138b0 f   vmpi_tools_shared.obj
 0001:00012900       ?RecvDBInfo@@YAXPAVCDBInfo@@PAK@Z 10013900 f   vmpi_tools_shared.obj
 0001:00012950       ?VMPI_SendFileChunk@@YAHPBXHPBD@Z 10013950 f   vmpi_tools_shared.obj
 0001:00012a10       ?VMPI_HandleCrash@@YAXPBDPAX_N@Z 10013a10 f   vmpi_tools_shared.obj
 0001:00012af0       ?VMPI_SecondExceptionFilter@@YGJPAU_EXCEPTION_POINTERS@@@Z 10013af0 f   vmpi_tools_shared.obj
 0001:00012b10       ?VMPI_ExceptionFilter@@YAXKPAX@Z 10013b10 f   vmpi_tools_shared.obj
 0001:00012dc0       ?HandleMPIDisconnect@@YAXHPBD@Z 10013dc0 f   vmpi_tools_shared.obj
 0001:00012e60       ?PComp@@YAHPBX0@Z          10013e60 f   vvis.obj
 0001:00012e90       ?SortPortals@@YAXXZ        10013e90 f   vvis.obj
 0001:00012ee0       ?LeafVectorFromPortalVector@@YAHPAE0@Z 10013ee0 f   vvis.obj
 0001:000130a0       ?CalcPortalVis@@YAXXZ      100140a0 f   vvis.obj
 0001:00013130       ?SetPortalSphere@@YAXPAUportal_t@@@Z 10014130 f   vvis.obj
 0001:00013260       ?CalcPAS@@YAXXZ            10014260 f   vvis.obj
 0001:000135d0       ?DetermineVisRadius@@YAMXZ 100145d0 f   vvis.obj
 0001:00013660       ?ParseCommandLine@@YAHHPAPAD@Z 10014660 f   vvis.obj
 0001:00013960       ?PrintCommandLine@@YAXHPAPAD@Z 10014960 f   vvis.obj
 0001:000139c0       ?ClusterMerge@@YAXH@Z      100149c0 f   vvis.obj
 0001:00013b00       ?CalcVisTrace@@YAXXZ       10014b00 f   vvis.obj
 0001:00013b90       ?CalcVis@@YAXXZ            10014b90 f   vvis.obj
 0001:00014050       ?LoadPortals@@YAXPAD@Z     10015050 f   vvis.obj
 0001:000146d0       ?RunVVis@@YAHHPAPAD@Z      100156d0 f   vvis.obj
 0001:00014a60       _main                      10015a60 f   vvis.obj
 0001:00014b00       ?main@CVVisDLL@@UAEHHPAPAD@Z 10015b00 f i vvis.obj
 0001:00014b20       ?CreateTempFile@CWin32File@@SAPAXAAVCUtlString@@0@Z 10015b20 f i zip_utils.obj
 0001:00014c30       ?FileTell@CWin32File@@SAIPAX@Z 10015c30 f i zip_utils.obj
 0001:00014c80       ?Put@CFileStream@@UAEXPBXH@Z 10015c80 f i zip_utils.obj
 0001:00014cc0       ?Tell@CFileStream@@UAEIXZ  10015cc0 f i zip_utils.obj
 0001:00014d20       ??0CZipEntry@CZipFile@@QAE@ABV01@@Z 10015d20 f   zip_utils.obj
 0001:00014d90       ?ZipFileLessFunc@CZipEntry@CZipFile@@SA_NABV12@0@Z 10015d90 f   zip_utils.obj
 0001:00014db0       ?ZipFileLessFunc_CaselessSort@CZipEntry@CZipFile@@SA_NABV12@0@Z 10015db0 f   zip_utils.obj
 0001:00014e10       ?ParseXZipCommentString@CZipFile@@AAEXPBD@Z 10015e10 f   zip_utils.obj
 0001:00014e80       ?SetBigEndian@CZip@@UAEX_N@Z 10015e80 f   zip_utils.obj
 0001:00014eb0       ?ActivateByteSwapping@CZip@@UAEX_N@Z 10015eb0 f   zip_utils.obj
 0001:00014ee0       ?ForceAlignment@CZip@@UAEX_N0I@Z 10015ee0 f   zip_utils.obj
 0001:00014f10       ?GetAlignment@CZip@@UAEIXZ 10015f10 f   zip_utils.obj
 0001:00014f20       ?Put@CBufferStream@@UAEXPBXH@Z 10015f20 f i zip_utils.obj
 0001:00014f30       ?Tell@CBufferStream@@UAEIXZ 10015f30 f i zip_utils.obj
 0001:00014f40       ?Color@?$CUtlRBTree@VCZipEntry@CZipFile@@HP6A_NABV12@0@ZV?$CUtlMemory@U?$UtlRBTreeNode_t@VCZipEntry@CZipFile@@H@@H@@@@IBE?AW4NodeColor_t@1@H@Z 10015f40 f i zip_utils.obj
 0001:00014f90       ?Grow@?$CUtlMemory@U?$UtlRBTreeNode_t@VCZipEntry@CZipFile@@H@@H@@QAEXH@Z 10015f90 f i zip_utils.obj
 0001:00015040       ??$GetObjects@UZIP_EndOfCentralDirRecord@@@CUtlBuffer@@QAEXPAUZIP_EndOfCentralDirRecord@@H@Z 10016040 f i zip_utils.obj
 0001:000150c0       ??$GetObjects@UZIP_FileHeader@@@CUtlBuffer@@QAEXPAUZIP_FileHeader@@H@Z 100160c0 f i zip_utils.obj
 0001:00015130       ?Parent@?$CUtlRBTree@VCZipEntry@CZipFile@@HP6A_NABV12@0@ZV?$CUtlMemory@U?$UtlRBTreeNode_t@VCZipEntry@CZipFile@@H@@H@@@@QBEHH@Z 10016130 f i zip_utils.obj
 0001:00015180       ?LeftChild@?$CUtlRBTree@VCZipEntry@CZipFile@@HP6A_NABV12@0@ZV?$CUtlMemory@U?$UtlRBTreeNode_t@VCZipEntry@CZipFile@@H@@H@@@@QBEHH@Z 10016180 f i zip_utils.obj
 0001:000151d0       ?RightChild@?$CUtlRBTree@VCZipEntry@CZipFile@@HP6A_NABV12@0@ZV?$CUtlMemory@U?$UtlRBTreeNode_t@VCZipEntry@CZipFile@@H@@H@@@@QBEHH@Z 100161d0 f i zip_utils.obj
 0001:00015220       ?IsRightChild@?$CUtlRBTree@VCZipEntry@CZipFile@@HP6A_NABV12@0@ZV?$CUtlMemory@U?$UtlRBTreeNode_t@VCZipEntry@CZipFile@@H@@H@@@@QBE_NH@Z 10016220 f i zip_utils.obj
 0001:000152d0       ?FindInsertionPosition@?$CUtlRBTree@VCZipEntry@CZipFile@@HP6A_NABV12@0@ZV?$CUtlMemory@U?$UtlRBTreeNode_t@VCZipEntry@CZipFile@@H@@H@@@@IAEXABVCZipEntry@CZipFile@@AAHAA_N@Z 100162d0 f i zip_utils.obj
 0001:000153c0       ?NewNode@?$CUtlRBTree@VCZipEntry@CZipFile@@HP6A_NABV12@0@ZV?$CUtlMemory@U?$UtlRBTreeNode_t@VCZipEntry@CZipFile@@H@@H@@@@QAEHXZ 100163c0 f i zip_utils.obj
 0001:000154c0       ?IsLeftChild@?$CUtlRBTree@VCZipEntry@CZipFile@@HP6A_NABV12@0@ZV?$CUtlMemory@U?$UtlRBTreeNode_t@VCZipEntry@CZipFile@@H@@H@@@@QBE_NH@Z 100164c0 f i zip_utils.obj
 0001:00015570       ?RotateLeft@?$CUtlRBTree@VCZipEntry@CZipFile@@HP6A_NABV12@0@ZV?$CUtlMemory@U?$UtlRBTreeNode_t@VCZipEntry@CZipFile@@H@@H@@@@IAEXH@Z 10016570 f i zip_utils.obj
 0001:00015770       ?RotateRight@?$CUtlRBTree@VCZipEntry@CZipFile@@HP6A_NABV12@0@ZV?$CUtlMemory@U?$UtlRBTreeNode_t@VCZipEntry@CZipFile@@H@@H@@@@IAEXH@Z 10016770 f i zip_utils.obj
 0001:00015a90       ?Find@?$CUtlRBTree@VCZipEntry@CZipFile@@HP6A_NABV12@0@ZV?$CUtlMemory@U?$UtlRBTreeNode_t@VCZipEntry@CZipFile@@H@@H@@@@QBEHABVCZipEntry@CZipFile@@@Z 10016a90 f i zip_utils.obj
 0001:00015b80       ?RemoveAll@?$CUtlRBTree@VCZipEntry@CZipFile@@HP6A_NABV12@0@ZV?$CUtlMemory@U?$UtlRBTreeNode_t@VCZipEntry@CZipFile@@H@@H@@@@QAEXXZ 10016b80 f i zip_utils.obj
 0001:00015c60       ?FirstInorder@?$CUtlRBTree@VCZipEntry@CZipFile@@HP6A_NABV12@0@ZV?$CUtlMemory@U?$UtlRBTreeNode_t@VCZipEntry@CZipFile@@H@@H@@@@QBEHXZ 10016c60 f i zip_utils.obj
 0001:00015cf0       ?NextInorder@?$CUtlRBTree@VCZipEntry@CZipFile@@HP6A_NABV12@0@ZV?$CUtlMemory@U?$UtlRBTreeNode_t@VCZipEntry@CZipFile@@H@@H@@@@QBEHH@Z 10016cf0 f i zip_utils.obj
 0001:00015ec0       ?InsertRebalance@?$CUtlRBTree@VCZipEntry@CZipFile@@HP6A_NABV12@0@ZV?$CUtlMemory@U?$UtlRBTreeNode_t@VCZipEntry@CZipFile@@H@@H@@@@IAEXH@Z 10016ec0 f i zip_utils.obj
 0001:00016310       ?RemoveRebalance@?$CUtlRBTree@VCZipEntry@CZipFile@@HP6A_NABV12@0@ZV?$CUtlMemory@U?$UtlRBTreeNode_t@VCZipEntry@CZipFile@@H@@H@@@@IAEXH@Z 10017310 f i zip_utils.obj
 0001:00016ce0       ?ReadFileFromZip@CZipFile@@QAE_NPBD_NAAVCUtlBuffer@@@Z 10017ce0 f   zip_utils.obj
 0001:00016df0       ?ReadFileFromZip@CZipFile@@QAE_NPAXPBD_NAAVCUtlBuffer@@@Z 10017df0 f   zip_utils.obj
 0001:00016f80       ?FileExistsInZip@CZipFile@@QAE_NPBD@Z 10017f80 f   zip_utils.obj
 0001:00017030       ?CalculateSize@CZipFile@@QAEIXZ 10018030 f   zip_utils.obj
 0001:00017120       ?PrintDirectory@CZipFile@@QAEXXZ 10018120 f   zip_utils.obj
 0001:00017170       ?SaveDirectory@CZipFile@@AAEXAAVIWriteStream@@@Z 10018170 f   zip_utils.obj
 0001:00017670       ?FileExistsInZip@CZip@@UAE_NPBD@Z 10018670 f   zip_utils.obj
 0001:00017680       ?ReadFileFromZip@CZip@@UAE_NPBD_NAAVCUtlBuffer@@@Z 10018680 f   zip_utils.obj
 0001:00017690       ?ReadFileFromZip@CZip@@UAE_NPAXPBD_NAAVCUtlBuffer@@@Z 10018690 f   zip_utils.obj
 0001:000176a0       ?GetNextFilename@CZip@@UAEHHPADHAAH@Z 100186a0 f   zip_utils.obj
 0001:00017710       ?PrintDirectory@CZip@@UAEXXZ 10018710 f   zip_utils.obj
 0001:00017720       ?Reset@CZip@@UAEXXZ        10018720 f   zip_utils.obj
 0001:00017770       ?EstimateSize@CZip@@UAEIXZ 10018770 f   zip_utils.obj
 0001:00017780       ??1?$CUtlRBTree@VCZipEntry@CZipFile@@HP6A_NABV12@0@ZV?$CUtlMemory@U?$UtlRBTreeNode_t@VCZipEntry@CZipFile@@H@@H@@@@QAE@XZ 10018780 f i zip_utils.obj
 0001:000177e0       ?LinkToParent@?$CUtlRBTree@VCZipEntry@CZipFile@@HP6A_NABV12@0@ZV?$CUtlMemory@U?$UtlRBTreeNode_t@VCZipEntry@CZipFile@@H@@H@@@@IAEXHH_N@Z 100187e0 f i zip_utils.obj
 0001:00017850       ?Unlink@?$CUtlRBTree@VCZipEntry@CZipFile@@HP6A_NABV12@0@ZV?$CUtlMemory@U?$UtlRBTreeNode_t@VCZipEntry@CZipFile@@H@@H@@@@IAEXH@Z 10018850 f i zip_utils.obj
 0001:00017b40       ?LinkBefore@?$CUtlLinkedList@PAVCZip@@G$0A@GV?$CUtlMemory@U?$UtlLinkedListElem_t@PAVCZip@@G@@G@@@@QAEXGG@Z 10018b40 f i zip_utils.obj
 0001:00017b40       ?LinkBefore@?$CUtlLinkedList@P6AXXZG$0A@GV?$CUtlMemory@U?$UtlLinkedListElem_t@P6AXXZG@@G@@@@QAEXGG@Z 10018b40 f i cmdlib.obj
 0001:00017b40       ?LinkBefore@?$CUtlLinkedList@P6AXPBD@ZG$0A@GV?$CUtlMemory@U?$UtlLinkedListElem_t@P6AXPBD@ZG@@G@@@@QAEXGG@Z 10018b40 f i cmdlib.obj
 0001:00017bc0       ??$DataMapInit@UZIP_EndOfCentralDirRecord@@@@YAPAUdatamap_t@@PAUZIP_EndOfCentralDirRecord@@@Z 10018bc0 f   zip_utils.obj
 0001:00017c40       ??$DataMapInit@UZIP_FileHeader@@@@YAPAUdatamap_t@@PAUZIP_FileHeader@@@Z 10018c40 f   zip_utils.obj
 0001:00017cc0       ??$DataMapInit@UZIP_LocalFileHeader@@@@YAPAUdatamap_t@@PAUZIP_LocalFileHeader@@@Z 10018cc0 f   zip_utils.obj
 0001:00017d40       ??$DataMapInit@UZIP_PreloadHeader@@@@YAPAUdatamap_t@@PAUZIP_PreloadHeader@@@Z 10018d40 f   zip_utils.obj
 0001:00017dc0       ??$DataMapInit@UZIP_PreloadDirectoryEntry@@@@YAPAUdatamap_t@@PAUZIP_PreloadDirectoryEntry@@@Z 10018dc0 f   zip_utils.obj
 0001:00017e40       ??0CZipFile@@QAE@PBD_N@Z   10018e40 f   zip_utils.obj
 0001:00017ef0       ??1CZipFile@@QAE@XZ        10018ef0 f   zip_utils.obj
 0001:00017f90       ??0CZip@@QAE@PBD_N@Z       10018f90 f   zip_utils.obj
 0001:00018000       ?SaveToBuffer@CZip@@UAEXAAVCUtlBuffer@@@Z 10019000 f   zip_utils.obj
 0001:00018030       ?SaveToDisk@CZip@@UAEXPAU_iobuf@@@Z 10019030 f   zip_utils.obj
 0001:00018060       ?SaveToDisk@CZip@@UAEXPAX@Z 10019060 f   zip_utils.obj
 0001:00018090       ??_ECZip@@UAEPAXI@Z        10019090 f i zip_utils.obj
 0001:00018090       ??_GCZip@@UAEPAXI@Z        10019090 f i zip_utils.obj
 0001:000180c0       ?Remove@?$CUtlRBTree@VCZipEntry@CZipFile@@HP6A_NABV12@0@ZV?$CUtlMemory@U?$UtlRBTreeNode_t@VCZipEntry@CZipFile@@H@@H@@@@QAE_NABVCZipEntry@CZipFile@@@Z 100190c0 f i zip_utils.obj
 0001:00018130       ?FindAndRemove@?$CUtlLinkedList@PAVCZip@@G$0A@GV?$CUtlMemory@U?$UtlLinkedListElem_t@PAVCZip@@G@@G@@@@QAE_NABQAVCZip@@@Z 10019130 f i zip_utils.obj
 0001:000181b0       ?ParseFromBuffer@CZipFile@@QAEXPAXH@Z 100191b0 f   zip_utils.obj
 0001:00018620       ?ParseFromDisk@CZipFile@@QAEPAXPBD@Z 10019620 f   zip_utils.obj
 0001:00018a00       ?AddBufferToZip@CZipFile@@QAEXPBDPAXH_N@Z 10019a00 f   zip_utils.obj
 0001:00018c70       ?AddFileToZip@CZipFile@@QAEXPBD0@Z 10019c70 f   zip_utils.obj
 0001:00018cf0       ?RemoveFileFromZip@CZipFile@@QAEXPBD@Z 10019cf0 f   zip_utils.obj
 0001:00018da0       ?CreateZip@IZip@@SAPAV1@PBD_N@Z 10019da0 f   zip_utils.obj
 0001:00018e00       ?ReleaseZip@IZip@@SAXPAV1@@Z 10019e00 f   zip_utils.obj
 0001:00018e30       ?AddFileToZip@CZip@@UAEXPBD0@Z 10019e30 f   zip_utils.obj
 0001:00018e40       ?RemoveFileFromZip@CZip@@UAEXPBD@Z 10019e40 f   zip_utils.obj
 0001:00018e50       ?AddBufferToZip@CZip@@UAEXPBDPAXH_N@Z 10019e50 f   zip_utils.obj
 0001:00018e60       ?ParseFromBuffer@CZip@@UAEXPAXH@Z 10019e60 f   zip_utils.obj
 0001:00018ed0       ?ParseFromDisk@CZip@@UAEPAXPBD@Z 10019ed0 f   zip_utils.obj
 0001:00018f2e       _Sleep@4                   10019f2e f   kernel32:KERNEL32.dll
 0001:00018f40       _cosf                      10019f40 f i mathlib:mathlib_base.obj
 0001:00018f50       ?SinCos@@YAXMPAM0@Z        10019f50 f i mathlib:mathlib_base.obj
 0001:00018f70       ?_sqrtf@@YAMM@Z            10019f70 f   mathlib:mathlib_base.obj
 0001:00018f80       ?_rsqrtf@@YAMM@Z           10019f80 f   mathlib:mathlib_base.obj
 0001:00018f90       ?_VectorNormalize@@YIMAAVVector@@@Z 10019f90 f   mathlib:mathlib_base.obj
 0001:00018fd0       ?_VectorNormalizeFast@@YIXAAVVector@@@Z 10019fd0 f   mathlib:mathlib_base.obj
 0001:00019010       ?_InvRSquared@@YAMPBM@Z    1001a010 f   mathlib:mathlib_base.obj
 0001:00019050       ?InitSinCosTable@@YAXXZ    1001a050 f   mathlib:mathlib_base.obj
 0001:000190a0       ?VectorAngles@@YAXABVVector@@AAVQAngle@@@Z 1001a0a0 f   mathlib:mathlib_base.obj
 0001:00019190       ?ClearBounds@@YAXAAVVector@@0@Z 1001a190 f   mathlib:mathlib_base.obj
 0001:000191c0       ?AddPointToBounds@@YAXABVVector@@AAV1@1@Z 1001a1c0 f   mathlib:mathlib_base.obj
 0001:00019230       ?MathLib_Init@@YAXMMMH_N000@Z 1001a230 f   mathlib:mathlib_base.obj
 0001:000193d0       ?BuildGammaTable@@YAXMMMH@Z 1001a3d0 f   mathlib:color_conversion.obj
 0001:00019670       ?_SSE_Sqrt@@YAMM@Z         1001a670 f   mathlib:sse.obj
 0001:00019690       ?_SSE_RSqrtAccurate@@YAMM@Z 1001a690 f   mathlib:sse.obj
 0001:000196e0       ?_SSE_RSqrtFast@@YAMM@Z    1001a6e0 f   mathlib:sse.obj
 0001:00019700       ?_SSE_VectorNormalizeFast@@YIXAAVVector@@@Z 1001a700 f   mathlib:sse.obj
 0001:00019790       ?_SSE_InvRSquared@@YAMPBM@Z 1001a790 f   mathlib:sse.obj
 0001:000197e0       ?_SSE_SinCos@@YAXMPAM0@Z   1001a7e0 f   mathlib:sse.obj
 0001:00019920       ?_SSE_cos@@YAMM@Z          1001a920 f   mathlib:sse.obj
 0001:000199f0       ?_SSE2_SinCos@@YAXMPAM0@Z  1001a9f0 f   mathlib:sse.obj
 0001:00019b10       ?_SSE2_cos@@YAMM@Z         1001ab10 f   mathlib:sse.obj
 0001:00019be0       ?_3DNow_Sqrt@@YAMM@Z       1001abe0 f   mathlib:3dnow.obj
 0001:00019c10       ?_3DNow_RSqrt@@YAMM@Z      1001ac10 f   mathlib:3dnow.obj
 0001:00019c30       ?_3DNow_VectorNormalize@@YIMAAVVector@@@Z 1001ac30 f   mathlib:3dnow.obj
 0001:00019cc0       ?_3DNow_VectorNormalizeFast@@YIXAAVVector@@@Z 1001acc0 f   mathlib:3dnow.obj
 0001:00019cd0       ?_3DNow_InvRSquared@@YAMPBM@Z 1001acd0 f   mathlib:3dnow.obj
 0001:00019d10       ?V_strncmp@@YAHPBD0H@Z     1001ad10 f   tier1:strtools.obj
 0001:00019d60       ?V_strncasecmp@@YAHPBD0H@Z 1001ad60 f   tier1:strtools.obj
 0001:00019de0       ?V_strnicmp@@YAHPBD0H@Z    1001ade0 f   tier1:strtools.obj
 0001:00019e20       ?V_stristr@@YAPBDPBD0@Z    1001ae20 f   tier1:strtools.obj
 0001:00019ee0       ?V_stristr@@YAPADPADPBD@Z  1001aee0 f   tier1:strtools.obj
 0001:00019f20       ?V_strncat@@YAPADPADPBDIH@Z 1001af20 f   tier1:strtools.obj
 0001:00019fb0       ?V_StripTrailingSlash@@YAXPAD@Z 1001afb0 f   tier1:strtools.obj
 0001:00019ff0       ?V_StripFilename@@YAXPAD@Z 1001aff0 f   tier1:strtools.obj
 0001:0001a030       ?V_FixSlashes@@YAXPADD@Z   1001b030 f   tier1:strtools.obj
 0001:0001a060       ?V_UnqualifiedFileName@@YAPBDPBD@Z 1001b060 f   tier1:strtools.obj
 0001:0001a0a0       ?V_RemoveDotSlashes@@YA_NPADD@Z 1001b0a0 f   tier1:strtools.obj
 0001:0001a1f0       ?V_AppendSlash@@YAXPADH@Z  1001b1f0 f   tier1:strtools.obj
 0001:0001a240       ?V_IsAbsolutePath@@YA_NPBD@Z 1001b240 f   tier1:strtools.obj
 0001:0001a270       ?V_StrSlice@@YAXPBDHHPADH@Z 1001b270 f   tier1:strtools.obj
 0001:0001a320       ?V_strncpy@@YAXPADPBDH@Z   1001b320 f   tier1:strtools.obj
 0001:0001a360       ?V_snprintf@@YAHPADHPBDZZ  1001b360 f   tier1:strtools.obj
 0001:0001a3b0       ?V_vsnprintf@@YAHPADHPBD0@Z 1001b3b0 f   tier1:strtools.obj
 0001:0001a400       ?V_FileBase@@YAXPBDPADH@Z  1001b400 f   tier1:strtools.obj
 0001:0001a4d0       ?V_StripExtension@@YAXPBDPADH@Z 1001b4d0 f   tier1:strtools.obj
 0001:0001a580       ?V_StripLastDir@@YA_NPADH@Z 1001b580 f   tier1:strtools.obj
 0001:0001a630       ?V_ComposeFileName@@YAXPBD0PADH@Z 1001b630 f   tier1:strtools.obj
 0001:0001a730       ?V_ExtractFileExtension@@YAXPBDPADH@Z 1001b730 f   tier1:strtools.obj
 0001:0001a7b0       ?V_MakeAbsolutePath@@YAXPADHPBD1@Z 1001b7b0 f   tier1:strtools.obj
 0001:0001a950       ?V_StrRight@@YAXPBDHPADH@Z 1001b950 f   tier1:strtools.obj
 0001:0001a9e0       ?InsertBefore@?$CUtlVector@PADV?$CUtlMemory@PADH@@@@QAEHHABQAD@Z 1001b9e0 f i tier1:strtools.obj
 0001:0001a9e0       ?InsertBefore@?$CUtlVector@HV?$CUtlMemory@HH@@@@QAEHHABH@Z 1001b9e0 f i bsplib.obj
 0001:0001aa50       ?V_SplitString2@@YAXPBDPAPBDHAAV?$CUtlVector@PADV?$CUtlMemory@PADH@@@@@Z 1001ba50 f   tier1:strtools.obj
 0001:0001ac80       ?V_SplitString@@YAXPBD0AAV?$CUtlVector@PADV?$CUtlMemory@PADH@@@@@Z 1001bc80 f   tier1:strtools.obj
 0001:0001aca0       ?Length@CUtlString@@QBEHXZ 1001bca0 f   tier1:utlstring.obj
 0001:0001acb0       ?Get@CUtlString@@QBEPBDXZ  1001bcb0 f   tier1:utlstring.obj
 0001:0001acc0       ?Set@CUtlBinaryBlock@@QAEXPBXH@Z 1001bcc0 f   tier1:utlstring.obj
 0001:0001ad40       ?Set@CUtlString@@QAEXPBD@Z 1001bd40 f   tier1:utlstring.obj
 0001:0001ad80       ??4CUtlString@@QAEAAV0@ABV0@@Z 1001bd80 f   tier1:utlstring.obj
 0001:0001ada0       ??4CUtlString@@QAEAAV0@PBD@Z 1001bda0 f   tier1:utlstring.obj
 0001:0001adf0       ??0CUtlString@@QAE@XZ      1001bdf0 f   tier1:utlstring.obj
 0001:0001ae00       ?GetCStringCharConversion@@YAPAVCUtlCharConversion@@XZ 1001be00 f   tier1:utlbuffer.obj
 0001:0001ae10       ?GetNoEscCharConversion@@YAPAVCUtlCharConversion@@XZ 1001be10 f   tier1:utlbuffer.obj
 0001:0001ae20       ?FindConversion@CUtlCStringConversion@@UAEDPBDPAH@Z 1001be20 f   tier1:utlbuffer.obj
 0001:0001ae40       ??0CUtlCharConversion@@QAE@DPBDHPAUConversionArray_t@0@@Z 1001be40 f   tier1:utlbuffer.obj
 0001:0001aee0       ?FindConversion@CUtlCharConversion@@UAEDPBDPAH@Z 1001bee0 f   tier1:utlbuffer.obj
 0001:0001af60       ?SetBufferType@CUtlBuffer@@QAEX_N0@Z 1001bf60 f   tier1:utlbuffer.obj
 0001:0001af90       ?GetOverflow@CUtlBuffer@@IAE_NH@Z 1001bf90 f   tier1:utlbuffer.obj
 0001:0001afa0       ?ActivateByteSwapping@CUtlBuffer@@QAEX_N@Z 1001bfa0 f   tier1:utlbuffer.obj
 0001:0001afd0       ?FindConversion@CUtlNoEscConversion@@UAEDPBDPAH@Z 1001bfd0 f i tier1:utlbuffer.obj
 0001:0001aff0       ?CheckGet@CUtlBuffer@@IAE_NH@Z 1001bff0 f   tier1:utlbuffer.obj
 0001:0001b050       ?CheckArbitraryPeekGet@CUtlBuffer@@IAE_NHAAH@Z 1001c050 f   tier1:utlbuffer.obj
 0001:0001b0c0       ?PeekGet@CUtlBuffer@@QAEPBXHH@Z 1001c0c0 f   tier1:utlbuffer.obj
 0001:0001b100       ?SeekGet@CUtlBuffer@@QAEXW4SeekType_t@1@H@Z 1001c100 f   tier1:utlbuffer.obj
 0001:0001b160       ?CheckPut@CUtlBuffer@@IAE_NH@Z 1001c160 f   tier1:utlbuffer.obj
 0001:0001b1b0       ?AddNullTermination@CUtlBuffer@@IAEXXZ 1001c1b0 f   tier1:utlbuffer.obj
 0001:0001b200       ?ConvertToGrowableMemory@?$CUtlMemory@EH@@QAEXH@Z 1001c200 f i tier1:utlbuffer.obj
 0001:0001b250       ?EnsureCapacity@CUtlBuffer@@QAEXH@Z 1001c250 f   tier1:utlbuffer.obj
 0001:0001b2b0       ?Get@CUtlBuffer@@QAEXPAXH@Z 1001c2b0 f   tier1:utlbuffer.obj
 0001:0001b320       ?EatWhiteSpace@CUtlBuffer@@QAEXXZ 1001c320 f   tier1:utlbuffer.obj
 0001:0001b380       ?PeekWhiteSpace@CUtlBuffer@@IAEHH@Z 1001c380 f   tier1:utlbuffer.obj
 0001:0001b420       ?PeekStringLength@CUtlBuffer@@QAEHXZ 1001c420 f   tier1:utlbuffer.obj
 0001:0001b570       ?PeekStringMatch@CUtlBuffer@@IAE_NHPBDH@Z 1001c570 f   tier1:utlbuffer.obj
 0001:0001b5d0       ?Put@CUtlBuffer@@QAEXPBXH@Z 1001c5d0 f   tier1:utlbuffer.obj
 0001:0001b640       ?PutOverflow@CUtlBuffer@@IAE_NH@Z 1001c640 f   tier1:utlbuffer.obj
 0001:0001b690       ?SeekPut@CUtlBuffer@@QAEXW4SeekType_t@1@H@Z 1001c690 f   tier1:utlbuffer.obj
 0001:0001b710       ??$GetTypeBin@D@CUtlBuffer@@IAEXAAD@Z 1001c710 f i tier1:utlbuffer.obj
 0001:0001b780       ??0CUtlBuffer@@QAE@HHH@Z   1001c780 f   tier1:utlbuffer.obj
 0001:0001b800       ??0CUtlBuffer@@QAE@PBXHH@Z 1001c800 f   tier1:utlbuffer.obj
 0001:0001b880       ?GetChar@CUtlBuffer@@QAEDXZ 1001c880 f i tier1:utlbuffer.obj
 0001:0001b8c0       ?EatCPPComment@CUtlBuffer@@QAE_NXZ 1001c8c0 f   tier1:utlbuffer.obj
 0001:0001b930       ?GetString@CUtlBuffer@@QAEXPADH@Z 1001c930 f   tier1:utlbuffer.obj
 0001:0001ba00       ?GetDelimitedCharInternal@CUtlBuffer@@IAEDPAVCUtlCharConversion@@@Z 1001ca00 f   tier1:utlbuffer.obj
 0001:0001bac0       ?GetDelimitedString@CUtlBuffer@@QAEXPAVCUtlCharConversion@@PADH@Z 1001cac0 f   tier1:utlbuffer.obj
 0001:0001bc30       ?VaScanf@CUtlBuffer@@QAEHPBDPAD@Z 1001cc30 f   tier1:utlbuffer.obj
 0001:0001bee0       ?Scanf@CUtlBuffer@@QAAHPBDZZ 1001cee0 f   tier1:utlbuffer.obj
 0001:0001bf00       ?CRC32_Init@@YAXPAK@Z      1001cf00 f   tier1:checksum_crc.obj
 0001:0001bf10       ?CRC32_Final@@YAXPAK@Z     1001cf10 f   tier1:checksum_crc.obj
 0001:0001bf20       ?CRC32_ProcessBuffer@@YAXPAKPBXH@Z 1001cf20 f   tier1:checksum_crc.obj
 0001:0001c0f0       ?SwapFieldsToTargetEndian@CByteswap@@QAEXPAX0PAUdatamap_t@@@Z 1001d0f0 f   tier1:byteswap.obj
 0001:0001c2b0       ??0InterfaceReg@@QAE@P6APAXXZPBD@Z 1001d2b0 f   tier1:interface.obj
 0001:0001c2e0       _CreateInterface           1001d2e0 f   tier1:interface.obj
 0001:0001c350       ?ThreadedLoadLibraryFunc@@YAIPAX@Z 1001d350 f   tier1:interface.obj
 0001:0001c370       ?Sys_LoadLibrary@@YAPAUHINSTANCE__@@PBD@Z 1001d370 f   tier1:interface.obj
 0001:0001c470       ?Sys_LoadModule@@YAPAVCSysModule@@PBD@Z 1001d470 f   tier1:interface.obj
 0001:0001c590       ?Sys_UnloadModule@@YAXPAVCSysModule@@@Z 1001d590 f   tier1:interface.obj
 0001:0001c5b0       ?Sys_GetFactory@@YAP6APAXPBDPAH@ZPAVCSysModule@@@Z 1001d5b0 f   tier1:interface.obj
 0001:0001c5d0       ?Sys_GetFactoryThis@@YAP6APAXPBDPAH@ZXZ 1001d5d0 f   tier1:interface.obj
 0001:0001c5e0       ?Sys_LoadInterface@@YA_NPBD0PAPAVCSysModule@@PAPAX@Z 1001d5e0 f   tier1:interface.obj
 0001:0001c640       ?ReportError@CKeyValuesErrorStack@@QAEXPBD@Z 1001d640 f i tier1:KeyValues.obj
 0001:0001c6e0       ?GetName@KeyValues@@QBEPBDXZ 1001d6e0 f   tier1:KeyValues.obj
 0001:0001c700       ?ReadToken@KeyValues@@AAEPBDAAVCUtlBuffer@@AA_N1@Z 1001d700 f   tier1:KeyValues.obj
 0001:0001c890       ?RemoveSubKey@KeyValues@@QAEXPAV1@@Z 1001d890 f   tier1:KeyValues.obj
 0001:0001c8f0       ?GetFirstValue@KeyValues@@QAEPAV1@XZ 1001d8f0 f   tier1:KeyValues.obj
 0001:0001c910       ?GetNextValue@KeyValues@@QAEPAV1@XZ 1001d910 f   tier1:KeyValues.obj
 0001:0001c930       ??2KeyValues@@SAPAXI@Z     1001d930 f   tier1:KeyValues.obj
 0001:0001c950       ??0KeyValues@@QAE@PBD@Z    1001d950 f   tier1:KeyValues.obj
 0001:0001c9a0       ?LoadFromFile@KeyValues@@QAE_NPAVIBaseFileSystem@@PBD1@Z 1001d9a0 f   tier1:KeyValues.obj
 0001:0001cad0       ?FindKey@KeyValues@@QAEPAV1@PBD_N@Z 1001dad0 f   tier1:KeyValues.obj
 0001:0001cbf0       ?GetInt@KeyValues@@QAEHPBDH@Z 1001dbf0 f   tier1:KeyValues.obj
 0001:0001cc70       ?SetString@KeyValues@@QAEXPBD0@Z 1001dc70 f   tier1:KeyValues.obj
 0001:0001cce0       ?MakeCopy@KeyValues@@QBEPAV1@XZ 1001dce0 f   tier1:KeyValues.obj
 0001:0001ce90       ?deleteThis@KeyValues@@QAEXXZ 1001de90 f   tier1:KeyValues.obj
 0001:0001ceb0       ?RecursiveMergeKeyValues@KeyValues@@AAEXPAV1@@Z 1001deb0 f   tier1:KeyValues.obj
 0001:0001cf80       ?Grow@?$CUtlMemory@PAUStringPool_t@CUtlSymbolTable@@H@@QAEXH@Z 1001df80 f i tier1:utlsymbol.obj
 0001:0001cf80       ?Grow@?$CUtlMemory@Udleafambientindex_t@@H@@QAEXH@Z 1001df80 f i bsplib.obj
 0001:0001cf80       ?Grow@?$CUtlMemory@PAUportal_t@@H@@QAEXH@Z 1001df80 f i vvis.obj
 0001:0001cf80       ?Grow@?$CUtlMemory@PAVKeyValues@@H@@QAEXH@Z 1001df80 f i tier1:KeyValues.obj
 0001:0001cf80       ?Grow@?$CUtlMemory@PAVCBaseCommand@CScratchPad3D@@H@@QAEXH@Z 1001df80 f i scratchpad3d.obj
 0001:0001cf80       ?Grow@?$CUtlMemory@PADH@@QAEXH@Z 1001df80 f i tier1:strtools.obj
 0001:0001cf80       ?Grow@?$CUtlMemory@HH@@QAEXH@Z 1001df80 f i bsplib.obj
 0001:0001d030       ?RemoveEverything@KeyValues@@AAEXXZ 1001e030 f   tier1:KeyValues.obj
 0001:0001d0d0       ?CreateKey@KeyValues@@AAEPAV1@PBD@Z 1001e0d0 f   tier1:KeyValues.obj
 0001:0001d160       ?GetString@KeyValues@@QAEPBDPBD0@Z 1001e160 f   tier1:KeyValues.obj
 0001:0001d2a0       ?AppendIncludedKeys@KeyValues@@AAEXAAV?$CUtlVector@PAVKeyValues@@V?$CUtlMemory@PAVKeyValues@@H@@@@@Z 1001e2a0 f   tier1:KeyValues.obj
 0001:0001d2f0       ?MergeBaseKeys@KeyValues@@AAEXAAV?$CUtlVector@PAVKeyValues@@V?$CUtlMemory@PAVKeyValues@@H@@@@@Z 1001e2f0 f   tier1:KeyValues.obj
 0001:0001d3f0       ?RecursiveLoadFromBuffer@KeyValues@@AAEXPBDAAVCUtlBuffer@@@Z 1001e3f0 f   tier1:KeyValues.obj
 0001:0001d7d0       ?ParseIncludedKeys@KeyValues@@AAEXPBD0PAVIBaseFileSystem@@0AAV?$CUtlVector@PAVKeyValues@@V?$CUtlMemory@PAVKeyValues@@H@@@@@Z 1001e7d0 f   tier1:KeyValues.obj
 0001:0001d960       ?LoadFromBuffer@KeyValues@@QAE_NPBDAAVCUtlBuffer@@PAVIBaseFileSystem@@0@Z 1001e960 f   tier1:KeyValues.obj
 0001:0001dca0       ?LoadFromBuffer@KeyValues@@QAE_NPBD0PAVIBaseFileSystem@@0@Z 1001eca0 f   tier1:KeyValues.obj
 0001:0001dd20       ?Grow@?$CUtlMemory@U?$UtlRBTreeNode_t@VCStringPoolIndex@CUtlSymbolTable@@G@@G@@QAEXH@Z 1001ed20 f i tier1:utlsymbol.obj
 0001:0001ddd0       ?NewNode@?$CUtlRBTree@VCStringPoolIndex@CUtlSymbolTable@@GVCLess@2@V?$CUtlMemory@U?$UtlRBTreeNode_t@VCStringPoolIndex@CUtlSymbolTable@@G@@G@@@@QAEGXZ 1001edd0 f i tier1:utlsymbol.obj
 0001:0001dec0       ?Parent@?$CUtlRBTree@VCStringPoolIndex@CUtlSymbolTable@@GVCLess@2@V?$CUtlMemory@U?$UtlRBTreeNode_t@VCStringPoolIndex@CUtlSymbolTable@@G@@G@@@@QBEGG@Z 1001eec0 f i tier1:utlsymbol.obj
 0001:0001df30       ??RCLess@CUtlSymbolTable@@QBE_NABVCStringPoolIndex@1@0@Z 1001ef30 f   tier1:utlsymbol.obj
 0001:0001dff0       ?LeftChild@?$CUtlRBTree@VCStringPoolIndex@CUtlSymbolTable@@GVCLess@2@V?$CUtlMemory@U?$UtlRBTreeNode_t@VCStringPoolIndex@CUtlSymbolTable@@G@@G@@@@QBEGG@Z 1001eff0 f i tier1:utlsymbol.obj
 0001:0001e050       ?RightChild@?$CUtlRBTree@VCStringPoolIndex@CUtlSymbolTable@@GVCLess@2@V?$CUtlMemory@U?$UtlRBTreeNode_t@VCStringPoolIndex@CUtlSymbolTable@@G@@G@@@@QBEGG@Z 1001f050 f i tier1:utlsymbol.obj
 0001:0001e0c0       ?FindInsertionPosition@?$CUtlRBTree@VCStringPoolIndex@CUtlSymbolTable@@GVCLess@2@V?$CUtlMemory@U?$UtlRBTreeNode_t@VCStringPoolIndex@CUtlSymbolTable@@G@@G@@@@IAEXABVCStringPoolIndex@CUtlSymbolTable@@AAGAA_N@Z 1001f0c0 f i tier1:utlsymbol.obj
 0001:0001e1b0       ?RotateLeft@?$CUtlRBTree@VCStringPoolIndex@CUtlSymbolTable@@GVCLess@2@V?$CUtlMemory@U?$UtlRBTreeNode_t@VCStringPoolIndex@CUtlSymbolTable@@G@@G@@@@IAEXG@Z 1001f1b0 f i tier1:utlsymbol.obj
 0001:0001e2b0       ?RotateRight@?$CUtlRBTree@VCStringPoolIndex@CUtlSymbolTable@@GVCLess@2@V?$CUtlMemory@U?$UtlRBTreeNode_t@VCStringPoolIndex@CUtlSymbolTable@@G@@G@@@@IAEXG@Z 1001f2b0 f i tier1:utlsymbol.obj
 0001:0001e3b0       ?Find@?$CUtlRBTree@VCStringPoolIndex@CUtlSymbolTable@@GVCLess@2@V?$CUtlMemory@U?$UtlRBTreeNode_t@VCStringPoolIndex@CUtlSymbolTable@@G@@G@@@@QBEGABVCStringPoolIndex@CUtlSymbolTable@@@Z 1001f3b0 f i tier1:utlsymbol.obj
 0001:0001e4b0       ?RemoveAll@?$CUtlRBTree@VCStringPoolIndex@CUtlSymbolTable@@GVCLess@2@V?$CUtlMemory@U?$UtlRBTreeNode_t@VCStringPoolIndex@CUtlSymbolTable@@G@@G@@@@QAEXXZ 1001f4b0 f i tier1:utlsymbol.obj
 0001:0001e570       ?InsertRebalance@?$CUtlRBTree@VCStringPoolIndex@CUtlSymbolTable@@GVCLess@2@V?$CUtlMemory@U?$UtlRBTreeNode_t@VCStringPoolIndex@CUtlSymbolTable@@G@@G@@@@IAEXG@Z 1001f570 f i tier1:utlsymbol.obj
 0001:0001eb20       ?String@CUtlSymbolTableMT@@QBEPBDVCUtlSymbol@@@Z 1001fb20 f i tier1:utlsymbol.obj
 0001:0001eb90       ?LinkToParent@?$CUtlRBTree@VCStringPoolIndex@CUtlSymbolTable@@GVCLess@2@V?$CUtlMemory@U?$UtlRBTreeNode_t@VCStringPoolIndex@CUtlSymbolTable@@G@@G@@@@IAEXGG_N@Z 1001fb90 f i tier1:utlsymbol.obj
 0001:0001ec10       ?RemoveAll@CUtlSymbolTable@@QAEXXZ 1001fc10 f   tier1:utlsymbol.obj
 0001:0001ec90       ??1?$CUtlRBTree@VCStringPoolIndex@CUtlSymbolTable@@GVCLess@2@V?$CUtlMemory@U?$UtlRBTreeNode_t@VCStringPoolIndex@CUtlSymbolTable@@G@@G@@@@QAE@XZ 1001fc90 f i tier1:utlsymbol.obj
 0001:0001ed00       ?Insert@?$CUtlRBTree@VCStringPoolIndex@CUtlSymbolTable@@GVCLess@2@V?$CUtlMemory@U?$UtlRBTreeNode_t@VCStringPoolIndex@CUtlSymbolTable@@G@@G@@@@QAEGABVCStringPoolIndex@CUtlSymbolTable@@@Z 1001fd00 f i tier1:utlsymbol.obj
 0001:0001ed60       ?AddString@CUtlSymbolTable@@QAE?AVCUtlSymbol@@PBD@Z 1001fd60 f   tier1:utlsymbol.obj
 0001:0001eee0       ?Initialize@CUtlSymbol@@KAXXZ 1001fee0 f   tier1:utlsymbol.obj
 0001:0001ef80       ??0CUtlSymbol@@QAE@PBD@Z   1001ff80 f   tier1:utlsymbol.obj
 0001:0001efd0       ?String@CUtlSymbol@@QBEPBDXZ 1001ffd0 f   tier1:utlsymbol.obj
 0001:0001eff0       ?FileSystem_SetupStandardDirectories@@YAXPBD0@Z 1001fff0 f   vmpi:filesystem_tools.obj
 0001:0001f070       ?FileSystem_Init_Normal@@YA_NPBDW4FSInitType_t@@_N@Z 10020070 f   vmpi:filesystem_tools.obj
 0001:0001f280       ?FileSystem_Init@@YA_NPBDHW4FSInitType_t@@_N@Z 10020280 f   vmpi:filesystem_tools.obj
 0001:0001f350       ?FileSystem_Term@@YAXXZ    10020350 f   vmpi:filesystem_tools.obj
 0001:0001f3b0       ?Push@CTSListBase@@QAEPAUTSLNodeBase_t@@PAU2@@Z 100203b0 f i vmpi:vmpi.obj
 0001:0001f420       ?Pop@CTSListBase@@QAEPAUTSLNodeBase_t@@XZ 10020420 f i vmpi:vmpi.obj
 0001:0001f460       ?Detach@CTSListBase@@QAEPAUTSLNodeBase_t@@XZ 10020460 f i vmpi:vmpi.obj
 0001:0001f4a0       ?VMPI_FindArg@@YAPBDHPAPADPBD1@Z 100204a0 f   vmpi:vmpi.obj
 0001:0001f4f0       ?SetupDependencyFilename@@YAXPAVCDependencyInfo@@PBD@Z 100204f0 f   vmpi:vmpi.obj
 0001:0001f600       ?Term@CMasterBroadcaster@@QAEXXZ 10020600 f   vmpi:vmpi.obj
 0001:0001f690       ??0CDispatchReg@@QAE@HP6A_NPAVMessageBuffer@@HH@Z@Z 10020690 f   vmpi:vmpi.obj
 0001:0001f6b0       ?VMPI_InitGlobals@@YAXHPAPADW4VMPIRunMode@@@Z 100206b0 f   vmpi:vmpi.obj
 0001:0001f710       ?VMPI_CheckForNonSDKExecutables@@YA_NXZ 10020710 f   vmpi:vmpi.obj
 0001:0001f790       ?VMPI_GetRunMode@@YA?AW4VMPIRunMode@@XZ 10020790 f   vmpi:vmpi.obj
 0001:0001f7a0       ?VMPI_GetFileSystemMode@@YA?AW4VMPIFileSystemMode@@XZ 100207a0 f   vmpi:vmpi.obj
 0001:0001f7b0       ?VMPI_GetCurrentNumberOfConnections@@YAHXZ 100207b0 f   vmpi:vmpi.obj
 0001:0001f7c0       ?VMPI_IsProcConnected@@YA_NH@Z 100207c0 f   vmpi:vmpi.obj
 0001:0001f7f0       ?VMPI_Sleep@@YAXK@Z        100207f0 f   vmpi:vmpi.obj
 0001:0001f800       ?VMPI_GetJobWorkerID@@YAKH@Z 10020800 f   vmpi:vmpi.obj
 0001:0001f810       ?VMPI_GetCurrentStage@@YAXPADH@Z 10020810 f   vmpi:vmpi.obj
 0001:0001f850       ?VMPI_SetCurrentStage@@YAXPBD@Z 10020850 f   vmpi:vmpi.obj
 0001:0001f890       ?VMPI_IsSDKMode@@YA_NXZ    10020890 f   vmpi:vmpi.obj
 0001:0001f8b0       ?VMPI_GetParamString@@YAPBDW4EVMPICmdLineParam@@@Z 100208b0 f   vmpi:vmpi.obj
 0001:0001f8e0       ?VMPI_IsParamUsed@@YA_NW4EVMPICmdLineParam@@@Z 100208e0 f   vmpi:vmpi.obj
 0001:0001f940       ?Grow@?$CUtlMemory@PAXH@@QAEXH@Z 10020940 f i vmpi:vmpi.obj
 0001:0001f940       ?Grow@?$CUtlMemory@PAVCDependencyFile@CDependencyInfo@@H@@QAEXH@Z 10020940 f i vmpi:vmpi.obj
 0001:0001f940       ?Grow@?$CUtlMemory@PAVCVMPIConnection@@H@@QAEXH@Z 10020940 f i vmpi:vmpi.obj
 0001:0001f940       ?Grow@?$CUtlMemory@PAVCTCPPacket@@H@@QAEXH@Z 10020940 f i vmpi:vmpi.obj
 0001:0001f9f0       ?ParseOptions@@YAXHPAPAD@Z 100209f0 f   vmpi:vmpi.obj
 0001:0001fb40       ?CountActiveConnections@@YAXPAH0@Z 10020b40 f   vmpi:vmpi.obj
 0001:0001fba0       ?UpdateActiveConnectionsText@@YAXXZ 10020ba0 f   vmpi:vmpi.obj
 0001:0001fc40       ?SpawnLocalWorker@@YA_NHPAPADH_N@Z 10020c40 f   vmpi:vmpi.obj
 0001:0001fe40       ?Next@?$CUtlMemory@U?$UtlLinkedListElem_t@PAV?$CUtlVector@DV?$CUtlMemory@DH@@@@G@@G@@QBE?AVIterator_t@1@ABV21@@Z 10020e40 f i vmpi:vmpi.obj
 0001:0001fe40       ?Next@?$CUtlMemory@U?$UtlRBTreeNode_t@UNode_t@?$CUtlMap@PAV?$CUtlLinkedList@_KH$0A@HV?$CUtlMemory@U?$UtlLinkedListElem_t@_KH@@H@@@@HG@@G@@G@@QBE?AVIterator_t@1@ABV21@@Z 10020e40 f i vmpi:vmpi_distribute_work_default.obj
 0001:0001fe80       ?Grow@?$CUtlMemory@U?$UtlLinkedListElem_t@PAV?$CUtlVector@DV?$CUtlMemory@DH@@@@G@@G@@QAEXH@Z 10020e80 f i vmpi:vmpi.obj
 0001:0001ff50       ?Grow@?$CUtlMemory@U?$UtlLinkedListElem_t@PAVCPartitionInfo@@H@@H@@QAEXH@Z 10020f50 f i vmpi:vmpi_distribute_work_default.obj
 0001:0001ff50       ?Grow@?$CUtlMemory@U?$UtlLinkedListElem_t@PAVCChunkInfo@CMasterMulticastThread@@H@@H@@QAEXH@Z 10020f50 f i vmpi:vmpi_filesystem_master.obj
 0001:0001ff50       ?Grow@?$CUtlMemory@U?$UtlLinkedListElem_t@PAVCVMPIConnection@@H@@H@@QAEXH@Z 10020f50 f i vmpi:vmpi.obj
 0001:0001ff50       ?Grow@?$CUtlMemory@U?$UtlLinkedListElem_t@PAVCMulticastFile@CMasterMulticastThread@@H@@H@@QAEXH@Z 10020f50 f i vmpi:vmpi_filesystem_master.obj
 0001:0001ff50       ?Grow@?$CUtlMemory@U?$UtlLinkedListElem_t@P6AXHPBD@ZH@@H@@QAEXH@Z 10020f50 f i vmpi:vmpi.obj
 0001:0001ff50       ?Grow@?$CUtlMemory@U?$UtlLinkedListElem_t@PAVCTCPPacket@@H@@H@@QAEXH@Z 10020f50 f i vmpi:vmpi.obj
 0001:0001ff50       ?Grow@?$CUtlMemory@VCWULookupInfo@@H@@QAEXH@Z 10020f50 f i vmpi:vmpi_distribute_work_default.obj
 0001:0001ff50       ?Grow@?$CUtlMemory@U?$UtlLinkedListElem_t@PAVCClientFileInfo@CMasterMulticastThread@@H@@H@@QAEXH@Z 10020f50 f i vmpi:vmpi_filesystem_master.obj
 0001:0001ff50       ?Grow@?$CUtlMemory@VCFileResponse@@H@@QAEXH@Z 10020f50 f i vmpi:vmpi_filesystem_worker.obj
 0001:0001ff50       ?Grow@?$CUtlMemory@U?$UtlLinkedListElem_t@PAVCFileChunkPacket@@H@@H@@QAEXH@Z 10020f50 f i vmpi:vmpi_filesystem_worker.obj
 0001:0001ff50       ?Grow@?$CUtlMemory@U?$UtlLinkedListElem_t@PAUSendData_t@CThreadedTCPSocket@@H@@H@@QAEXH@Z 10020f50 f i vmpi:ThreadedTCPSocket.obj
 0001:0001ff50       ?Grow@?$CUtlMemory@U?$UtlLinkedListElem_t@PAVCWorkerFile@@H@@H@@QAEXH@Z 10020f50 f i vmpi:vmpi_filesystem_worker.obj
 0001:0001fff0       ?BuildBroadcastPacket@CMasterBroadcaster@@AAEXAAVbf_write@@@Z 10020ff0 f   vmpi:vmpi.obj
 0001:00020110       ?IsValidSDKBinPath@@YA_NAAV?$CUtlVector@PADV?$CUtlMemory@PADH@@@@PAH@Z 10021110 f   vmpi:vmpi.obj
 0001:000203a0       ?VMPI_GetMachineName@@YAPBDH@Z 100213a0 f   vmpi:vmpi.obj
 0001:00020400       ?PurgeAndDeleteElements@?$CUtlVector@PADV?$CUtlMemory@PADH@@@@QAEXXZ 10021400 f i vmpi:vmpi.obj
 0001:00020470       ?RemoveAll@?$CUtlLinkedList@PAV?$CUtlVector@DV?$CUtlMemory@DH@@@@G$0A@GV?$CUtlMemory@U?$UtlLinkedListElem_t@PAV?$CUtlVector@DV?$CUtlMemory@DH@@@@G@@G@@@@QAEXXZ 10021470 f i vmpi:vmpi.obj
 0001:000204e0       ?AllocInternal@?$CUtlLinkedList@PAV?$CUtlVector@DV?$CUtlMemory@DH@@@@G$0A@GV?$CUtlMemory@U?$UtlLinkedListElem_t@PAV?$CUtlVector@DV?$CUtlMemory@DH@@@@G@@G@@@@IAEG_N@Z 100214e0 f i vmpi:vmpi.obj
 0001:00020600       ?InsertMultipleBefore@?$CUtlVector@PADV?$CUtlMemory@PADH@@@@QAEHHHPBQAD@Z 10021600 f i vmpi:vmpi.obj
 0001:000206a0       ?HandleDisconnect@CVMPIConnection@@QAEXXZ 100216a0 f i vmpi:vmpi.obj
 0001:00020750       ?VMPI_HandleAutoRestart@@YA_NXZ 10021750 f   vmpi:vmpi.obj
 0001:000208b0       ?VMPI_FlushGroupedPackets@@YAXK@Z 100218b0 f   vmpi:vmpi.obj
 0001:00020970       ?InsertBefore@?$CUtlVector@PAVCTCPPacket@@V?$CUtlMemory@PAVCTCPPacket@@H@@@@QAEHHABQAVCTCPPacket@@@Z 10021970 f i vmpi:vmpi.obj
 0001:00020970       ?InsertBefore@?$CUtlVector@PAXV?$CUtlMemory@PAXH@@@@QAEHHABQAX@Z 10021970 f i vmpi:vmpi.obj
 0001:00020970       ?InsertBefore@?$CUtlVector@PAVCDependencyFile@CDependencyInfo@@V?$CUtlMemory@PAVCDependencyFile@CDependencyInfo@@H@@@@QAEHHABQAVCDependencyFile@CDependencyInfo@@@Z 10021970 f i vmpi:vmpi.obj
 0001:000209e0       ?Unlink@?$CUtlLinkedList@PAV?$CUtlVector@DV?$CUtlMemory@DH@@@@G$0A@GV?$CUtlMemory@U?$UtlLinkedListElem_t@PAV?$CUtlVector@DV?$CUtlMemory@DH@@@@G@@G@@@@QAEXG@Z 100219e0 f i vmpi:vmpi.obj
 0001:00020a70       ?InsertMultipleBefore@?$CUtlVector@PAVCVMPIConnection@@V?$CUtlMemory@PAVCVMPIConnection@@H@@@@QAEHHHPBQAVCVMPIConnection@@@Z 10021a70 f i vmpi:vmpi.obj
 0001:00020b10       ?Init@CVMPIConnection@@UAEXPAVIThreadedTCPSocket@@@Z 10021b10 f i vmpi:vmpi.obj
 0001:00020b20       ?SetNoTimeoutOption@CMasterBroadcaster@@QAEXXZ 10021b20 f   vmpi:vmpi.obj
 0001:00020bf0       ?VerifyValidSDKMode@@YAXXZ 10021bf0 f   vmpi:vmpi.obj
 0001:00020cd0       ?VMPI_CheckSDKMode@@YAXHPAPAD@Z 10021cd0 f   vmpi:vmpi.obj
 0001:00020d40       ?VMPI_InviteDebugWorkers@@YAXXZ 10021d40 f   vmpi:vmpi.obj
 0001:00020dd0       ?PurgeAndDeleteElements@?$CUtlLinkedList@PAV?$CUtlVector@DV?$CUtlMemory@DH@@@@G$0A@GV?$CUtlMemory@U?$UtlLinkedListElem_t@PAV?$CUtlVector@DV?$CUtlMemory@DH@@@@G@@G@@@@QAEXXZ 10021dd0 f i vmpi:vmpi.obj
 0001:00020e60       ?ParseDependencyFile@@YAXPAVCDependencyInfo@@PBD@Z 10021e60 f   vmpi:vmpi.obj
 0001:00021020       ?SetupDependenciesForPatch@@YAXPAVCDependencyInfo@@PBD@Z 10022020 f   vmpi:vmpi.obj
 0001:000210e0       ?SetupDependencyInfo@@YAXPAVCDependencyInfo@@PBD_N@Z 100220e0 f   vmpi:vmpi.obj
 0001:00021160       ??0CMasterBroadcaster@@QAE@XZ 10022160 f   vmpi:vmpi.obj
 0001:000211e0       ?GetPatchWorkerList@CMasterBroadcaster@@AAEXHPAPAD@Z 100221e0 f   vmpi:vmpi.obj
 0001:00021370       ?VMPI_Finalize@@YAXXZ      10022370 f   vmpi:vmpi.obj
 0001:000214c0       ?VMPI_GroupPackets@@YAXPAVCVMPIConnection@@PBQBXPBHH@Z 100224c0 f   vmpi:vmpi.obj
 0001:00021650       ?VMPI_SetupAutoRestartParameters@@YAXHPAPAD@Z 10022650 f   vmpi:vmpi.obj
 0001:000216e0       ?AddToTail@?$CUtlLinkedList@PAV?$CUtlVector@DV?$CUtlMemory@DH@@@@G$0A@GV?$CUtlMemory@U?$UtlLinkedListElem_t@PAV?$CUtlVector@DV?$CUtlMemory@DH@@@@G@@G@@@@QAEGABQAV?$CUtlVector@DV?$CUtlMemory@DH@@@@@Z 100226e0 f i vmpi:vmpi.obj
 0001:00021750       ?AddToHead@?$CUtlLinkedList@PAVCChunkInfo@CMasterMulticastThread@@H$0A@HV?$CUtlMemory@U?$UtlLinkedListElem_t@PAVCChunkInfo@CMasterMulticastThread@@H@@H@@@@QAEHABQAVCChunkInfo@CMasterMulticastThread@@@Z 10022750 f i vmpi:vmpi_filesystem_master.obj
 0001:00021750       ?AddToHead@?$CUtlLinkedList@PAVCTCPPacket@@H$0A@HV?$CUtlMemory@U?$UtlLinkedListElem_t@PAVCTCPPacket@@H@@H@@@@QAEHABQAVCTCPPacket@@@Z 10022750 f i vmpi:vmpi.obj
 0001:000217d0       ?AddToTail@?$CUtlLinkedList@PAVCMulticastFile@CMasterMulticastThread@@H$0A@HV?$CUtlMemory@U?$UtlLinkedListElem_t@PAVCMulticastFile@CMasterMulticastThread@@H@@H@@@@QAEHABQAVCMulticastFile@CMasterMulticastThread@@@Z 100227d0 f i vmpi:vmpi_filesystem_master.obj
 0001:000217d0       ?AddToTail@?$CUtlLinkedList@PAVCFileChunkPacket@@H$0A@HV?$CUtlMemory@U?$UtlLinkedListElem_t@PAVCFileChunkPacket@@H@@H@@@@QAEHABQAVCFileChunkPacket@@@Z 100227d0 f i vmpi:vmpi_filesystem_worker.obj
 0001:000217d0       ?AddToTail@?$CUtlLinkedList@PAVCTCPPacket@@H$0A@HV?$CUtlMemory@U?$UtlLinkedListElem_t@PAVCTCPPacket@@H@@H@@@@QAEHABQAVCTCPPacket@@@Z 100227d0 f i vmpi:vmpi.obj
 0001:000217d0       ?AddToTail@?$CUtlLinkedList@PAVCChunkInfo@CMasterMulticastThread@@H$0A@HV?$CUtlMemory@U?$UtlLinkedListElem_t@PAVCChunkInfo@CMasterMulticastThread@@H@@H@@@@QAEHABQAVCChunkInfo@CMasterMulticastThread@@@Z 100227d0 f i vmpi:vmpi_filesystem_master.obj
 0001:000217d0       ?AddToTail@?$CUtlLinkedList@PAVCClientFileInfo@CMasterMulticastThread@@H$0A@HV?$CUtlMemory@U?$UtlLinkedListElem_t@PAVCClientFileInfo@CMasterMulticastThread@@H@@H@@@@QAEHABQAVCClientFileInfo@CMasterMulticastThread@@@Z 100227d0 f i vmpi:vmpi_filesystem_master.obj
 0001:000217d0       ?AddToTail@?$CUtlLinkedList@P6AXHPBD@ZH$0A@HV?$CUtlMemory@U?$UtlLinkedListElem_t@P6AXHPBD@ZH@@H@@@@QAEHABQ6AXHPBD@Z@Z 100227d0 f i vmpi:vmpi.obj
 0001:000217d0       ?AddToTail@?$CUtlLinkedList@PAVCPartitionInfo@@H$0A@HV?$CUtlMemory@U?$UtlLinkedListElem_t@PAVCPartitionInfo@@H@@H@@@@QAEHABQAVCPartitionInfo@@@Z 100227d0 f i vmpi:vmpi_distribute_work_default.obj
 0001:000217d0       ?AddToTail@?$CUtlLinkedList@PAVCVMPIConnection@@H$0A@HV?$CUtlMemory@U?$UtlLinkedListElem_t@PAVCVMPIConnection@@H@@H@@@@QAEHABQAVCVMPIConnection@@@Z 100227d0 f i vmpi:vmpi.obj
 0001:00021830       ?OnPacketReceived@CVMPIConnection@@UAEXPAVCTCPPacket@@@Z 10022830 f i vmpi:vmpi.obj
 0001:00021890       ?OnError@CVMPIConnection@@UAEXHPBD@Z 10022890 f i vmpi:vmpi.obj
 0001:00021930       ?InternalHandleSocketErrors@@YAXXZ 10022930 f   vmpi:vmpi.obj
 0001:00021a50       ?VMPI_GetNextMessage@@YA_NPAVMessageBuffer@@PAHK@Z 10022a50 f   vmpi:vmpi.obj
 0001:00021cf0       ?VMPI_DispatchNextMessage@@YA_NK@Z 10022cf0 f   vmpi:vmpi.obj
 0001:00021dd0       ?VMPI_SendChunks@@YA_NPBQBXPBHHHH@Z 10022dd0 f   vmpi:vmpi.obj
 0001:00021fe0       ?VMPI_Send2Chunks@@YA_NPBXH0HHH@Z 10022fe0 f   vmpi:vmpi.obj
 0001:00022030       ?VMPI_Send3Chunks@@YA_NPBXH0H0HHH@Z 10023030 f   vmpi:vmpi.obj
 0001:00022090       ?VMPI_AddDisconnectHandler@@YAXP6AXHPBD@Z@Z 10023090 f   vmpi:vmpi.obj
 0001:000220a0       ?VMPI_SetMachineName@@YAXHPBD@Z 100230a0 f   vmpi:vmpi.obj
 0001:000220f0       ??0CVMPIConnection@@QAE@H@Z 100230f0 f i vmpi:vmpi.obj
 0001:000221b0       ?CreateNewHandler@CVMPIConnectionCreator@@UAEPAVITCPSocketHandler@@XZ 100231b0 f i vmpi:vmpi.obj
 0001:000221f0       ?VMPI_InternalDispatchFn@@YA_NPAVMessageBuffer@@HH@Z 100231f0 f   vmpi:vmpi.obj
 0001:000223b0       ?VMPI_ReceiveExeName@@YAXXZ 100233b0 f   vmpi:vmpi.obj
 0001:00022490       ?VMPI_SendData@@YA_NPAXHHH@Z 10023490 f   vmpi:vmpi.obj
 0001:000224b0       ?VMPI_SendMachineNameTo@@YAXH@Z 100234b0 f   vmpi:vmpi.obj
 0001:00022540       ?VMPI_SendCommandLine@@YAXHPAPAD@Z 10023540 f   vmpi:vmpi.obj
 0001:000225e0       ?VMPI_ReceiveCommandLine@@YAXXZ 100235e0 f   vmpi:vmpi.obj
 0001:000226b0       ?VMPI_SendExeName@@YAXXZ   100236b0 f   vmpi:vmpi.obj
 0001:00022770       ?Update@CMasterBroadcaster@@AAE_NXZ 10023770 f   vmpi:vmpi.obj
 0001:00022a00       ?ThreadFn@CMasterBroadcaster@@AAEXXZ 10023a00 f   vmpi:vmpi.obj
 0001:00022a70       ?StaticThreadFn@CMasterBroadcaster@@CGKPAX@Z 10023a70 f   vmpi:vmpi.obj
 0001:00022a80       ?VMPI_HandleTimingWait_Master@@YAXXZ 10023a80 f   vmpi:vmpi.obj
 0001:00022af0       ?MPI_Init_Worker@@YA_NAAHAAPAPADABVCIPAddr@@_N@Z 10023af0 f   vmpi:vmpi.obj
 0001:00022d60       ?Init@CMasterBroadcaster@@QAE_NHPAPADPBDHW4VMPIRunMode@@_N@Z 10023d60 f   vmpi:vmpi.obj
 0001:00023660       ?InitMaster@@YA_NHPAPADPBDW4VMPIRunMode@@_N@Z 10024660 f   vmpi:vmpi.obj
 0001:000237c0       ?VMPI_Init@@YA_NAAHAAPAPADPBDP6AXH2@ZW4VMPIRunMode@@_N@Z 100247c0 f   vmpi:vmpi.obj
 0001:000238c0       ?PrepareDistributeWorkHeader@@YAXPAVMessageBuffer@@E@Z 100248c0 f   vmpi:vmpi_distribute_work.obj
 0001:00023900       ?VMPI_DistributeWork_DisconnectHandler@@YAXHPBD@Z 10024900 f   vmpi:vmpi_distribute_work.obj
 0001:00023950       ?VMPI_GetNumWorkUnitsCompleted@@YA_KH@Z 10024950 f   vmpi:vmpi_distribute_work.obj
 0001:00023970       ?VMPI_GetActiveWorkUnitDistributor@@YA?AW4EWorkUnitDistributor@@XZ 10024970 f   vmpi:vmpi_distribute_work.obj
 0001:000239d0       ?PreDistributeWorkSync@@YAXPAVCDSInfo@@@Z 100249d0 f   vmpi:vmpi_distribute_work.obj
 0001:00023b00       ?DistributeWork_Cancel@@YAXXZ 10024b00 f   vmpi:vmpi_distribute_work.obj
 0001:00023b30       ?Grow@?$CUtlMemory@VCMachineRecord@CTransmitRateMgr@@H@@QAEXH@Z 10024b30 f i vmpi:vmpi_filesystem_master.obj
 0001:00023b30       ?Grow@?$CUtlMemory@_KH@@QAEXH@Z 10024b30 f i vmpi:vmpi_distribute_work.obj
 0001:00023be0       ?SortByWUCount@@YAHPBX0@Z  10024be0 f   vmpi:vmpi_distribute_work.obj
 0001:00023c30       ?HandleWorkUnitCompleted@@YAXPAVCDSInfo@@H_KPAVMessageBuffer@@@Z 10024c30 f   vmpi:vmpi_distribute_work.obj
 0001:00023d70       ?DistributeWorkDispatch@@YA_NPAVMessageBuffer@@HH@Z 10024d70 f   vmpi:vmpi_distribute_work.obj
 0001:00023f50       ?DistributeWork_Master@@YAXPAVCDSInfo@@P6AXH_KPAVMessageBuffer@@@ZP6AX12H@Z@Z 10024f50 f   vmpi:vmpi_distribute_work.obj
 0001:00024020       ?CheckLocalMasterCompletedWorkUnits@@YAXXZ 10025020 f   vmpi:vmpi_distribute_work.obj
 0001:00024080       ?InsertBefore@?$CUtlVector@_KV?$CUtlMemory@_KH@@@@QAEHHAB_K@Z 10025080 f i vmpi:vmpi_distribute_work.obj
 0001:000240f0       ?InsertMultipleBefore@?$CUtlVector@_KV?$CUtlMemory@_KH@@@@QAEHHHPB_K@Z 100250f0 f i vmpi:vmpi_distribute_work.obj
 0001:000241a0       ?NotifyLocalMasterCompletedWorkUnit@@YAX_K@Z 100251a0 f   vmpi:vmpi_distribute_work.obj
 0001:000241d0       ?ExpandWindow@?$CVisibleWindowVectorT@_KV?$CVisibleWindowVector@_K@@@@QAEX_KAB_K@Z 100251d0 f i vmpi:vmpi_distribute_work.obj
 0001:00024230       ?ShowMPIStats@@YAXNKKKK@Z  10025230 f   vmpi:vmpi_distribute_work.obj
 0001:000244d0       ?VMPI_WorkerThread@@YAXHPAX@Z 100254d0 f   vmpi:vmpi_distribute_work.obj
 0001:000247d0       ?DistributeWork_Worker@@YAXPAVCDSInfo@@P6AXH_KPAVMessageBuffer@@@Z@Z 100257d0 f   vmpi:vmpi_distribute_work.obj
 0001:00024940       ?DistributeWork@@YAN_KDP6AXH0PAVMessageBuffer@@@ZP6AX01H@Z@Z 10025940 f   vmpi:vmpi_distribute_work.obj
 0001:00024b80       ?Lock@CCriticalSection@@IAEXXZ 10025b80 f   vmpi:threadhelpers.obj
 0001:00024b90       ?Unlock@CCriticalSection@@IAEXXZ 10025b90 f   vmpi:threadhelpers.obj
 0001:00024ba0       ??0CCriticalSectionLock@@QAE@PAVCCriticalSection@@@Z 10025ba0 f   vmpi:threadhelpers.obj
 0001:00024bb0       ??1CCriticalSectionLock@@QAE@XZ 10025bb0 f   vmpi:threadhelpers.obj
 0001:00024bc0       ?Lock@CCriticalSectionLock@@QAEXXZ 10025bc0 f   vmpi:threadhelpers.obj
 0001:00024bd0       ?Unlock@CCriticalSectionLock@@QAEXXZ 10025bd0 f   vmpi:threadhelpers.obj
 0001:00024be0       ??0CEvent@@QAE@XZ          10025be0 f   vmpi:threadhelpers.obj
 0001:00024bf0       ?GetEventHandle@CEvent@@QBEPAXXZ 10025bf0 f   vmpi:threadhelpers.obj
 0001:00024bf0       ?GetUserData@CTCPPacket@@QBEHXZ 10025bf0 f   vmpi:ThreadedTCPSocket.obj
 0001:00024c00       ?SetEvent@CEvent@@QAE_NXZ  10025c00 f   vmpi:threadhelpers.obj
 0001:00024c10       ?ResetEvent@CEvent@@QAE_NXZ 10025c10 f   vmpi:threadhelpers.obj
 0001:00024c20       ??1CEvent@@QAE@XZ          10025c20 f   vmpi:threadhelpers.obj
 0001:00024c40       ?Init@CEvent@@QAE_N_N0@Z   10025c40 f   vmpi:threadhelpers.obj
 0001:00024c80       ?RemoveAll@?$CUtlLinkedList@PAVCClientFileInfo@CMasterMulticastThread@@H$0A@HV?$CUtlMemory@U?$UtlLinkedListElem_t@PAVCClientFileInfo@CMasterMulticastThread@@H@@H@@@@QAEXXZ 10025c80 f i vmpi:vmpi_filesystem_master.obj
 0001:00024c80       ?RemoveAll@?$CUtlLinkedList@P6AXHPBD@ZH$0A@HV?$CUtlMemory@U?$UtlLinkedListElem_t@P6AXHPBD@ZH@@H@@@@QAEXXZ 10025c80 f i vmpi:vmpi.obj
 0001:00024c80       ?RemoveAll@?$CUtlLinkedList@PAVCPartitionInfo@@H$0A@HV?$CUtlMemory@U?$UtlLinkedListElem_t@PAVCPartitionInfo@@H@@H@@@@QAEXXZ 10025c80 f i vmpi:vmpi_distribute_work_default.obj
 0001:00024c80       ?RemoveAll@?$CUtlLinkedList@PAVCWorkerFile@@H$0A@HV?$CUtlMemory@U?$UtlLinkedListElem_t@PAVCWorkerFile@@H@@H@@@@QAEXXZ 10025c80 f i vmpi:vmpi_filesystem_worker.obj
 0001:00024c80       ?RemoveAll@?$CUtlLinkedList@PAUSendData_t@CThreadedTCPSocket@@H$0A@HV?$CUtlMemory@U?$UtlLinkedListElem_t@PAUSendData_t@CThreadedTCPSocket@@H@@H@@@@QAEXXZ 10025c80 f i vmpi:ThreadedTCPSocket.obj
 0001:00024c80       ?RemoveAll@?$CUtlLinkedList@PADH$0A@HV?$CUtlMemory@U?$UtlLinkedListElem_t@PADH@@H@@@@QAEXXZ 10025c80 f i vmpi:vmpi_filesystem_master.obj
 0001:00024c80       ?RemoveAll@?$CUtlLinkedList@PAVCChunkInfo@CMasterMulticastThread@@H$0A@HV?$CUtlMemory@U?$UtlLinkedListElem_t@PAVCChunkInfo@CMasterMulticastThread@@H@@H@@@@QAEXXZ 10025c80 f i vmpi:vmpi_filesystem_master.obj
 0001:00024c80       ?RemoveAll@?$CUtlLinkedList@PAVCFileChunkPacket@@H$0A@HV?$CUtlMemory@U?$UtlLinkedListElem_t@PAVCFileChunkPacket@@H@@H@@@@QAEXXZ 10025c80 f i vmpi:vmpi_filesystem_worker.obj
 0001:00024c80       ?RemoveAll@?$CUtlLinkedList@PAVCTCPPacket@@H$0A@HV?$CUtlMemory@U?$UtlLinkedListElem_t@PAVCTCPPacket@@H@@H@@@@QAEXXZ 10025c80 f i vmpi:vmpi.obj
 0001:00024c80       ?RemoveAll@?$CUtlLinkedList@PAVCVMPIConnection@@H$0A@HV?$CUtlMemory@U?$UtlLinkedListElem_t@PAVCVMPIConnection@@H@@H@@@@QAEXXZ 10025c80 f i vmpi:vmpi.obj
 0001:00024c80       ?RemoveAll@?$CUtlLinkedList@PAVCMulticastFile@CMasterMulticastThread@@H$0A@HV?$CUtlMemory@U?$UtlLinkedListElem_t@PAVCMulticastFile@CMasterMulticastThread@@H@@H@@@@QAEXXZ 10025c80 f i vmpi:vmpi_filesystem_master.obj
 0001:00024c80       ?RemoveAll@?$CUtlLinkedList@KH$0A@HV?$CUtlMemory@U?$UtlLinkedListElem_t@KH@@H@@@@QAEXXZ 10025c80 f i vmpi:threadhelpers.obj
 0001:00024ce0       ??0CCriticalSection@@QAE@XZ 10025ce0 f   vmpi:threadhelpers.obj
 0001:00024d20       ??1CCriticalSection@@QAE@XZ 10025d20 f   vmpi:threadhelpers.obj
 0001:00024d60       ??0MessageBuffer@@QAE@XZ   10025d60 f   vmpi:messbuf.obj
 0001:00024d90       ??1MessageBuffer@@QAE@XZ   10025d90 f   vmpi:messbuf.obj
 0001:00024da0       ?getLen@MessageBuffer@@QAEHXZ 10025da0 f   vmpi:messbuf.obj
 0001:00024da0       ?Tell@CVMPIFile_Memory@@UAEIXZ 10025da0 f   vmpi:vmpi_filesystem.obj
 0001:00024db0       ?Size@CVMPIFile_Memory@@UAEIXZ 10025db0 f   vmpi:vmpi_filesystem.obj
 0001:00024db0       ?getOffset@MessageBuffer@@QAEHXZ 10025db0 f   vmpi:messbuf.obj
 0001:00024dc0       ?setOffset@MessageBuffer@@QAEHH@Z 10025dc0 f   vmpi:messbuf.obj
 0001:00024de0       ?read@MessageBuffer@@QAEHPAXH@Z 10025de0 f   vmpi:messbuf.obj
 0001:00024e20       ?ReadString@MessageBuffer@@QAEHPADH@Z 10025e20 f   vmpi:messbuf.obj
 0001:00024e80       ?resize@MessageBuffer@@AAEXH@Z 10025e80 f   vmpi:messbuf.obj
 0001:00024ec0       ?setLen@MessageBuffer@@QAEHH@Z 10025ec0 f   vmpi:messbuf.obj
 0001:00024ef0       ?write@MessageBuffer@@QAEHPBXH@Z 10025ef0 f   vmpi:messbuf.obj
 0001:00024f60       ?update@MessageBuffer@@QAEHHPBXH@Z 10025f60 f   vmpi:messbuf.obj
 0001:00024fe0       ?WriteString@MessageBuffer@@QAEHPBD@Z 10025fe0 f   vmpi:messbuf.obj
 0001:00025010       ?GetVMPIFileSystem@@YAPAXXZ 10026010 f   vmpi:vmpi_filesystem.obj
 0001:00025020       ?VMPI_FileSystem_Init@@YAPAVIFileSystem@@HPAV1@@Z 10026020 f   vmpi:vmpi_filesystem.obj
 0001:00025060       ?VMPI_FileSystem_Term@@YAPAVIFileSystem@@XZ 10026060 f   vmpi:vmpi_filesystem.obj
 0001:000250f0       ?VMPI_FileSystem_CreateVirtualFile@@YAXPBDPBXK@Z 100260f0 f   vmpi:vmpi_filesystem.obj
 0001:00025110       ?FileSystemRecv@@YA_NPAVMessageBuffer@@HH@Z 10026110 f   vmpi:vmpi_filesystem.obj
 0001:00025140       ?Init@CVMPIFile_Memory@@QAEXPBDJD@Z 10026140 f   vmpi:vmpi_filesystem.obj
 0001:00025160       ?Close@CVMPIFile_Memory@@UAEXXZ 10026160 f   vmpi:vmpi_filesystem.obj
 0001:00025170       ?Seek@CVMPIFile_Memory@@UAEXHW4FileSystemSeek_t@@@Z 10026170 f   vmpi:vmpi_filesystem.obj
 0001:000251a0       ?Read@CVMPIFile_Memory@@UAEHPAXH@Z 100261a0 f   vmpi:vmpi_filesystem.obj
 0001:000252c0       ?Write@CVMPIFile_Memory@@UAEHPBXH@Z 100262c0 f   vmpi:vmpi_filesystem.obj
 0001:000252d0       ??1CBaseVMPIFileSystem@@UAE@XZ 100262d0 f   vmpi:vmpi_filesystem.obj
 0001:000252e0       ?Connect@CFileSystemPassThru@@UAE_NP6APAXPBDPAH@Z@Z 100262e0 f i vmpi:vmpi_filesystem.obj
 0001:000252f0       ?Disconnect@CFileSystemPassThru@@UAEXXZ 100262f0 f i vmpi:vmpi_filesystem.obj
 0001:00025300       ?QueryInterface@CFileSystemPassThru@@UAEPAXPBD@Z 10026300 f i vmpi:vmpi_filesystem.obj
 0001:00025310       ?Init@CFileSystemPassThru@@UAE?AW4InitReturnVal_t@@XZ 10026310 f i vmpi:vmpi_filesystem.obj
 0001:00025320       ?Shutdown@CFileSystemPassThru@@UAEXXZ 10026320 f i vmpi:vmpi_filesystem.obj
 0001:00025330       ?RemoveAllSearchPaths@CFileSystemPassThru@@UAEXXZ 10026330 f i vmpi:vmpi_filesystem.obj
 0001:00025340       ?AddSearchPath@CFileSystemPassThru@@UAEXPBD0W4SearchPathAdd_t@@@Z 10026340 f i vmpi:vmpi_filesystem.obj
 0001:00025350       ?RemoveSearchPath@CFileSystemPassThru@@UAE_NPBD0@Z 10026350 f i vmpi:vmpi_filesystem.obj
 0001:00025360       ?RemoveFile@CFileSystemPassThru@@UAEXPBD0@Z 10026360 f i vmpi:vmpi_filesystem.obj
 0001:00025370       ?RenameFile@CFileSystemPassThru@@UAE_NPBD00@Z 10026370 f i vmpi:vmpi_filesystem.obj
 0001:00025380       ?CreateDirHierarchy@CFileSystemPassThru@@UAEXPBD0@Z 10026380 f i vmpi:vmpi_filesystem.obj
 0001:00025390       ?IsDirectory@CFileSystemPassThru@@UAE_NPBD0@Z 10026390 f i vmpi:vmpi_filesystem.obj
 0001:000253a0       ?FileTimeToString@CFileSystemPassThru@@UAEXPADHJ@Z 100263a0 f i vmpi:vmpi_filesystem.obj
 0001:000253b0       ?SetBufferSize@CFileSystemPassThru@@UAEXPAXI@Z 100263b0 f i vmpi:vmpi_filesystem.obj
 0001:000253c0       ?IsOk@CFileSystemPassThru@@UAE_NPAX@Z 100263c0 f i vmpi:vmpi_filesystem.obj
 0001:000253d0       ?EndOfFile@CFileSystemPassThru@@UAE_NPAX@Z 100263d0 f i vmpi:vmpi_filesystem.obj
 0001:000253e0       ?ReadLine@CFileSystemPassThru@@UAEPADPADHPAX@Z 100263e0 f i vmpi:vmpi_filesystem.obj
 0001:000253f0       ?FPrintf@CFileSystemPassThru@@UAAHPAXPADZZ 100263f0 f i vmpi:vmpi_filesystem.obj
 0001:00025450       ?LoadModule@CFileSystemPassThru@@UAEPAVCSysModule@@PBD0_N@Z 10026450 f i vmpi:vmpi_filesystem.obj
 0001:00025460       ?UnloadModule@CFileSystemPassThru@@UAEXPAVCSysModule@@@Z 10026460 f i vmpi:vmpi_filesystem.obj
 0001:00025470       ?FindFirst@CFileSystemPassThru@@UAEPBDPBDPAH@Z 10026470 f i vmpi:vmpi_filesystem.obj
 0001:00025480       ?FindNext@CFileSystemPassThru@@UAEPBDH@Z 10026480 f i vmpi:vmpi_filesystem.obj
 0001:00025490       ?FindIsDirectory@CFileSystemPassThru@@UAE_NH@Z 10026490 f i vmpi:vmpi_filesystem.obj
 0001:000254a0       ?FindClose@CFileSystemPassThru@@UAEXH@Z 100264a0 f i vmpi:vmpi_filesystem.obj
 0001:000254b0       ?GetLocalPath@CFileSystemPassThru@@UAEPBDPBDPADH@Z 100264b0 f i vmpi:vmpi_filesystem.obj
 0001:000254c0       ?FullPathToRelativePath@CFileSystemPassThru@@UAE_NPBDPADH@Z 100264c0 f i vmpi:vmpi_filesystem.obj
 0001:000254d0       ?PrintOpenedFiles@CFileSystemPassThru@@UAEXXZ 100264d0 f i vmpi:vmpi_filesystem.obj
 0001:000254e0       ?PrintSearchPaths@CFileSystemPassThru@@UAEXXZ 100264e0 f i vmpi:vmpi_filesystem.obj
 0001:000254f0       ?SetWarningFunc@CFileSystemPassThru@@UAEXP6AXPBDZZ@Z 100264f0 f i vmpi:vmpi_filesystem.obj
 0001:00025500       ?SetWarningLevel@CFileSystemPassThru@@UAEXW4FileWarningLevel_t@@@Z 10026500 f i vmpi:vmpi_filesystem.obj
 0001:00025510       ?AddLoggingFunc@CFileSystemPassThru@@UAEXP6AXPBD0@Z@Z 10026510 f i vmpi:vmpi_filesystem.obj
 0001:00025520       ?RemoveLoggingFunc@CFileSystemPassThru@@UAEXP6AXPBD0@Z@Z 10026520 f i vmpi:vmpi_filesystem.obj
 0001:00025530       ?AsyncReadMultiple@CFileSystemPassThru@@UAE?AW4FSAsyncStatus_t@@PBUFileAsyncRequest_t@@HPAPAUFSAsyncControl_t__@@@Z 10026530 f i vmpi:vmpi_filesystem.obj
 0001:00025540       ?AsyncReadMultipleCreditAlloc@CFileSystemPassThru@@UAE?AW4FSAsyncStatus_t@@PBUFileAsyncRequest_t@@HPBDHPAPAUFSAsyncControl_t__@@@Z 10026540 f i vmpi:vmpi_filesystem.obj
 0001:00025550       ?AsyncFinish@CFileSystemPassThru@@UAE?AW4FSAsyncStatus_t@@PAUFSAsyncControl_t__@@_N@Z 10026550 f i vmpi:vmpi_filesystem.obj
 0001:00025560       ?AsyncGetResult@CFileSystemPassThru@@UAE?AW4FSAsyncStatus_t@@PAUFSAsyncControl_t__@@PAPAXPAH@Z 10026560 f i vmpi:vmpi_filesystem.obj
 0001:00025570       ?AsyncAbort@CFileSystemPassThru@@UAE?AW4FSAsyncStatus_t@@PAUFSAsyncControl_t__@@@Z 10026570 f i vmpi:vmpi_filesystem.obj
 0001:00025580       ?AsyncStatus@CFileSystemPassThru@@UAE?AW4FSAsyncStatus_t@@PAUFSAsyncControl_t__@@@Z 10026580 f i vmpi:vmpi_filesystem.obj
 0001:00025590       ?AsyncFlush@CFileSystemPassThru@@UAE?AW4FSAsyncStatus_t@@XZ 10026590 f i vmpi:vmpi_filesystem.obj
 0001:000255a0       ?AsyncAddRef@CFileSystemPassThru@@UAEXPAUFSAsyncControl_t__@@@Z 100265a0 f i vmpi:vmpi_filesystem.obj
 0001:000255b0       ?AsyncRelease@CFileSystemPassThru@@UAEXPAUFSAsyncControl_t__@@@Z 100265b0 f i vmpi:vmpi_filesystem.obj
 0001:000255c0       ?AsyncBeginRead@CFileSystemPassThru@@UAE?AW4FSAsyncStatus_t@@PBDPAPAUFSAsyncFile_t__@@@Z 100265c0 f i vmpi:vmpi_filesystem.obj
 0001:000255d0       ?AsyncEndRead@CFileSystemPassThru@@UAE?AW4FSAsyncStatus_t@@PAUFSAsyncFile_t__@@@Z 100265d0 f i vmpi:vmpi_filesystem.obj
 0001:000255e0       ?GetFilesystemStatistics@CFileSystemPassThru@@UAEPBUFileSystemStatistics@@XZ 100265e0 f i vmpi:vmpi_filesystem.obj
 0001:000255f0       ?WaitForResources@CFileSystemPassThru@@UAEHPBD@Z 100265f0 f i vmpi:vmpi_filesystem.obj
 0001:00025600       ?GetWaitForResourcesProgress@CFileSystemPassThru@@UAE_NHPAMPA_N@Z 10026600 f i vmpi:vmpi_filesystem.obj
 0001:00025610       ?CancelWaitForResources@CFileSystemPassThru@@UAEXH@Z 10026610 f i vmpi:vmpi_filesystem.obj
 0001:00025620       ?HintResourceNeed@CFileSystemPassThru@@UAEHPBDH@Z 10026620 f i vmpi:vmpi_filesystem.obj
 0001:00025630       ?IsFileImmediatelyAvailable@CFileSystemPassThru@@UAE_NPBD@Z 10026630 f i vmpi:vmpi_filesystem.obj
 0001:00025640       ?GetLocalCopy@CFileSystemPassThru@@UAEXPBD@Z 10026640 f i vmpi:vmpi_filesystem.obj
 0001:00025650       ?FindOrAddFileName@CFileSystemPassThru@@UAEPAXPBD@Z 10026650 f i vmpi:vmpi_filesystem.obj
 0001:00025660       ?FindFileName@CFileSystemPassThru@@UAEPAXPBD@Z 10026660 f i vmpi:vmpi_filesystem.obj
 0001:00025670       ?String@CFileSystemPassThru@@UAE_NABQAXPADH@Z 10026670 f i vmpi:vmpi_filesystem.obj
 0001:00025680       ?IsOk2@CFileSystemPassThru@@UAE_NPAX@Z 10026680 f i vmpi:vmpi_filesystem.obj
 0001:00025690       ?RemoveSearchPaths@CFileSystemPassThru@@UAEXPBD@Z 10026690 f i vmpi:vmpi_filesystem.obj
 0001:000256a0       ?IsSteam@CFileSystemPassThru@@UBE_NXZ 100266a0 f i vmpi:vmpi_filesystem.obj
 0001:000256b0       ?MountSteamContent@CFileSystemPassThru@@UAE?AW4FilesystemMountRetval_t@@H@Z 100266b0 f i vmpi:vmpi_filesystem.obj
 0001:000256c0       ?FindFirstEx@CFileSystemPassThru@@UAEPBDPBD0PAH@Z 100266c0 f i vmpi:vmpi_filesystem.obj
 0001:000256d0       ?MarkPathIDByRequestOnly@CFileSystemPassThru@@UAEXPBD_N@Z 100266d0 f i vmpi:vmpi_filesystem.obj
 0001:000256e0       ?AddPackFile@CFileSystemPassThru@@UAE_NPBD0@Z 100266e0 f i vmpi:vmpi_filesystem.obj
 0001:000256f0       ?AsyncAppend@CFileSystemPassThru@@UAE?AW4FSAsyncStatus_t@@PBDPBXH_NPAPAUFSAsyncControl_t__@@@Z 100266f0 f i vmpi:vmpi_filesystem.obj
 0001:00025700       ?AsyncWrite@CFileSystemPassThru@@UAE?AW4FSAsyncStatus_t@@PBDPBXH_N2PAPAUFSAsyncControl_t__@@@Z 10026700 f i vmpi:vmpi_filesystem.obj
 0001:00025710       ?AsyncWriteFile@CFileSystemPassThru@@UAE?AW4FSAsyncStatus_t@@PBDPBVCUtlBuffer@@H_N2PAPAUFSAsyncControl_t__@@@Z 10026710 f i vmpi:vmpi_filesystem.obj
 0001:00025720       ?AsyncAppendFile@CFileSystemPassThru@@UAE?AW4FSAsyncStatus_t@@PBD0PAPAUFSAsyncControl_t__@@@Z 10026720 f i vmpi:vmpi_filesystem.obj
 0001:00025730       ?AsyncFinishAll@CFileSystemPassThru@@UAEXH@Z 10026730 f i vmpi:vmpi_filesystem.obj
 0001:00025740       ?AsyncFinishAllWrites@CFileSystemPassThru@@UAEXXZ 10026740 f i vmpi:vmpi_filesystem.obj
 0001:00025750       ?AsyncSetPriority@CFileSystemPassThru@@UAE?AW4FSAsyncStatus_t@@PAUFSAsyncControl_t__@@H@Z 10026750 f i vmpi:vmpi_filesystem.obj
 0001:00025760       ?AsyncSuspend@CFileSystemPassThru@@UAE_NXZ 10026760 f i vmpi:vmpi_filesystem.obj
 0001:00025770       ?AsyncResume@CFileSystemPassThru@@UAE_NXZ 10026770 f i vmpi:vmpi_filesystem.obj
 0001:00025780       ?RelativePathToFullPath@CFileSystemPassThru@@UAEPBDPBD0PADHW4PathTypeFilter_t@@PAI@Z 10026780 f i vmpi:vmpi_filesystem.obj
 0001:00025790       ?GetSearchPath@CFileSystemPassThru@@UAEHPBD_NPADH@Z 10026790 f i vmpi:vmpi_filesystem.obj
 0001:000257a0       ?OpenEx@CFileSystemPassThru@@UAEPAXPBD0I0PAPAD@Z 100267a0 f i vmpi:vmpi_filesystem.obj
 0001:000257b0       ?ReadEx@CFileSystemPassThru@@UAEHPAXHH0@Z 100267b0 f i vmpi:vmpi_filesystem.obj
 0001:000257c0       ?ReadFileEx@CFileSystemPassThru@@UAEHPBD0PAPAX_N2HHP6APAX0I@Z@Z 100267c0 f i vmpi:vmpi_filesystem.obj
 0001:000257d0       ?Flush@CVMPIFile_Memory@@UAEXXZ 100267d0 f i vmpi:vmpi_filesystem.obj
 0001:000257d0       ?SetupPreloadData@CFileSystemPassThru@@UAEXXZ 100267d0 f i vmpi:vmpi_filesystem.obj
 0001:000257d0       ?DiscardPreloadData@CFileSystemPassThru@@UAEXXZ 100267d0 f i vmpi:vmpi_filesystem.obj
 0001:000257d0       ?DefaultScriptLoadedCallback@@YAXPBD0H@Z 100267d0 f i scriplib.obj
 0001:000257e0       ?LoadCompiledKeyValues@CFileSystemPassThru@@UAEXW4KeyValuesPreloadType_t@IFileSystem@@PBD@Z 100267e0 f i vmpi:vmpi_filesystem.obj
 0001:000257f0       ?LoadKeyValues@CFileSystemPassThru@@UAEPAVKeyValues@@W4KeyValuesPreloadType_t@IFileSystem@@PBD1@Z 100267f0 f i vmpi:vmpi_filesystem.obj
 0001:00025800       ?LoadKeyValues@CFileSystemPassThru@@UAE_NAAVKeyValues@@W4KeyValuesPreloadType_t@IFileSystem@@PBD2@Z 10026800 f i vmpi:vmpi_filesystem.obj
 0001:00025810       ?ExtractRootKeyName@CFileSystemPassThru@@UAE_NW4KeyValuesPreloadType_t@IFileSystem@@PADIPBD2@Z 10026810 f i vmpi:vmpi_filesystem.obj
 0001:00025820       ?GetFileTypeForFullPath@CFileSystemPassThru@@UAE_NPBDPA_WI@Z 10026820 f i vmpi:vmpi_filesystem.obj
 0001:00025830       ?GetOptimalIOConstraints@CFileSystemPassThru@@UAE_NPAXPAI11@Z 10026830 f i vmpi:vmpi_filesystem.obj
 0001:00025840       ?AllocOptimalReadBuffer@CFileSystemPassThru@@UAEPAXPAXII@Z 10026840 f i vmpi:vmpi_filesystem.obj
 0001:00025860       ?FreeOptimalReadBuffer@CFileSystemPassThru@@UAEXPAX@Z 10026860 f i vmpi:vmpi_filesystem.obj
 0001:00025870       ?BeginMapAccess@CFileSystemPassThru@@UAEXXZ 10026870 f i vmpi:vmpi_filesystem.obj
 0001:00025880       ?EndMapAccess@CFileSystemPassThru@@UAEXXZ 10026880 f i vmpi:vmpi_filesystem.obj
 0001:00025890       ?ReadToBuffer@CFileSystemPassThru@@UAE_NPAXAAVCUtlBuffer@@HP6APAXPBDI@Z@Z 10026890 f i vmpi:vmpi_filesystem.obj
 0001:000258a0       ?FullPathToRelativePathEx@CFileSystemPassThru@@UAE_NPBD0PADH@Z 100268a0 f i vmpi:vmpi_filesystem.obj
 0001:000258b0       ?GetPathIndex@CFileSystemPassThru@@UAEHABQAX@Z 100268b0 f i vmpi:vmpi_filesystem.obj
 0001:000258c0       ?GetPathTime@CFileSystemPassThru@@UAEJPBD0@Z 100268c0 f i vmpi:vmpi_filesystem.obj
 0001:000258d0       ?GetDVDMode@CFileSystemPassThru@@UAE?AW4DVDMode_t@@XZ 100268d0 f i vmpi:vmpi_filesystem.obj
 0001:000258e0       ?EnableWhitelistFileTracking@CFileSystemPassThru@@UAEX_N@Z 100268e0 f i vmpi:vmpi_filesystem.obj
 0001:000258f0       ?RegisterFileWhitelist@CFileSystemPassThru@@UAEXPAVIFileList@@0PAPAV2@@Z 100268f0 f i vmpi:vmpi_filesystem.obj
 0001:00025900       ?MarkAllCRCsUnverified@CFileSystemPassThru@@UAEXXZ 10026900 f i vmpi:vmpi_filesystem.obj
 0001:00025910       ?CacheFileCRCs@CFileSystemPassThru@@UAEXPBDW4ECacheCRCType@@PAVIFileList@@@Z 10026910 f i vmpi:vmpi_filesystem.obj
 0001:00025920       ?CheckCachedFileCRC@CFileSystemPassThru@@UAE?AW4EFileCRCStatus@@PBD0PAK@Z 10026920 f i vmpi:vmpi_filesystem.obj
 0001:00025930       ?GetUnverifiedCRCFiles@CFileSystemPassThru@@UAEHPAVCUnverifiedCRCFile@@H@Z 10026930 f i vmpi:vmpi_filesystem.obj
 0001:00025940       ?GetWhitelistSpewFlags@CFileSystemPassThru@@UAEHXZ 10026940 f i vmpi:vmpi_filesystem.obj
 0001:00025950       ?SetWhitelistSpewFlags@CFileSystemPassThru@@UAEXH@Z 10026950 f i vmpi:vmpi_filesystem.obj
 0001:00025960       ?InstallDirtyDiskReportFunc@CFileSystemPassThru@@UAEXP6AXXZ@Z 10026960 f i vmpi:vmpi_filesystem.obj
 0001:00025970       ??_ECBaseVMPIFileSystem@@UAEPAXI@Z 10026970 f i vmpi:vmpi_filesystem.obj
 0001:00025970       ??_GCBaseVMPIFileSystem@@UAEPAXI@Z 10026970 f i vmpi:vmpi_filesystem.obj
 0001:000259a0       ?Release@CBaseVMPIFileSystem@@UAEXXZ 100269a0 f   vmpi:vmpi_filesystem.obj
 0001:000259c0       ?Close@CBaseVMPIFileSystem@@UAEXPAX@Z 100269c0 f   vmpi:vmpi_filesystem.obj
 0001:000259e0       ?Read@CBaseVMPIFileSystem@@UAEHPAXH0@Z 100269e0 f   vmpi:vmpi_filesystem.obj
 0001:00025a00       ?Write@CBaseVMPIFileSystem@@UAEHPBXHPAX@Z 10026a00 f   vmpi:vmpi_filesystem.obj
 0001:00025a20       ?Seek@CBaseVMPIFileSystem@@UAEXPAXHW4FileSystemSeek_t@@@Z 10026a20 f   vmpi:vmpi_filesystem.obj
 0001:00025a40       ?Tell@CBaseVMPIFileSystem@@UAEIPAX@Z 10026a40 f   vmpi:vmpi_filesystem.obj
 0001:00025a50       ?Size@CBaseVMPIFileSystem@@UAEIPAX@Z 10026a50 f   vmpi:vmpi_filesystem.obj
 0001:00025a60       ?Size@CBaseVMPIFileSystem@@UAEIPBD0@Z 10026a60 f   vmpi:vmpi_filesystem.obj
 0001:00025ab0       ?FileExists@CBaseVMPIFileSystem@@UAE_NPBD0@Z 10026ab0 f   vmpi:vmpi_filesystem.obj
 0001:00025af0       ?Flush@CBaseVMPIFileSystem@@UAEXPAX@Z 10026af0 f   vmpi:vmpi_filesystem.obj
 0001:00025b00       ?Precache@CBaseVMPIFileSystem@@UAE_NPBD0@Z 10026b00 f   vmpi:vmpi_filesystem.obj
 0001:00025b10       ?InitPassThru@?$CInternalFileSystemPassThru@VIFileSystem@@@@UAEXPAVIBaseFileSystem@@@Z 10026b10 f i vmpi:vmpi_filesystem.obj
 0001:00025b20       ?Open@?$CInternalFileSystemPassThru@VIFileSystem@@@@UAEPAXPBD00@Z 10026b20 f i vmpi:vmpi_filesystem.obj
 0001:00025b30       ?IsFileWritable@?$CInternalFileSystemPassThru@VIFileSystem@@@@UAE_NPBD0@Z 10026b30 f i vmpi:vmpi_filesystem.obj
 0001:00025b40       ?SetFileWritable@?$CInternalFileSystemPassThru@VIFileSystem@@@@UAE_NPBD_N0@Z 10026b40 f i vmpi:vmpi_filesystem.obj
 0001:00025b50       ?GetFileTime@?$CInternalFileSystemPassThru@VIFileSystem@@@@UAEJPBD0@Z 10026b50 f i vmpi:vmpi_filesystem.obj
 0001:00025b60       ?UnzipFile@?$CInternalFileSystemPassThru@VIFileSystem@@@@UAE_NPBD00@Z 10026b60 f i vmpi:vmpi_filesystem.obj
 0001:00025b70       ?InitPassThru@CFileSystemPassThru@@UAEXPAVIFileSystem@@_N@Z 10026b70 f i vmpi:vmpi_filesystem.obj
 0001:00025ba0       ?ReadFile@CBaseVMPIFileSystem@@UAE_NPBD0AAVCUtlBuffer@@HHP6APAX0I@Z@Z 10026ba0 f   vmpi:vmpi_filesystem.obj
 0001:00025c50       ?WriteFile@CBaseVMPIFileSystem@@UAE_NPBD0AAVCUtlBuffer@@@Z 10026c50 f   vmpi:vmpi_filesystem.obj
 0001:00025cc0       ?Init@CIPAddr@@QAEXHHHHH@Z 10026cc0 f   vmpi:iphelpers.obj
 0001:00025cf0       ?IPAddrToSockAddr@@YAXPBVCIPAddr@@PAUsockaddr_in@@@Z 10026cf0 f   vmpi:iphelpers.obj
 0001:00025d40       ?SockAddrToIPAddr@@YAXPBUsockaddr_in@@PAVCIPAddr@@@Z 10026d40 f   vmpi:iphelpers.obj
 0001:00025d80       ?ConvertStringToIPAddr@@YA_NPBDPAVCIPAddr@@@Z 10026d80 f   vmpi:iphelpers.obj
 0001:00025eb0       ?IP_GetLastErrorString@@YAXPADH@Z 10026eb0 f   vmpi:iphelpers.obj
 0001:00025f00       ?SampleMilliseconds@@YAKXZ 10026f00 f   vmpi:iphelpers.obj
 0001:00025f50       ??0CWaitTimer@@QAE@N@Z     10026f50 f   vmpi:iphelpers.obj
 0001:00025fe0       ?ShouldKeepWaiting@CWaitTimer@@QAE_NXZ 10026fe0 f   vmpi:iphelpers.obj
 0001:00026010       ??0CIPAddr@@QAE@XZ         10027010 f   vmpi:iphelpers.obj
 0001:00026030       ??0CIPAddr@@QAE@HHHHH@Z    10027030 f   vmpi:iphelpers.obj
 0001:00026060       ?Release@CIPSocket@@UAEXXZ 10027060 f i vmpi:iphelpers.obj
 0001:00026070       ?Bind@CIPSocket@@UAE_NPBVCIPAddr@@@Z 10027070 f i vmpi:iphelpers.obj
 0001:000260a0       ?ListenToMulticastStream@CIPSocket@@UAE_NABVCIPAddr@@0@Z 100270a0 f i vmpi:iphelpers.obj
 0001:00026150       ?SendTo@CIPSocket@@UAE_NPBVCIPAddr@@PBXH@Z 10027150 f i vmpi:iphelpers.obj
 0001:00026170       ?SendChunksTo@CIPSocket@@UAE_NPBVCIPAddr@@PBQBXPBHH@Z 10027170 f i vmpi:iphelpers.obj
 0001:000262a0       ?CreateSocket@CIPSocket@@UAE_NXZ 100272a0 f i vmpi:iphelpers.obj
 0001:00026330       ?BindPart2@CIPSocket@@UAE_NPBVCIPAddr@@@Z 10027330 f i vmpi:iphelpers.obj
 0001:000263f0       ?BindToAny@CIPSocket@@UAE_NG@Z 100273f0 f i vmpi:iphelpers.obj
 0001:00026420       ?Broadcast@CIPSocket@@UAE_NPBXHG@Z 10027420 f i vmpi:iphelpers.obj
 0001:000264a0       ?RecvFrom@CIPSocket@@UAEHPAXHPAVCIPAddr@@@Z 100274a0 f i vmpi:iphelpers.obj
 0001:00026570       ?GetRecvTimeout@CIPSocket@@UAENXZ 10027570 f i vmpi:iphelpers.obj
 0001:000265b0       ??_ECIPSocket@@UAEPAXI@Z   100275b0 f i vmpi:iphelpers.obj
 0001:000265b0       ??_GCIPSocket@@UAEPAXI@Z   100275b0 f i vmpi:iphelpers.obj
 0001:00026610       ?CreateIPSocket@@YAPAVISocket@@XZ 10027610 f   vmpi:iphelpers.obj
 0001:00026640       ?CreateMulticastListenSocket@@YAPAVISocket@@ABVCIPAddr@@0@Z 10027640 f   vmpi:iphelpers.obj
 0001:000266d0       ?SetValue@CTempEnvVar@@QAAXPBDZZ 100276d0 f i vmpi:filesystem_init.obj
 0001:00026740       ?Q_getwd@@YAXPADH@Z        10027740 f   vmpi:filesystem_init.obj
 0001:00026770       ??0CFSSearchPathsInit@@QAE@XZ 10027770 f   vmpi:filesystem_init.obj
 0001:00026780       ??0CFSLoadModuleInfo@@QAE@XZ 10027780 f   vmpi:filesystem_init.obj
 0001:000267b0       ??0CFSMountContentInfo@@QAE@XZ 100277b0 f   vmpi:filesystem_init.obj
 0001:000267c0       ?AddLanguageGameDir@@YAXPAVIFileSystem@@PBD1@Z 100277c0 f   vmpi:filesystem_init.obj
 0001:00026890       ?GetVProjectCmdLineValue@@YAPBDXZ 10027890 f   vmpi:filesystem_init.obj
 0001:000268d0       ?IsLowViolenceBuild@@YA_NXZ 100278d0 f   vmpi:filesystem_init.obj
 0001:00026b40       ?DoesFileExistIn@@YA_NPBD0@Z 10027b40 f   vmpi:filesystem_init.obj
 0001:00026bb0       ?DoesPathExistAlready@@YA_NPBD0@Z 10027bb0 f   vmpi:filesystem_init.obj
 0001:00026cf0       ?SetSteamUserPassphrase@@YAXPAVKeyValues@@AAVCSteamEnvVars@@@Z 10027cf0 f   vmpi:filesystem_init.obj
 0001:00026d50       ?FileSystem_AddSearchPath_Platform@@YAXPAVIFileSystem@@PBD@Z 10027d50 f   vmpi:filesystem_init.obj
 0001:00026de0       ?FileSystem_GetExecutableDir@@YA_NPADH@Z 10027de0 f   vmpi:filesystem_init.obj
 0001:00026f00       ?LaunchVConfig@@YAXXZ      10027f00 f   vmpi:filesystem_init.obj
 0001:00026f70       ?SetupFileSystemError@@YA?AW4FSReturnCode_t@@_NW41@PBDZZ 10027f70 f   vmpi:filesystem_init.obj
 0001:00027000       ?FileSystem_IsHldsUpdateToolDedicatedServer@@YA_NXZ 10028000 f   vmpi:filesystem_init.obj
 0001:00027080       ?SetSteamInstallPath@@YA?AW4FSReturnCode_t@@PADHAAVCSteamEnvVars@@_N@Z 10028080 f   vmpi:filesystem_init.obj
 0001:000271e0       ?FileSystem_SetBasePaths@@YA?AW4FSReturnCode_t@@PAVIFileSystem@@@Z 100281e0 f   vmpi:filesystem_init.obj
 0001:00027250       ?FileSystem_GetFileSystemDLLName@@YA?AW4FSReturnCode_t@@PADHAA_N@Z 10028250 f   vmpi:filesystem_init.obj
 0001:00027320       ??1CTempEnvVar@@QAE@XZ     10028320 f i vmpi:filesystem_init.obj
 0001:00027560       ?LocateGameInfoFile@@YA?AW4FSReturnCode_t@@ABVCFSSteamSetupInfo@@PADH@Z 10028560 f   vmpi:filesystem_init.obj
 0001:00027760       ??1CSteamEnvVars@@QAE@XZ   10028760 f i vmpi:filesystem_init.obj
 0001:00027790       ??0CTempEnvVar@@QAE@PBD@Z  10028790 f i vmpi:filesystem_init.obj
 0001:00027830       ?ReadKeyValuesFile@@YAPAVKeyValues@@PBD@Z 10028830 f   vmpi:filesystem_init.obj
 0001:00027910       ?LoadGameInfoFile@@YA?AW4FSReturnCode_t@@PBDAAPAVKeyValues@@11@Z 10028910 f   vmpi:filesystem_init.obj
 0001:00027a00       ?FileSystem_LoadSearchPaths@@YA?AW4FSReturnCode_t@@AAVCFSSearchPathsInit@@@Z 10028a00 f   vmpi:filesystem_init.obj
 0001:00027c00       ?SetSteamAppUser@@YAXPAVKeyValues@@PBDAAVCSteamEnvVars@@@Z 10028c00 f   vmpi:filesystem_init.obj
 0001:00027d30       ?SetupSteamStartupEnvironment@@YA?AW4FSReturnCode_t@@PAVKeyValues@@PBDAAVCSteamEnvVars@@@Z 10028d30 f   vmpi:filesystem_init.obj
 0001:00027e20       ?GetSteamExtraAppId@@YA?AW4FSReturnCode_t@@PBDPAH@Z 10028e20 f   vmpi:filesystem_init.obj
 0001:00027e70       ?FileSystem_SetupSteamInstallPath@@YA?AW4FSReturnCode_t@@XZ 10028e70 f   vmpi:filesystem_init.obj
 0001:00027f00       ?FileSystem_SetupSteamEnvironment@@YA?AW4FSReturnCode_t@@AAVCFSSteamSetupInfo@@@Z 10028f00 f   vmpi:filesystem_init.obj
 0001:00028070       ?FileSystem_LoadFileSystemModule@@YA?AW4FSReturnCode_t@@AAVCFSLoadModuleInfo@@@Z 10029070 f   vmpi:filesystem_init.obj
 0001:00028130       ?FileSystem_MountContent@@YA?AW4FSReturnCode_t@@AAVCFSMountContentInfo@@@Z 10029130 f   vmpi:filesystem_init.obj
 0001:00028250       ?LoadModule@CMasterVMPIFileSystem@@UAEPAVCSysModule@@PBD0_N@Z 10029250 f   vmpi:vmpi_filesystem_master.obj
 0001:00028260       ?UnloadModule@CMasterVMPIFileSystem@@UAEXPAVCSysModule@@@Z 10029260 f   vmpi:vmpi_filesystem_master.obj
 0001:00028270       ?Grow@?$CUtlMemory@VCChunkInfo@CMasterMulticastThread@@H@@QAEXH@Z 10029270 f i vmpi:vmpi_filesystem_master.obj
 0001:00028270       ?Grow@?$CUtlMemory@VCIPAddr@@H@@QAEXH@Z 10029270 f i vmpi:vmpi.obj
 0001:00028310       ?NoteExcessTimeTaken@CRateLimiter@@QAEXK@Z 10029310 f   vmpi:vmpi_filesystem_master.obj
 0001:000283b0       ?Close@CVMPIFile_PassThru@@UAEXXZ 100293b0 f i vmpi:vmpi_filesystem_master.obj
 0001:000283d0       ?Seek@CVMPIFile_PassThru@@UAEXHW4FileSystemSeek_t@@@Z 100293d0 f i vmpi:vmpi_filesystem_master.obj
 0001:000283f0       ?Tell@CVMPIFile_PassThru@@UAEIXZ 100293f0 f i vmpi:vmpi_filesystem_master.obj
 0001:00028410       ?Size@CVMPIFile_PassThru@@UAEIXZ 10029410 f i vmpi:vmpi_filesystem_master.obj
 0001:00028430       ?Flush@CVMPIFile_PassThru@@UAEXXZ 10029430 f i vmpi:vmpi_filesystem_master.obj
 0001:00028450       ?Read@CVMPIFile_PassThru@@UAEHPAXH@Z 10029450 f i vmpi:vmpi_filesystem_master.obj
 0001:00028470       ?Write@CVMPIFile_PassThru@@UAEHPBXH@Z 10029470 f i vmpi:vmpi_filesystem_master.obj
 0001:00028490       ?RemoveMultiple@?$CUtlVector@DV?$CUtlMemory@DH@@@@QAEXHH@Z 10029490 f i vmpi:vmpi_filesystem_master.obj
 0001:000284d0       ?GiveUpTimeSlice@CRateLimiter@@QAEXXZ 100294d0 f   vmpi:vmpi_filesystem_master.obj
 0001:000285d0       ?TCP_SendNextChunk@CMasterMulticastThread@@AAEXPAVCMulticastFile@1@PAVCClientFileInfo@1@@Z 100295d0 f   vmpi:vmpi_filesystem_master.obj
 0001:000286a0       ?Thread_SendFileChunk_Multicast@CMasterMulticastThread@@AAE_NPAH@Z 100296a0 f i vmpi:vmpi_filesystem_master.obj
 0001:000288e0       ?GetCurrentDirectory@CFileSystemPassThru@@UAE_NPADH@Z 100298e0 f i vmpi:vmpi_filesystem.obj
 0001:000288e0       ?GetCurrentDirectoryA@CFileSystemPassThru@@UAE_NPADH@Z 100298e0 f i vmpi:vmpi_filesystem_master.obj
 0001:000288f0       ?FindFile@CMasterMulticastThread@@AAEHPBD0@Z 100298f0 f   vmpi:vmpi_filesystem_master.obj
 0001:00028960       ?EnsureMemoryLimit@CMasterMulticastThread@@AAEXPAVCMulticastFile@1@@Z 10029960 f   vmpi:vmpi_filesystem_master.obj
 0001:000289d0       ?InsertBefore@?$CUtlVector@VCMachineRecord@CTransmitRateMgr@@V?$CUtlMemory@VCMachineRecord@CTransmitRateMgr@@H@@@@QAEHH@Z 100299d0 f i vmpi:vmpi_filesystem_master.obj
 0001:00028a30       ?Unlink@?$CUtlLinkedList@PAVCFileChunkPacket@@H$0A@HV?$CUtlMemory@U?$UtlLinkedListElem_t@PAVCFileChunkPacket@@H@@H@@@@QAEXH@Z 10029a30 f i vmpi:vmpi_filesystem_worker.obj
 0001:00028a30       ?Unlink@?$CUtlLinkedList@PAVCTCPPacket@@H$0A@HV?$CUtlMemory@U?$UtlLinkedListElem_t@PAVCTCPPacket@@H@@H@@@@QAEXH@Z 10029a30 f i vmpi:vmpi.obj
 0001:00028a30       ?Unlink@?$CUtlLinkedList@P6AXHPBD@ZH$0A@HV?$CUtlMemory@U?$UtlLinkedListElem_t@P6AXHPBD@ZH@@H@@@@QAEXH@Z 10029a30 f i vmpi:vmpi.obj
 0001:00028a30       ?Unlink@?$CUtlLinkedList@PAVCWorkerFile@@H$0A@HV?$CUtlMemory@U?$UtlLinkedListElem_t@PAVCWorkerFile@@H@@H@@@@QAEXH@Z 10029a30 f i vmpi:vmpi_filesystem_worker.obj
 0001:00028a30       ?Unlink@?$CUtlLinkedList@PAVCPartitionInfo@@H$0A@HV?$CUtlMemory@U?$UtlLinkedListElem_t@PAVCPartitionInfo@@H@@H@@@@QAEXH@Z 10029a30 f i vmpi:vmpi_distribute_work_default.obj
 0001:00028a30       ?Unlink@?$CUtlLinkedList@PAVCMulticastFile@CMasterMulticastThread@@H$0A@HV?$CUtlMemory@U?$UtlLinkedListElem_t@PAVCMulticastFile@CMasterMulticastThread@@H@@H@@@@QAEXH@Z 10029a30 f i vmpi:vmpi_filesystem_master.obj
 0001:00028a30       ?Unlink@?$CUtlLinkedList@PAVCChunkInfo@CMasterMulticastThread@@H$0A@HV?$CUtlMemory@U?$UtlLinkedListElem_t@PAVCChunkInfo@CMasterMulticastThread@@H@@H@@@@QAEXH@Z 10029a30 f i vmpi:vmpi_filesystem_master.obj
 0001:00028a30       ?Unlink@?$CUtlLinkedList@PAVCClientFileInfo@CMasterMulticastThread@@H$0A@HV?$CUtlMemory@U?$UtlLinkedListElem_t@PAVCClientFileInfo@CMasterMulticastThread@@H@@H@@@@QAEXH@Z 10029a30 f i vmpi:vmpi_filesystem_master.obj
 0001:00028a30       ?Unlink@?$CUtlLinkedList@PAUSendData_t@CThreadedTCPSocket@@H$0A@HV?$CUtlMemory@U?$UtlLinkedListElem_t@PAUSendData_t@CThreadedTCPSocket@@H@@H@@@@QAEXH@Z 10029a30 f i vmpi:ThreadedTCPSocket.obj
 0001:00028a30       ?Unlink@?$CUtlLinkedList@PAVCVMPIConnection@@H$0A@HV?$CUtlMemory@U?$UtlLinkedListElem_t@PAVCVMPIConnection@@H@@H@@@@QAEXH@Z 10029a30 f i vmpi:vmpi.obj
 0001:00028ab0       ?InsertMultipleBefore@?$CUtlVector@VCChunkInfo@CMasterMulticastThread@@V?$CUtlMemory@VCChunkInfo@CMasterMulticastThread@@H@@@@QAEHHHPBVCChunkInfo@CMasterMulticastThread@@@Z 10029ab0 f i vmpi:vmpi_filesystem_master.obj
 0001:00028b60       ??0CTransmitRateMgr@@QAE@XZ 10029b60 f   vmpi:vmpi_filesystem_master.obj
 0001:00028c30       ??0CMasterMulticastThread@@QAE@XZ 10029c30 f   vmpi:vmpi_filesystem_master.obj
 0001:00028cc0       ??0CMulticastFile@CMasterMulticastThread@@QAE@XZ 10029cc0 f i vmpi:vmpi_filesystem_master.obj
 0001:00028d90       ?ReadPackets@CTransmitRateMgr@@QAEXXZ 10029d90 f   vmpi:vmpi_filesystem_master.obj
 0001:00028f70       ?PurgeAndDeleteElements@?$CUtlLinkedList@PAVCClientFileInfo@CMasterMulticastThread@@H$0A@HV?$CUtlMemory@U?$UtlLinkedListElem_t@PAVCClientFileInfo@CMasterMulticastThread@@H@@H@@@@QAEXXZ 10029f70 f i vmpi:vmpi_filesystem_master.obj
 0001:00029150       ??1CMulticastFile@CMasterMulticastThread@@QAE@XZ 1002a150 f i vmpi:vmpi_filesystem_master.obj
 0001:000291f0       ?PurgeAndDeleteElements@?$CUtlLinkedList@PAVCMulticastFile@CMasterMulticastThread@@H$0A@HV?$CUtlMemory@U?$UtlLinkedListElem_t@PAVCMulticastFile@CMasterMulticastThread@@H@@H@@@@QAEXXZ 1002a1f0 f i vmpi:vmpi_filesystem_master.obj
 0001:00029280       ?Term@CMasterMulticastThread@@QAEXXZ 1002a280 f   vmpi:vmpi_filesystem_master.obj
 0001:000292e0       ?DecrementChunkRefCount@CMasterMulticastThread@@AAEXHH@Z 1002a2e0 f   vmpi:vmpi_filesystem_master.obj
 0001:00029390       ?FinishFileSetup@CMasterMulticastThread@@AAEHPAVCMulticastFile@1@PBD1_N@Z 1002a390 f   vmpi:vmpi_filesystem_master.obj
 0001:00029520       ?Term@CMasterVMPIFileSystem@@UAEXXZ 1002a520 f   vmpi:vmpi_filesystem_master.obj
 0001:00029530       ??1CMasterMulticastThread@@QAE@XZ 1002a530 f   vmpi:vmpi_filesystem_master.obj
 0001:000295c0       ?OnChunkReceived@CMasterMulticastThread@@QAEXHHH@Z 1002a5c0 f   vmpi:vmpi_filesystem_master.obj
 0001:00029710       ?OnFileReceived@CMasterMulticastThread@@QAEXHH@Z 1002a710 f   vmpi:vmpi_filesystem_master.obj
 0001:00029780       ?OnClientDisconnect@CMasterMulticastThread@@QAEXH_N@Z 1002a780 f   vmpi:vmpi_filesystem_master.obj
 0001:00029900       ?CreateVirtualFile@CMasterMulticastThread@@QAEXPBDPBXK@Z 1002a900 f   vmpi:vmpi_filesystem_master.obj
 0001:00029970       ?CheckClientTimeouts@CMasterMulticastThread@@AAE_NXZ 1002a970 f   vmpi:vmpi_filesystem_master.obj
 0001:00029ab0       ?Thread_SeekToNextActiveChunk@CMasterMulticastThread@@AAEXXZ 1002aab0 f   vmpi:vmpi_filesystem_master.obj
 0001:00029b90       ?MulticastThread@CMasterMulticastThread@@AAEKXZ 1002ab90 f   vmpi:vmpi_filesystem_master.obj
 0001:00029dc0       ?FindOrAddFile@CMasterMulticastThread@@QAEHPBD0@Z 1002adc0 f   vmpi:vmpi_filesystem_master.obj
 0001:00029ed0       ??0CMasterVMPIFileSystem@@QAE@XZ 1002aed0 f   vmpi:vmpi_filesystem_master.obj
 0001:00029f20       ?Open@CMasterVMPIFileSystem@@UAEPAXPBD00@Z 1002af20 f   vmpi:vmpi_filesystem_master.obj
 0001:0002a040       ?OnClientDisconnect@CMasterVMPIFileSystem@@CAXHPBD@Z 1002b040 f   vmpi:vmpi_filesystem_master.obj
 0001:0002a060       ?CreateVirtualFile@CMasterVMPIFileSystem@@UAEXPBDPBXH@Z 1002b060 f   vmpi:vmpi_filesystem_master.obj
 0001:0002a070       ?AddFileRequest@CMasterMulticastThread@@QAEHPBD0HPA_N@Z 1002b070 f   vmpi:vmpi_filesystem_master.obj
 0001:0002a220       ?StaticMulticastThread@CMasterMulticastThread@@CGKPAX@Z 1002b220 f   vmpi:vmpi_filesystem_master.obj
 0001:0002a230       ??_GCMasterVMPIFileSystem@@UAEPAXI@Z 1002b230 f i vmpi:vmpi_filesystem_master.obj
 0001:0002a230       ??_ECMasterVMPIFileSystem@@UAEPAXI@Z 1002b230 f i vmpi:vmpi_filesystem_master.obj
 0001:0002a270       ?HandleFileSystemPacket@CMasterVMPIFileSystem@@UAE_NPAVMessageBuffer@@HH@Z 1002b270 f   vmpi:vmpi_filesystem_master.obj
 0001:0002a3e0       ?Init@CMasterMulticastThread@@QAE_NPAVIBaseFileSystem@@GPBVCIPAddr@@H@Z 1002b3e0 f   vmpi:vmpi_filesystem_master.obj
 0001:0002a590       ?Init@CMasterVMPIFileSystem@@QAE_NHPAVIFileSystem@@@Z 1002b590 f   vmpi:vmpi_filesystem_master.obj
 0001:0002a700       ?CreateMasterVMPIFileSystem@@YAPAVCBaseVMPIFileSystem@@HPAVIFileSystem@@@Z 1002b700 f   vmpi:vmpi_filesystem_master.obj
 0001:0002a7c0       ?SetUserData@CTCPPacket@@QAEXH@Z 1002b7c0 f   vmpi:ThreadedTCPSocket.obj
 0001:0002a7d0       ?Release@CTCPPacket@@QAEXXZ 1002b7d0 f   vmpi:ThreadedTCPSocket.obj
 0001:0002a7e0       ?SetInitialSocketOptions@CThreadedTCPSocket@@AAEXXZ 1002b7e0 f i vmpi:ThreadedTCPSocket.obj
 0001:0002a840       ?HandleError@CThreadedTCPSocket@@AAEXHPBD@Z 1002b840 f i vmpi:ThreadedTCPSocket.obj
 0001:0002a870       ?Create@CTCPConnectSocket_Connector@@SAPAVITCPConnectSocket@@ABVCIPAddr@@0PAVIHandlerCreator@@@Z 1002b870 f i vmpi:ThreadedTCPSocket.obj
 0001:0002a970       ?Release@CTCPConnectSocket_Connector@@UAEXXZ 1002b970 f i vmpi:ThreadedTCPSocket.obj
 0001:0002a970       ?Release@CTCPConnectSocket_Listener@@UAEXXZ 1002b970 f i vmpi:ThreadedTCPSocket.obj
 0001:0002a980       ?EnterErrorMode@CTCPConnectSocket_Connector@@QAE_NXZ 1002b980 f i vmpi:ThreadedTCPSocket.obj
 0001:0002a9a0       ??_GCTCPConnectSocket_Connector@@UAEPAXI@Z 1002b9a0 f i vmpi:ThreadedTCPSocket.obj
 0001:0002a9a0       ??_ECTCPConnectSocket_Connector@@UAEPAXI@Z 1002b9a0 f i vmpi:ThreadedTCPSocket.obj
 0001:0002a9d0       ?ThreadedTCP_CreateConnector@@YAPAVITCPConnectSocket@@ABVCIPAddr@@0PAVIHandlerCreator@@@Z 1002b9d0 f   vmpi:ThreadedTCPSocket.obj
 0001:0002a9e0       ?ThreadedTCP_EnableTimeouts@@YAX_N@Z 1002b9e0 f   vmpi:ThreadedTCPSocket.obj
 0001:0002a9f0       ?ThreadedTCP_SetTCPSocketThreadPriorities@@YAX_N@Z 1002b9f0 f   vmpi:ThreadedTCPSocket.obj
 0001:0002aa00       ?HandleError@CThreadedTCPSocket@@AAEXK@Z 1002ba00 f i vmpi:ThreadedTCPSocket.obj
 0001:0002aa90       ??_GCTCPConnectSocket_Listener@@UAEPAXI@Z 1002ba90 f i vmpi:ThreadedTCPSocket.obj
 0001:0002aa90       ??_ECTCPConnectSocket_Listener@@UAEPAXI@Z 1002ba90 f i vmpi:ThreadedTCPSocket.obj
 0001:0002aac0       ?Create@CTCPConnectSocket_Listener@@SAPAVITCPConnectSocket@@PAVIHandlerCreator@@GH@Z 1002bac0 f i vmpi:ThreadedTCPSocket.obj
 0001:0002ab70       ?ThreadedTCP_CreateListener@@YAPAVITCPConnectSocket@@PAVIHandlerCreator@@GH@Z 1002bb70 f   vmpi:ThreadedTCPSocket.obj
 0001:0002ab80       ?SendThread_HandleReadyToSendEvent@CThreadedTCPSocket@@AAE_NXZ 1002bb80 f i vmpi:ThreadedTCPSocket.obj
 0001:0002ac40       ?RecvThread_InternalRecv@CThreadedTCPSocket@@AAE_NPAXH_N1@Z 1002bc40 f i vmpi:ThreadedTCPSocket.obj
 0001:0002acf0       ?AllocInternal@?$CUtlLinkedList@PAVCChunkInfo@CMasterMulticastThread@@H$0A@HV?$CUtlMemory@U?$UtlLinkedListElem_t@PAVCChunkInfo@CMasterMulticastThread@@H@@H@@@@IAEH_N@Z 1002bcf0 f i vmpi:vmpi_filesystem_master.obj
 0001:0002acf0       ?AllocInternal@?$CUtlLinkedList@PAVCClientFileInfo@CMasterMulticastThread@@H$0A@HV?$CUtlMemory@U?$UtlLinkedListElem_t@PAVCClientFileInfo@CMasterMulticastThread@@H@@H@@@@IAEH_N@Z 1002bcf0 f i vmpi:vmpi_filesystem_master.obj
 0001:0002acf0       ?AllocInternal@?$CUtlLinkedList@P6AXHPBD@ZH$0A@HV?$CUtlMemory@U?$UtlLinkedListElem_t@P6AXHPBD@ZH@@H@@@@IAEH_N@Z 1002bcf0 f i vmpi:vmpi.obj
 0001:0002acf0       ?AllocInternal@?$CUtlLinkedList@PAVCWorkerFile@@H$0A@HV?$CUtlMemory@U?$UtlLinkedListElem_t@PAVCWorkerFile@@H@@H@@@@IAEH_N@Z 1002bcf0 f i vmpi:vmpi_filesystem_worker.obj
 0001:0002acf0       ?AllocInternal@?$CUtlLinkedList@PAVCMulticastFile@CMasterMulticastThread@@H$0A@HV?$CUtlMemory@U?$UtlLinkedListElem_t@PAVCMulticastFile@CMasterMulticastThread@@H@@H@@@@IAEH_N@Z 1002bcf0 f i vmpi:vmpi_filesystem_master.obj
 0001:0002acf0       ?AllocInternal@?$CUtlLinkedList@PAUSendData_t@CThreadedTCPSocket@@H$0A@HV?$CUtlMemory@U?$UtlLinkedListElem_t@PAUSendData_t@CThreadedTCPSocket@@H@@H@@@@IAEH_N@Z 1002bcf0 f i vmpi:ThreadedTCPSocket.obj
 0001:0002acf0       ?AllocInternal@?$CUtlLinkedList@PAVCTCPPacket@@H$0A@HV?$CUtlMemory@U?$UtlLinkedListElem_t@PAVCTCPPacket@@H@@H@@@@IAEH_N@Z 1002bcf0 f i vmpi:vmpi.obj
 0001:0002acf0       ?AllocInternal@?$CUtlLinkedList@PAVCFileChunkPacket@@H$0A@HV?$CUtlMemory@U?$UtlLinkedListElem_t@PAVCFileChunkPacket@@H@@H@@@@IAEH_N@Z 1002bcf0 f i vmpi:vmpi_filesystem_worker.obj
 0001:0002acf0       ?AllocInternal@?$CUtlLinkedList@PAVCPartitionInfo@@H$0A@HV?$CUtlMemory@U?$UtlLinkedListElem_t@PAVCPartitionInfo@@H@@H@@@@IAEH_N@Z 1002bcf0 f i vmpi:vmpi_distribute_work_default.obj
 0001:0002acf0       ?AllocInternal@?$CUtlLinkedList@PAVCVMPIConnection@@H$0A@HV?$CUtlMemory@U?$UtlLinkedListElem_t@PAVCVMPIConnection@@H@@H@@@@IAEH_N@Z 1002bcf0 f i vmpi:vmpi.obj
 0001:0002adf0       ?RecvThread_InternalHandleRecvCompletion@CThreadedTCPSocket@@AAE_NK@Z 1002bdf0 f i vmpi:ThreadedTCPSocket.obj
 0001:0002afa0       ?RecvThreadFn@CThreadedTCPSocket@@AAEKXZ 1002bfa0 f i vmpi:ThreadedTCPSocket.obj
 0001:0002b120       ?StaticRecvThreadFn@CThreadedTCPSocket@@CGKPAX@Z 1002c120 f i vmpi:ThreadedTCPSocket.obj
 0001:0002b130       ??0CThreadedTCPSocket@@AAE@XZ 1002c130 f i vmpi:ThreadedTCPSocket.obj
 0001:0002b220       ?GetRemoteAddr@CThreadedTCPSocket@@UBE?AVCIPAddr@@XZ 1002c220 f i vmpi:ThreadedTCPSocket.obj
 0001:0002b240       ?Send@CThreadedTCPSocket@@UAE_NPBXH@Z 1002c240 f i vmpi:ThreadedTCPSocket.obj
 0001:0002b260       ?Term@CThreadedTCPSocket@@AAEXXZ 1002c260 f i vmpi:ThreadedTCPSocket.obj
 0001:0002b2f0       ?IsValid@CThreadedTCPSocket@@UAE_NXZ 1002c2f0 f i vmpi:ThreadedTCPSocket.obj
 0001:0002b300       ??1CThreadedTCPSocket@@EAE@XZ 1002c300 f i vmpi:ThreadedTCPSocket.obj
 0001:0002b380       ??_GCThreadedTCPSocket@@EAEPAXI@Z 1002c380 f i vmpi:ThreadedTCPSocket.obj
 0001:0002b380       ??_ECThreadedTCPSocket@@EAEPAXI@Z 1002c380 f i vmpi:ThreadedTCPSocket.obj
 0001:0002b3a0       ?SendThread_HandleSendCompletionEvent@CThreadedTCPSocket@@AAE_NXZ 1002c3a0 f i vmpi:ThreadedTCPSocket.obj
 0001:0002b4d0       ?InternalSend@CThreadedTCPSocket@@AAE_NPBQBXPBHH_N@Z 1002c4d0 f i vmpi:ThreadedTCPSocket.obj
 0001:0002b600       ?SendThread_HandleTimeout@CThreadedTCPSocket@@AAEXXZ 1002c600 f i vmpi:ThreadedTCPSocket.obj
 0001:0002b670       ?SendThreadFn@CThreadedTCPSocket@@AAEKXZ 1002c670 f i vmpi:ThreadedTCPSocket.obj
 0001:0002b7b0       ?StaticSendThreadFn@CThreadedTCPSocket@@CGKPAX@Z 1002c7b0 f i vmpi:ThreadedTCPSocket.obj
 0001:0002b7c0       ?SendChunks@CThreadedTCPSocket@@UAE_NPBQBXPBHH@Z 1002c7c0 f i vmpi:ThreadedTCPSocket.obj
 0001:0002b7f0       ?Init@CThreadedTCPSocket@@AAE_NIVCIPAddr@@PAVITCPSocketHandler@@@Z 1002c7f0 f i vmpi:ThreadedTCPSocket.obj
 0001:0002b930       ?Create@CThreadedTCPSocket@@SAPAVIThreadedTCPSocket@@IVCIPAddr@@PAVITCPSocketHandler@@@Z 1002c930 f i vmpi:ThreadedTCPSocket.obj
 0001:0002b990       ?Update@CTCPConnectSocket_Listener@@UAE_NPAPAVIThreadedTCPSocket@@K@Z 1002c990 f i vmpi:ThreadedTCPSocket.obj
 0001:0002bac0       ?Update@CTCPConnectSocket_Connector@@UAE_NPAPAVIThreadedTCPSocket@@K@Z 1002cac0 f i vmpi:ThreadedTCPSocket.obj
 0001:0002bbe0       ?Grow@?$CUtlMemory@VCWorkUnit@@H@@QAEXH@Z 1002cbe0 f i vmpi:vmpi_distribute_tracker.obj
 0001:0002bbe0       ?Grow@?$CUtlMemory@U?$UtlLinkedListElem_t@_K_K@@_K@@QAEXH@Z 1002cbe0 f i vmpi:vmpi_distribute_work_sdk.obj
 0001:0002bbe0       ?Grow@?$CUtlMemory@VCWUStatus@@H@@QAEXH@Z 1002cbe0 f i vmpi:vmpi_distribute_tracker.obj
 0001:0002be50       ?VMPITracker_WriteDebugFile@@YA_NPBD@Z 1002ce50 f   vmpi:vmpi_distribute_tracker.obj
 0001:0002c080       ?VMPITracker_HandleDebugKeypresses@@YAXXZ 1002d080 f   vmpi:vmpi_distribute_tracker.obj
 0001:0002c220       ?InsertMultipleBefore@?$CUtlVector@VCWUStatus@@V?$CUtlMemory@VCWUStatus@@H@@@@QAEHHHPBVCWUStatus@@@Z 1002d220 f i vmpi:vmpi_distribute_tracker.obj
 0001:0002c320       ?InsertMultipleBefore@?$CUtlVector@VCWorkerInfo@CWorkUnitWalker@@V?$CUtlMemory@VCWorkerInfo@CWorkUnitWalker@@H@@@@QAEHHHPBVCWorkerInfo@CWorkUnitWalker@@@Z 1002d320 f i vmpi:vmpi_distribute_work_sdk.obj
 0001:0002c320       ?InsertMultipleBefore@?$CUtlVector@VCWorkUnitEvent@@V?$CUtlMemory@VCWorkUnitEvent@@H@@@@QAEHHHPBVCWorkUnitEvent@@@Z 1002d320 f i vmpi:vmpi_distribute_tracker.obj
 0001:0002c3d0       ?InsertBefore@?$CUtlVector@VCWorkUnitEvent@@V?$CUtlMemory@VCWorkUnitEvent@@H@@@@QAEHHABVCWorkUnitEvent@@@Z 1002d3d0 f i vmpi:vmpi_distribute_tracker.obj
 0001:0002c450       ?VMPITracker_WorkUnitSentToWorker@@YAXHH@Z 1002d450 f   vmpi:vmpi_distribute_tracker.obj
 0001:0002c4b0       ?VMPITracker_WorkUnitStarted@@YAXHH@Z 1002d4b0 f   vmpi:vmpi_distribute_tracker.obj
 0001:0002c510       ?VMPITracker_WorkUnitCompleted@@YAXHH@Z 1002d510 f   vmpi:vmpi_distribute_tracker.obj
 0001:0002c9f0       ?RemoveAll@?$CUtlVector@VCWorkUnit@@V?$CUtlMemory@VCWorkUnit@@H@@@@QAEXXZ 1002d9f0 f i vmpi:vmpi_distribute_tracker.obj
 0001:0002ca90       ??4?$CUtlVector@VCWorkUnitEvent@@V?$CUtlMemory@VCWorkUnitEvent@@H@@@@QAEAAV0@ABV0@@Z 1002da90 f i vmpi:vmpi_distribute_tracker.obj
 0001:0002caf0       ?VMPITracker_End@@YAXXZ    1002daf0 f   vmpi:vmpi_distribute_tracker.obj
 0001:0002cb60       ??1?$CUtlVector@VCWorkUnit@@V?$CUtlMemory@VCWorkUnit@@H@@@@QAE@XZ 1002db60 f i vmpi:vmpi_distribute_tracker.obj
 0001:0002cbc0       ?InsertMultipleBefore@?$CUtlVector@VCWorkUnit@@V?$CUtlMemory@VCWorkUnit@@H@@@@QAEHHHPBVCWorkUnit@@@Z 1002dbc0 f i vmpi:vmpi_distribute_tracker.obj
 0001:0002ccb0       ?VMPITracker_Start@@YAXH@Z 1002dcb0 f   vmpi:vmpi_distribute_tracker.obj
 0001:0002cd60       ?Get@?$CVisibleWindowVectorT@EV?$CVisibleWindowVector@E@@@@QAEAAE_K@Z 1002dd60 f i vmpi:vmpi_distribute_work_default.obj
 0001:0002cdb0       ?EnsureCapacity@?$CUtlVector@EV?$CUtlMemory@EH@@@@QAEXH@Z 1002ddb0 f i vmpi:vmpi_distribute_work_default.obj
 0001:0002ce10       ?ShrinkWindow@?$CVisibleWindowVectorT@EV?$CVisibleWindowVector@E@@@@QAEX_K@Z 1002de10 f i vmpi:vmpi_distribute_work_default.obj
 0001:0002ce80       ??1?$CUtlVector@Udoccluderdata_t@@V?$CUtlMemory@Udoccluderdata_t@@H@@@@QAE@XZ 1002de80 f i bsplib.obj
 0001:0002ce80       ??1?$CUtlVector@VCWULookupInfo@@V?$CUtlMemory@VCWULookupInfo@@H@@@@QAE@XZ 1002de80 f i vmpi:vmpi_distribute_work_default.obj
 0001:0002ce80       ??1?$CUtlVector@VCDispTri@@V?$CUtlMemory@VCDispTri@@H@@@@QAE@XZ 1002de80 f i bsplib.obj
 0001:0002ce80       ??1?$CUtlVector@PAUStringPool_t@CUtlSymbolTable@@V?$CUtlMemory@PAUStringPool_t@CUtlSymbolTable@@H@@@@QAE@XZ 1002de80 f i tier1:utlsymbol.obj
 0001:0002ce80       ??1?$CUtlVector@Udleafambientlighting_t@@V?$CUtlMemory@Udleafambientlighting_t@@H@@@@QAE@XZ 1002de80 f i bsplib.obj
 0001:0002ce80       ??1?$CUtlVector@VVector@@V?$CUtlMemory@VVector@@H@@@@QAE@XZ 1002de80 f i flow.obj
 0001:0002ce80       ??1?$CUtlVector@PAVCBaseCommand@CScratchPad3D@@V?$CUtlMemory@PAVCBaseCommand@CScratchPad3D@@H@@@@QAE@XZ 1002de80 f i scratchpad3d.obj
 0001:0002ce80       ??1?$CUtlVector@_KV?$CUtlMemory@_KH@@@@QAE@XZ 1002de80 f i vmpi:vmpi_distribute_work.obj
 0001:0002ce80       ??1?$CUtlVector@DV?$CUtlMemory@DH@@@@QAE@XZ 1002de80 f i bsplib.obj
 0001:0002ce80       ??1?$CUtlVector@Uvariable_t@@V?$CUtlMemory@Uvariable_t@@H@@@@QAE@XZ 1002de80 f i scriplib.obj
 0001:0002ce80       ??1?$CUtlVector@PAVCTCPPacket@@V?$CUtlMemory@PAVCTCPPacket@@H@@@@QAE@XZ 1002de80 f i vmpi:vmpi.obj
 0001:0002ce80       ??1?$CUtlVector@VCWorkerInfo@CWorkUnitWalker@@V?$CUtlMemory@VCWorkerInfo@CWorkUnitWalker@@H@@@@QAE@XZ 1002de80 f i vmpi:vmpi_distribute_work_sdk.obj
 0001:0002ce80       ??1?$CUtlVector@VCMachineRecord@CTransmitRateMgr@@V?$CUtlMemory@VCMachineRecord@CTransmitRateMgr@@H@@@@QAE@XZ 1002de80 f i vmpi:vmpi_filesystem_master.obj
 0001:0002ce80       ??1?$CUtlVector@VCChunkInfo@CMasterMulticastThread@@V?$CUtlMemory@VCChunkInfo@CMasterMulticastThread@@H@@@@QAE@XZ 1002de80 f i vmpi:vmpi_filesystem_master.obj
 0001:0002ce80       ??1?$CUtlVector@HV?$CUtlMemory@HH@@@@QAE@XZ 1002de80 f i bsplib.obj
 0001:0002ce80       ??1?$CUtlVector@VCIPAddr@@V?$CUtlMemory@VCIPAddr@@H@@@@QAE@XZ 1002de80 f i vmpi:vmpi.obj
 0001:0002ce80       ??1?$CUtlVector@VCFileResponse@@V?$CUtlMemory@VCFileResponse@@H@@@@QAE@XZ 1002de80 f i vmpi:vmpi_filesystem_worker.obj
 0001:0002ce80       ??1?$CUtlVector@VCDispVert@@V?$CUtlMemory@VCDispVert@@H@@@@QAE@XZ 1002de80 f i bsplib.obj
 0001:0002ce80       ??1?$CUtlVector@VCFaceMacroTextureInfo@@V?$CUtlMemory@VCFaceMacroTextureInfo@@H@@@@QAE@XZ 1002de80 f i bsplib.obj
 0001:0002ce80       ??1?$CUtlVector@Udoccluderpolydata_t@@V?$CUtlMemory@Udoccluderpolydata_t@@H@@@@QAE@XZ 1002de80 f i bsplib.obj
 0001:0002ce80       ??1?$CUtlVector@PADV?$CUtlMemory@PADH@@@@QAE@XZ 1002de80 f i bsplib.obj
 0001:0002ce80       ??1?$CUtlVector@EV?$CUtlMemory@EH@@@@QAE@XZ 1002de80 f i bsplib.obj
 0001:0002ce80       ??1?$CUtlVector@Utexinfo_s@@V?$CUtlMemory@Utexinfo_s@@H@@@@QAE@XZ 1002de80 f i bsplib.obj
 0001:0002ce80       ??1?$CUtlVector@Udfaceid_t@@V?$CUtlMemory@Udfaceid_t@@H@@@@QAE@XZ 1002de80 f i bsplib.obj
 0001:0002ce80       ??1?$CUtlVector@VCSPVert@@V?$CUtlMemory@VCSPVert@@H@@@@QAE@XZ 1002de80 f i scratchpad3d.obj
 0001:0002ce80       ??1?$CUtlVector@Udleafambientindex_t@@V?$CUtlMemory@Udleafambientindex_t@@H@@@@QAE@XZ 1002de80 f i bsplib.obj
 0001:0002ce80       ??1?$CUtlVector@Vddispinfo_t@@V?$CUtlMemory@Vddispinfo_t@@H@@@@QAE@XZ 1002de80 f i bsplib.obj
 0001:0002ce80       ??1?$CUtlVector@VCWUStatus@@V?$CUtlMemory@VCWUStatus@@H@@@@QAE@XZ 1002de80 f i vmpi:vmpi_distribute_tracker.obj
 0001:0002ce80       ??1?$CUtlVector@PAXV?$CUtlMemory@PAXH@@@@QAE@XZ 1002de80 f i vmpi:vmpi.obj
 0001:0002cef0       ?RemoveAll@?$CUtlLinkedList@VCWorkUnitInfo@@H$0A@HV?$CUtlMemory@U?$UtlLinkedListElem_t@VCWorkUnitInfo@@H@@H@@@@QAEXXZ 1002def0 f i vmpi:vmpi_distribute_work_default.obj
 0001:0002cef0       ?RemoveAll@?$CUtlLinkedList@_KH$0A@HV?$CUtlMemory@U?$UtlLinkedListElem_t@_KH@@H@@@@QAEXXZ 1002def0 f i vmpi:vmpi_distribute_work_default.obj
 0001:0002cf50       ?Init@CDistributor_DefaultWorker@@UAEXPAVCDSInfo@@@Z 1002df50 f i vmpi:vmpi_distribute_work_default.obj
 0001:0002cf60       ?Grow@?$CUtlMemory@VCWorkUnitEvent@@H@@QAEXH@Z 1002df60 f i vmpi:vmpi_distribute_tracker.obj
 0001:0002cf60       ?Grow@?$CUtlMemory@U?$UtlLinkedListElem_t@_KH@@H@@QAEXH@Z 1002df60 f i vmpi:vmpi_distribute_work_default.obj
 0001:0002cf60       ?Grow@?$CUtlMemory@U?$UtlLinkedListElem_t@VCWorkUnitInfo@@H@@H@@QAEXH@Z 1002df60 f i vmpi:vmpi_distribute_work_default.obj
 0001:0002cf60       ?Grow@?$CUtlMemory@VCWorkerInfo@CWorkUnitWalker@@H@@QAEXH@Z 1002df60 f i vmpi:vmpi_distribute_work_sdk.obj
 0001:0002d010       ?AllocInternal@?$CUtlLinkedList@VCWorkUnitInfo@@H$0A@HV?$CUtlMemory@U?$UtlLinkedListElem_t@VCWorkUnitInfo@@H@@H@@@@IAEH_N@Z 1002e010 f i vmpi:vmpi_distribute_work_default.obj
 0001:0002d010       ?AllocInternal@?$CUtlLinkedList@_KH$0A@HV?$CUtlMemory@U?$UtlLinkedListElem_t@_KH@@H@@@@IAEH_N@Z 1002e010 f i vmpi:vmpi_distribute_work_default.obj
 0001:0002d110       ?Purge@?$CUtlLinkedList@_KH$0A@HV?$CUtlMemory@U?$UtlLinkedListElem_t@_KH@@H@@@@QAEXXZ 1002e110 f i vmpi:vmpi_distribute_work_default.obj
 0001:0002d160       ?Unlink@?$CUtlLinkedList@_KH$0A@HV?$CUtlMemory@U?$UtlLinkedListElem_t@_KH@@H@@@@QAEXH@Z 1002e160 f i vmpi:vmpi_distribute_work_default.obj
 0001:0002d160       ?Unlink@?$CUtlLinkedList@VCWorkUnitInfo@@H$0A@HV?$CUtlMemory@U?$UtlLinkedListElem_t@VCWorkUnitInfo@@H@@H@@@@QAEXH@Z 1002e160 f i vmpi:vmpi_distribute_work_default.obj
 0001:0002d1e0       ?ExpandWindow@?$CVisibleWindowVectorT@EV?$CVisibleWindowVector@E@@@@QAEX_KABE@Z 1002e1e0 f i vmpi:vmpi_distribute_work_default.obj
 0001:0002d280       ?PrepareForWorkUnits@CWorkUnitsTracker@@QAEX_K@Z 1002e280 f   vmpi:vmpi_distribute_work_default.obj
 0001:0002d330       ?WorkUnitFinished@CWorkUnitsTracker@@QAE_K_K@Z 1002e330 f   vmpi:vmpi_distribute_work_default.obj
 0001:0002d490       ?CreateWUDistributor_DefaultWorker@@YAPAVIWorkUnitDistributorWorker@@XZ 1002e490 f   vmpi:vmpi_distribute_work_default.obj
 0001:0002d4e0       ?Release@CDistributor_DefaultWorker@@UAEXXZ 1002e4e0 f i vmpi:vmpi_distribute_work_default.obj
 0001:0002d530       ?GetNextWorkUnit@CDistributor_DefaultWorker@@UAE_NPA_K@Z 1002e530 f i vmpi:vmpi_distribute_work_default.obj
 0001:0002d5c0       ??0CDistributor_DefaultMaster@@QAE@XZ 1002e5c0 f i vmpi:vmpi_distribute_work_default.obj
 0001:0002d630       ?HandlePacket@CDistributor_DefaultMaster@@UAE_NPAVMessageBuffer@@H_N@Z 1002e630 f i vmpi:vmpi_distribute_work_default.obj
 0001:0002d640       ?Grow@?$CUtlMemory@U?$UtlRBTreeNode_t@UNode_t@?$CUtlMap@PAV?$CUtlLinkedList@_KH$0A@HV?$CUtlMemory@U?$UtlLinkedListElem_t@_KH@@H@@@@HG@@G@@G@@QAEXH@Z 1002e640 f i vmpi:vmpi_distribute_work_default.obj
 0001:0002d700       ?Links@?$CUtlRBTree@UNode_t@?$CUtlMap@PAV?$CUtlLinkedList@_KH$0A@HV?$CUtlMemory@U?$UtlLinkedListElem_t@_KH@@H@@@@HG@@GVCKeyLess@2@V?$CUtlMemory@U?$UtlRBTreeNode_t@UNode_t@?$CUtlMap@PAV?$CUtlLinkedList@_KH$0A@HV?$CUtlMemory@U?$UtlLinkedListElem_t@_KH@@H@@@@HG@@G@@G@@@@IBEABU?$UtlRBTreeLinks_t@G@@G@Z 1002e700 f i vmpi:vmpi_distribute_work_default.obj
 0001:0002d760       ?Get@?$CVisibleWindowVectorT@VCWULookupInfo@@V?$CVisibleWindowVector@VCWULookupInfo@@@@@@QAEAAVCWULookupInfo@@_K@Z 1002e760 f i vmpi:vmpi_distribute_work_default.obj
 0001:0002d7b0       ?EnsureCapacity@?$CUtlVector@VCWULookupInfo@@V?$CUtlMemory@VCWULookupInfo@@H@@@@QAEXH@Z 1002e7b0 f i vmpi:vmpi_distribute_work_default.obj
 0001:0002d810       ?RemoveMultiple@?$CUtlVector@VCWULookupInfo@@V?$CUtlMemory@VCWULookupInfo@@H@@@@QAEXHH@Z 1002e810 f i vmpi:vmpi_distribute_work_default.obj
 0001:0002d860       ?InsertMultipleBefore@?$CUtlVector@VCWULookupInfo@@V?$CUtlMemory@VCWULookupInfo@@H@@@@QAEHHHPBVCWULookupInfo@@@Z 1002e860 f i vmpi:vmpi_distribute_work_default.obj
 0001:0002d940       ?NewNode@?$CUtlRBTree@UNode_t@?$CUtlMap@PAV?$CUtlLinkedList@_KH$0A@HV?$CUtlMemory@U?$UtlLinkedListElem_t@_KH@@H@@@@HG@@GVCKeyLess@2@V?$CUtlMemory@U?$UtlRBTreeNode_t@UNode_t@?$CUtlMap@PAV?$CUtlLinkedList@_KH$0A@HV?$CUtlMemory@U?$UtlLinkedListElem_t@_KH@@H@@@@HG@@G@@G@@@@QAEGXZ 1002e940 f i vmpi:vmpi_distribute_work_default.obj
 0001:0002da30       ?RotateLeft@?$CUtlRBTree@UNode_t@?$CUtlMap@PAV?$CUtlLinkedList@_KH$0A@HV?$CUtlMemory@U?$UtlLinkedListElem_t@_KH@@H@@@@HG@@GVCKeyLess@2@V?$CUtlMemory@U?$UtlRBTreeNode_t@UNode_t@?$CUtlMap@PAV?$CUtlLinkedList@_KH$0A@HV?$CUtlMemory@U?$UtlLinkedListElem_t@_KH@@H@@@@HG@@G@@G@@@@IAEXG@Z 1002ea30 f i vmpi:vmpi_distribute_work_default.obj
 0001:0002db20       ?RotateRight@?$CUtlRBTree@UNode_t@?$CUtlMap@PAV?$CUtlLinkedList@_KH$0A@HV?$CUtlMemory@U?$UtlLinkedListElem_t@_KH@@H@@@@HG@@GVCKeyLess@2@V?$CUtlMemory@U?$UtlRBTreeNode_t@UNode_t@?$CUtlMap@PAV?$CUtlLinkedList@_KH$0A@HV?$CUtlMemory@U?$UtlLinkedListElem_t@_KH@@H@@@@HG@@G@@G@@@@IAEXG@Z 1002eb20 f i vmpi:vmpi_distribute_work_default.obj
 0001:0002dd40       ?FindPartitionByWorker@CDistributor_DefaultMaster@@QAEHH@Z 1002ed40 f i vmpi:vmpi_distribute_work_default.obj
 0001:0002dd70       ?SendPartitionToWorker@CDistributor_DefaultMaster@@QAEXPAVCPartitionInfo@@H@Z 1002ed70 f i vmpi:vmpi_distribute_work_default.obj
 0001:0002de10       ?ShrinkWindow@?$CVisibleWindowVectorT@VCWULookupInfo@@V?$CVisibleWindowVector@VCWULookupInfo@@@@@@QAEX_K@Z 1002ee10 f i vmpi:vmpi_distribute_work_default.obj
 0001:0002de70       ?FirstInorder@?$CUtlRBTree@UNode_t@?$CUtlMap@PAV?$CUtlLinkedList@_KH$0A@HV?$CUtlMemory@U?$UtlLinkedListElem_t@_KH@@H@@@@HG@@GVCKeyLess@2@V?$CUtlMemory@U?$UtlRBTreeNode_t@UNode_t@?$CUtlMap@PAV?$CUtlLinkedList@_KH$0A@HV?$CUtlMemory@U?$UtlLinkedListElem_t@_KH@@H@@@@HG@@G@@G@@@@QBEGXZ 1002ee70 f i vmpi:vmpi_distribute_work_default.obj
 0001:0002df20       ?FindInsertionPosition@?$CUtlRBTree@UNode_t@?$CUtlMap@PAV?$CUtlLinkedList@_KH$0A@HV?$CUtlMemory@U?$UtlLinkedListElem_t@_KH@@H@@@@HG@@GVCKeyLess@2@V?$CUtlMemory@U?$UtlRBTreeNode_t@UNode_t@?$CUtlMap@PAV?$CUtlLinkedList@_KH$0A@HV?$CUtlMemory@U?$UtlLinkedListElem_t@_KH@@H@@@@HG@@G@@G@@@@IAEXABUNode_t@?$CUtlMap@PAV?$CUtlLinkedList@_KH$0A@HV?$CUtlMemory@U?$UtlLinkedListElem_t@_KH@@H@@@@HG@@AAGAA_N@Z 1002ef20 f i vmpi:vmpi_distribute_work_default.obj
 0001:0002e030       ?RemoveAll@?$CUtlRBTree@UNode_t@?$CUtlMap@PAV?$CUtlLinkedList@_KH$0A@HV?$CUtlMemory@U?$UtlLinkedListElem_t@_KH@@H@@@@HG@@GVCKeyLess@2@V?$CUtlMemory@U?$UtlRBTreeNode_t@UNode_t@?$CUtlMap@PAV?$CUtlLinkedList@_KH$0A@HV?$CUtlMemory@U?$UtlLinkedListElem_t@_KH@@H@@@@HG@@G@@G@@@@QAEXXZ 1002f030 f i vmpi:vmpi_distribute_work_default.obj
 0001:0002e0f0       ?InsertRebalance@?$CUtlRBTree@UNode_t@?$CUtlMap@PAV?$CUtlLinkedList@_KH$0A@HV?$CUtlMemory@U?$UtlLinkedListElem_t@_KH@@H@@@@HG@@GVCKeyLess@2@V?$CUtlMemory@U?$UtlRBTreeNode_t@UNode_t@?$CUtlMap@PAV?$CUtlLinkedList@_KH$0A@HV?$CUtlMemory@U?$UtlLinkedListElem_t@_KH@@H@@@@HG@@G@@G@@@@IAEXG@Z 1002f0f0 f i vmpi:vmpi_distribute_work_default.obj
 0001:0002e6d0       ?DisconnectHandler@CDistributor_DefaultMaster@@UAEXH@Z 1002f6d0 f i vmpi:vmpi_distribute_work_default.obj
 0001:0002e720       ?ExpandWindow@?$CVisibleWindowVectorT@VCWULookupInfo@@V?$CVisibleWindowVector@VCWULookupInfo@@@@@@QAEX_K@Z 1002f720 f i vmpi:vmpi_distribute_work_default.obj
 0001:0002e760       ?DistributeWork_Master@CDistributor_DefaultMaster@@UAEXPAVCDSInfo@@@Z 1002f760 f i vmpi:vmpi_distribute_work_default.obj
 0001:0002e830       ??_GCPartitionInfo@@QAEPAXI@Z 1002f830 f i vmpi:vmpi_distribute_work_default.obj
 0001:0002e880       ?Remove@?$CUtlLinkedList@PAVCPartitionInfo@@H$0A@HV?$CUtlMemory@U?$UtlLinkedListElem_t@PAVCPartitionInfo@@H@@H@@@@QAEXH@Z 1002f880 f i vmpi:vmpi_distribute_work_default.obj
 0001:0002e8b0       ??1CDistributor_DefaultMaster@@QAE@XZ 1002f8b0 f i vmpi:vmpi_distribute_work_default.obj
 0001:0002e930       ?AddToTail@?$CUtlLinkedList@_KH$0A@HV?$CUtlMemory@U?$UtlLinkedListElem_t@_KH@@H@@@@QAEHAB_K@Z 1002f930 f i vmpi:vmpi_distribute_work_default.obj
 0001:0002e990       ?AddPartition@CDistributor_DefaultMaster@@QAEPAVCPartitionInfo@@H@Z 1002f990 f i vmpi:vmpi_distribute_work_default.obj
 0001:0002e9f0       ?SplitWUsPartition@CDistributor_DefaultMaster@@QAE_NPAVCPartitionInfo@@PAPAV2@1HH@Z 1002f9f0 f i vmpi:vmpi_distribute_work_default.obj
 0001:0002eba0       ?HandlePacket@CDistributor_DefaultWorker@@UAE_NPAVMessageBuffer@@H_N@Z 1002fba0 f i vmpi:vmpi_distribute_work_default.obj
 0001:0002ec70       ?CreateWUDistributor_DefaultMaster@@YAPAVIWorkUnitDistributorMaster@@XZ 1002fc70 f   vmpi:vmpi_distribute_work_default.obj
 0001:0002ec90       ?Release@CDistributor_DefaultMaster@@UAEXXZ 1002fc90 f i vmpi:vmpi_distribute_work_default.obj
 0001:0002ecb0       ?FindSoonestPartition@CDistributor_DefaultMaster@@QAEHXZ 1002fcb0 f i vmpi:vmpi_distribute_work_default.obj
 0001:0002eea0       ?AssignWUsToWorker@CDistributor_DefaultMaster@@QAEXH@Z 1002fea0 f i vmpi:vmpi_distribute_work_default.obj
 0001:0002f520       ?OnWorkerReady@CDistributor_DefaultMaster@@UAEXH@Z 10030520 f i vmpi:vmpi_distribute_work_default.obj
 0001:0002f530       ?HandleWorkUnitResults@CDistributor_DefaultMaster@@UAE_N_K@Z 10030530 f i vmpi:vmpi_distribute_work_default.obj
 0001:0002f770       ?Next@?$CUtlMemory@U?$UtlLinkedListElem_t@_K_K@@_K@@QBE?AVIterator_t@1@ABV21@@Z 10030770 f i vmpi:vmpi_distribute_work_sdk.obj
 0001:0002f7b0       ?RemoveAll@?$CUtlLinkedList@_K_K$0A@_KV?$CUtlMemory@U?$UtlLinkedListElem_t@_K_K@@_K@@@@QAEXXZ 100307b0 f i vmpi:vmpi_distribute_work_sdk.obj
 0001:0002f840       ??0CShuffledWorkUnitWalker@@QAE@XZ 10030840 f i vmpi:vmpi_distribute_work_sdk.obj
 0001:0002f8e0       ??1CShuffledWorkUnitWalker@@QAE@XZ 100308e0 f i vmpi:vmpi_distribute_work_sdk.obj
 0001:0002f950       ?ReadWUIndex@CDSInfo@@QAEXPA_KPAVMessageBuffer@@@Z 10030950 f i vmpi:vmpi_distribute_work_sdk.obj
 0001:0002f9d0       ?RequestShuffle@CDistributor_SDKWorker@@UAEXXZ 100309d0 f i vmpi:vmpi_distribute_work_sdk.obj
 0001:0002fa10       ?GetNextWorkUnit@CWorkUnitWalker@@QAE_NHPA_KPA_N@Z 10030a10 f i vmpi:vmpi_distribute_work_sdk.obj
 0001:0002fae0       ?Thread_GetNextWorkUnit@CShuffledWorkUnitWalker@@QAE_NHPA_K@Z 10030ae0 f i vmpi:vmpi_distribute_work_sdk.obj
 0001:0002fc00       ?GetNextWorkUnit@CDistributor_SDKWorker@@UAE_NPA_K@Z 10030c00 f i vmpi:vmpi_distribute_work_sdk.obj
 0001:0002fc30       ?NoteLocalWorkUnitCompleted@CDistributor_SDKWorker@@UAEX_K@Z 10030c30 f i vmpi:vmpi_distribute_work_sdk.obj
 0001:0002fc80       ?AllocInternal@?$CUtlLinkedList@_K_K$0A@_KV?$CUtlMemory@U?$UtlLinkedListElem_t@_K_K@@_K@@@@IAE_K_N@Z 10030c80 f i vmpi:vmpi_distribute_work_sdk.obj
 0001:0002fdd0       ?GetShuffleCRC@CShuffledWorkUnitWalker@@QAEKXZ 10030dd0 f i vmpi:vmpi_distribute_work_sdk.obj
 0001:0002fed0       ?Unlink@?$CUtlLinkedList@_K_K$0A@_KV?$CUtlMemory@U?$UtlLinkedListElem_t@_K_K@@_K@@@@QAEX_K@Z 10030ed0 f i vmpi:vmpi_distribute_work_sdk.obj
 0001:0002ff90       ?Init@CWorkUnitWalker@@QAEX_K00@Z 10030f90 f i vmpi:vmpi_distribute_work_sdk.obj
 0001:00030040       ?Shuffle@CShuffledWorkUnitWalker@@QAEXH@Z 10031040 f i vmpi:vmpi_distribute_work_sdk.obj
 0001:00030180       ?Thread_NoteWorkUnitCompleted@CShuffledWorkUnitWalker@@QAEX_K@Z 10031180 f i vmpi:vmpi_distribute_work_sdk.obj
 0001:00030220       ?HandlePacket@CDistributor_SDKWorker@@UAE_NPAVMessageBuffer@@H_N@Z 10031220 f i vmpi:vmpi_distribute_work_sdk.obj
 0001:00030340       ??0CDistributor_SDKMaster@@QAE@XZ 10031340 f i vmpi:vmpi_distribute_work_sdk.obj
 0001:000303c0       ?WriteWUIndex@CDSInfo@@QAEX_KPAVMessageBuffer@@@Z 100313c0 f i vmpi:vmpi_distribute_work_sdk.obj
 0001:00030440       ?RequestShuffle@CDistributor_SDKMaster@@UAEXXZ 10031440 f i vmpi:vmpi_distribute_work_sdk.obj
 0001:00030450       ?HandlePacket@CDistributor_SDKMaster@@UAE_NPAVMessageBuffer@@H_N@Z 10031450 f i vmpi:vmpi_distribute_work_sdk.obj
 0001:00030480       ?Thread_IsWorkUnitCompleted@CShuffledWorkUnitWalker@@QAE_N_K@Z 10031480 f i vmpi:vmpi_distribute_work_sdk.obj
 0001:000304e0       ?Master_WorkerThread@CDistributor_SDKMaster@@QAEXH@Z 100314e0 f i vmpi:vmpi_distribute_work_sdk.obj
 0001:00030600       ?BuildWUsCompletedMessage@CDistributor_SDKMaster@@QAEHAAV?$CUtlVector@_KV?$CUtlMemory@_KH@@@@AAVMessageBuffer@@@Z 10031600 f i vmpi:vmpi_distribute_work_sdk.obj
 0001:00030660       ?Master_WorkerThread_Static@CDistributor_SDKMaster@@SAXHPAX@Z 10031660 f i vmpi:vmpi_distribute_work_sdk.obj
 0001:00030670       ?DisconnectHandler@CDistributor_SDKMaster@@UAEXH@Z 10031670 f i vmpi:vmpi_distribute_work_sdk.obj
 0001:000306d0       ?InsertBefore@?$CUtlVector@GV?$CUtlMemory@GH@@@@QAEHHABG@Z 100316d0 f i vmpi:vmpi_distribute_work_sdk.obj
 0001:00030740       ?OnWorkerReady@CDistributor_SDKMaster@@UAEXH@Z 10031740 f i vmpi:vmpi_distribute_work_sdk.obj
 0001:000307e0       ?Shuffle@CDistributor_SDKMaster@@QAEXXZ 100317e0 f i vmpi:vmpi_distribute_work_sdk.obj
 0001:00030a70       ?Thread_HandleWorkUnitResults@CDistributor_SDKMaster@@QAE_N_K@Z 10031a70 f i vmpi:vmpi_distribute_work_sdk.obj
 0001:00030ad0       ?CreateWUDistributor_SDKWorker@@YAPAVIWorkUnitDistributorWorker@@XZ 10031ad0 f   vmpi:vmpi_distribute_work_sdk.obj
 0001:00030b10       ?AddToTail@?$CUtlLinkedList@_K_K$0A@_KV?$CUtlMemory@U?$UtlLinkedListElem_t@_K_K@@_K@@@@QAE_KAB_K@Z 10031b10 f i vmpi:vmpi_distribute_work_sdk.obj
 0001:00030bb0       ?Init@CShuffledWorkUnitWalker@@QAEX_KPAVIShuffleRequester@@@Z 10031bb0 f i vmpi:vmpi_distribute_work_sdk.obj
 0001:00030d20       ?DistributeWork_Master@CDistributor_SDKMaster@@UAEXPAVCDSInfo@@@Z 10031d20 f i vmpi:vmpi_distribute_work_sdk.obj
 0001:00030ee0       ?HandleWorkUnitResults@CDistributor_SDKMaster@@UAE_N_K@Z 10031ee0 f i vmpi:vmpi_distribute_work_sdk.obj
 0001:00030f00       ?Init@CDistributor_SDKWorker@@UAEXPAVCDSInfo@@@Z 10031f00 f i vmpi:vmpi_distribute_work_sdk.obj
 0001:00030f30       ?Release@CDistributor_SDKWorker@@UAEXXZ 10031f30 f i vmpi:vmpi_distribute_work_sdk.obj
 0001:00030f50       ?CreateWUDistributor_SDKMaster@@YAPAVIWorkUnitDistributorMaster@@XZ 10031f50 f   vmpi:vmpi_distribute_work_sdk.obj
 0001:00030f70       ?Release@CDistributor_SDKMaster@@UAEXXZ 10031f70 f i vmpi:vmpi_distribute_work_sdk.obj
 0001:000310d0       ?FlushAckChunks@CWorkerMulticastListener@@QAEXQAY01GAAHAAK@Z 100320d0 f i vmpi:vmpi_filesystem_worker.obj
 0001:00031140       ?AddAckChunk@CWorkerMulticastListener@@QAEXQAY01GAAHAAKHH@Z 10032140 f i vmpi:vmpi_filesystem_worker.obj
 0001:00031190       ?ShowSDKWorkerMsg@CWorkerMulticastListener@@QAAXPBDZZ 10032190 f i vmpi:vmpi_filesystem_worker.obj
 0001:000311f0       ?Init@CWorkerVMPIFileSystem@@UAE?AW4InitReturnVal_t@@XZ 100321f0 f   vmpi:vmpi_filesystem_worker.obj
 0001:00031230       ?CreateVirtualFile@CWorkerVMPIFileSystem@@UAEXPBDPBXH@Z 10032230 f   vmpi:vmpi_filesystem_worker.obj
 0001:00031240       ?GetFileTime@CWorkerVMPIFileSystem@@UAEJPBD0@Z 10032240 f   vmpi:vmpi_filesystem_worker.obj
 0001:00031260       ?IsFileWritable@CWorkerVMPIFileSystem@@UAE_NPBD0@Z 10032260 f   vmpi:vmpi_filesystem_worker.obj
 0001:00031280       ?SetFileWritable@CWorkerVMPIFileSystem@@UAE_NPBD_N0@Z 10032280 f   vmpi:vmpi_filesystem_worker.obj
 0001:000312a0       ?LoadModule@CWorkerVMPIFileSystem@@UAEPAVCSysModule@@PBD0_N@Z 100322a0 f   vmpi:vmpi_filesystem_worker.obj
 0001:000312b0       ?UnloadModule@CWorkerVMPIFileSystem@@UAEXPAVCSysModule@@@Z 100322b0 f   vmpi:vmpi_filesystem_worker.obj
 0001:000312c0       ?FindWorkerFile@CWorkerMulticastListener@@QAEPAVCWorkerFile@@PBD0@Z 100322c0 f i vmpi:vmpi_filesystem_worker.obj
 0001:00031330       ?FindWorkerFile@CWorkerMulticastListener@@QAEPAVCWorkerFile@@H@Z 10032330 f i vmpi:vmpi_filesystem_worker.obj
 0001:00031370       ?InsertBefore@?$CUtlVector@VCFileResponse@@V?$CUtlMemory@VCFileResponse@@H@@@@QAEHHABVCFileResponse@@@Z 10032370 f i vmpi:vmpi_filesystem_worker.obj
 0001:000313f0       ?PurgeAndDeleteElements@?$CUtlLinkedList@PAVCWorkerFile@@H$0A@HV?$CUtlMemory@U?$UtlLinkedListElem_t@PAVCWorkerFile@@H@@H@@@@QAEXXZ 100323f0 f i vmpi:vmpi_filesystem_worker.obj
 0001:000314a0       ?CheckFileChunkPackets@CWorkerMulticastListener@@QAEHPADH@Z 100324a0 f i vmpi:vmpi_filesystem_worker.obj
 0001:00031560       ?Term@CWorkerVMPIFileSystem@@UAEXXZ 10032560 f   vmpi:vmpi_filesystem_worker.obj
 0001:00031570       ?RequestFileFromServer@CWorkerMulticastListener@@QAEPAVCWorkerFile@@PBD0@Z 10032570 f i vmpi:vmpi_filesystem_worker.obj
 0001:000318f0       ?ListenFor@CWorkerMulticastListener@@QAEPAVCWorkerFile@@PBD0@Z 100328f0 f i vmpi:vmpi_filesystem_worker.obj
 0001:00031f10       ??0CWorkerVMPIFileSystem@@QAE@XZ 10032f10 f i vmpi:vmpi_filesystem_worker.obj
 0001:00031f80       ?Open@CWorkerVMPIFileSystem@@UAEPAXPBD00@Z 10032f80 f   vmpi:vmpi_filesystem_worker.obj
 0001:00032050       ?HandleFileSystemPacket@CWorkerVMPIFileSystem@@UAE_NPAVMessageBuffer@@HH@Z 10033050 f   vmpi:vmpi_filesystem_worker.obj
 0001:00032160       ?CreateWorkerVMPIFileSystem@@YAPAVCBaseVMPIFileSystem@@XZ 10033160 f   vmpi:vmpi_filesystem_worker.obj
 0001:000321b0       ??_ECWorkerVMPIFileSystem@@UAEPAXI@Z 100331b0 f i vmpi:vmpi_filesystem_worker.obj
 0001:000321b0       ??_GCWorkerVMPIFileSystem@@UAEPAXI@Z 100331b0 f i vmpi:vmpi_filesystem_worker.obj
 0001:00032210       _deflateInit_              10033210 f   vmpi:deflate.obj
 0001:00032240       _deflateInit2_             10033240 f   vmpi:deflate.obj
 0001:00032440       _deflateReset              10033440 f   vmpi:deflate.obj
 0001:000324c0       _deflate                   100334c0 f   vmpi:deflate.obj
 0001:00032820       _deflateEnd                10033820 f   vmpi:deflate.obj
 0001:00033550       _inflateReset              10034550 f   vmpi:inflate.obj
 0001:000335a0       _inflateEnd                100345a0 f   vmpi:inflate.obj
 0001:000335f0       _inflateInit2_             100345f0 f   vmpi:inflate.obj
 0001:00033700       _inflateInit_              10034700 f   vmpi:inflate.obj
 0001:00033720       _inflate                   10034720 f   vmpi:inflate.obj
 0001:00033b50       _zcalloc                   10034b50 f   vmpi:zutil.obj
 0001:00033b70       _zcfree                    10034b70 f   vmpi:zutil.obj
 0001:00033b80       _adler32                   10034b80 f   vmpi:adler32.obj
 0001:00033cb0       __tr_init                  10034cb0 f   vmpi:trees.obj
 0001:00033da0       __tr_stored_block          10034da0 f   vmpi:trees.obj
 0001:00033e40       __tr_align                 10034e40 f   vmpi:trees.obj
 0001:00034050       __tr_flush_block           10035050 f   vmpi:trees.obj
 0001:00035700       _inflate_blocks_reset      10036700 f   vmpi:infblock.obj
 0001:00035780       _inflate_blocks_new        10036780 f   vmpi:infblock.obj
 0001:00035820       _inflate_blocks            10036820 f   vmpi:infblock.obj
 0001:00036470       _inflate_blocks_free       10037470 f   vmpi:infblock.obj
 0001:000364b0       _inflate_codes_new         100374b0 f   vmpi:infcodes.obj
 0001:000364f0       _inflate_codes             100374f0 f   vmpi:infcodes.obj
 0001:00036bf0       _inflate_codes_free        10037bf0 f   vmpi:infcodes.obj
 0001:00036c10       _inflate_trees_bits        10037c10 f   vmpi:inftrees.obj
 0001:00037170       _inflate_trees_dynamic     10038170 f   vmpi:inftrees.obj
 0001:00037300       _inflate_trees_fixed       10038300 f   vmpi:inftrees.obj
 0001:00037330       _inflate_flush             10038330 f   vmpi:infutil.obj
 0001:00037470       _inflate_fast              10038470 f   vmpi:inffast.obj
 0001:000377d0       ?WriteUBitLong@old_bf_write@@QAEXIH_N@Z 100387d0 f i tier1:bitbuf.obj
 0001:00037860       ??0CBitWriteMasksInit@@QAE@XZ 10038860 f i tier1:bitbuf.obj
 0001:00037930       ?WriteByte@old_bf_write@@QAEXH@Z 10038930 f   tier1:bitbuf.obj
 0001:00037950       ?WriteWord@old_bf_write@@QAEXH@Z 10038950 f   tier1:bitbuf.obj
 0001:00037970       ??0old_bf_write@@QAE@PBDPAXHH@Z 10038970 f   tier1:bitbuf.obj
 0001:000379c0       ?WriteSBitLong@old_bf_write@@QAEXHH@Z 100389c0 f   tier1:bitbuf.obj
 0001:00037a50       ?WriteShort@old_bf_write@@QAEXH@Z 10038a50 f   tier1:bitbuf.obj
 0001:00037a70       ?WriteLong@old_bf_write@@QAEXJ@Z 10038a70 f   tier1:bitbuf.obj
 0001:00037a90       ?WriteString@old_bf_write@@QAE_NPBD@Z 10038a90 f   tier1:bitbuf.obj
 0001:00037b10       _ceil                      10038b10 f   LIBCMT:_ceil_pentium4_.obj
 0001:00037b50       __ceil_pentium4            10038b50 f   LIBCMT:_ceil_pentium4_.obj
 0001:00037c2d       __cfltcvt_init             10038c2d f   LIBCMT:_fpinit_.obj
 0001:00037c8d       __fpmath                   10038c8d f   LIBCMT:_fpinit_.obj
 0001:00037cb0       _floor                     10038cb0 f   LIBCMT:_floor_pentium4_.obj
 0001:00037cf0       __floor_pentium4           10038cf0 f   LIBCMT:_floor_pentium4_.obj
 0001:00037de0       _memset                    10038de0 f   LIBCMT:memset.obj
 0001:00037e60       _memcpy                    10038e60 f   LIBCMT:memcpy.obj
 0001:000381d0       _memmove                   100391d0 f   LIBCMT:memmove.obj
 0001:00038540       _strrchr                   10039540 f   LIBCMT:strrchr.obj
 0001:0003856d       _free                      1003956d f   LIBCMT:free.obj
 0001:000385a7       _malloc                    100395a7 f   LIBCMT:malloc.obj
 0001:0003863b       ??0_LocaleUpdate@@QAE@PAUlocaleinfo_struct@@@Z 1003963b f i LIBCMT:atof.obj
 0001:000386c2       __atof_l                   100396c2 f   LIBCMT:atof.obj
 0001:0003876d       _atof                      1003976d f   LIBCMT:atof.obj
 0001:00038780       _atol                      10039780 f   LIBCMT:atox.obj
 0001:00038796       _atoi                      10039796 f   LIBCMT:atox.obj
 0001:0003880f       _sscanf                    1003980f f   LIBCMT:sscanf.obj
 0001:00038831       ??1bad_alloc@std@@UAE@XZ   10039831 f i LIBCMT:new.obj
 0001:0003883c       ??_Ebad_alloc@std@@UAEPAXI@Z 1003983c f i LIBCMT:new.obj
 0001:0003883c       ??_Gbad_alloc@std@@UAEPAXI@Z 1003983c f i LIBCMT:new.obj
 0001:00038863       ??0bad_alloc@std@@QAE@ABV01@@Z 10039863 f i LIBCMT:new.obj
 0001:00038880       ??2@YAPAXI@Z               10039880 f   LIBCMT:new.obj
 0001:00038900       ??1type_info@@UAE@XZ       10039900 f   LIBCMT:typinfo.obj
 0001:00038910       ??_Gtype_info@@UAEPAXI@Z   10039910 f i LIBCMT:typinfo.obj
 0001:00038910       ??_Etype_info@@UAEPAXI@Z   10039910 f i LIBCMT:typinfo.obj
 0001:00038931       __purecall                 10039931 f   LIBCMT:purevirt.obj
 0001:00038960       __alloca_probe             10039960     LIBCMT:chkstk.obj
 0001:00038960       __chkstk                   10039960 f   LIBCMT:chkstk.obj
 0001:0003898b       ??3@YAXPAX@Z               1003998b f   LIBCMT:delete.obj
 0001:000389a0       __ftol2_sse                100399a0 f   LIBCMT:ftol2.obj
 0001:000389a9       __ftol2_pentium4           100399a9 f   LIBCMT:ftol2.obj
 0001:000389bc       __ftol2_sse_excpt          100399bc f   LIBCMT:ftol2.obj
 0001:000389d6       __ftol2                    100399d6 f   LIBCMT:ftol2.obj
 0001:00038ae0       _qsort                     10039ae0 f   LIBCMT:qsort.obj
 0001:00038d6b       __fclose_nolock            10039d6b f   LIBCMT:fclose.obj
 0001:00038dd8       _fclose                    10039dd8 f   LIBCMT:fclose.obj
 0001:00038e4c       __fwrite_nolock            10039e4c f   LIBCMT:fwrite.obj
 0001:00038fa3       _fwrite                    10039fa3 f   LIBCMT:fwrite.obj
 0001:0003901d       _fprintf                   1003a01d f   LIBCMT:fprintf.obj
 0001:00039129       ___iob_func                1003a129 f   LIBCMT:_file.obj
 0001:0003912f       ___initstdio               1003a12f f   LIBCMT:_file.obj
 0001:000391e0       ___endstdio                1003a1e0 f   LIBCMT:_file.obj
 0001:00039200       __lock_file                1003a200 f   LIBCMT:_file.obj
 0001:00039241       __lock_file2               1003a241 f   LIBCMT:_file.obj
 0001:00039273       __unlock_file              1003a273 f   LIBCMT:_file.obj
 0001:000392af       __unlock_file2             1003a2af f   LIBCMT:_file.obj
 0001:000392de       __fsopen                   1003a2de f   LIBCMT:fopen.obj
 0001:0003939a       _fopen                     1003a39a f   LIBCMT:fopen.obj
 0001:000393b1       __fseek_nolock             1003a3b1 f   LIBCMT:fseek.obj
 0001:0003943b       _fseek                     1003a43b f   LIBCMT:fseek.obj
 0001:000394b7       __fread_nolock_s           1003a4b7 f   LIBCMT:fread.obj
 0001:00039673       _fread_s                   1003a673 f   LIBCMT:fread.obj
 0001:00039701       _fread                     1003a701 f   LIBCMT:fread.obj
 0001:000397d4       ___onexitinit              1003a7d4 f   LIBCMT:onexit.obj
 0001:00039805       __onexit                   1003a805 f   LIBCMT:onexit.obj
 0001:00039841       _atexit                    1003a841 f   LIBCMT:onexit.obj
 0001:00039858       _sprintf                   1003a858 f   LIBCMT:sprintf.obj
 0001:000398f0       _strchr                    1003a8f0 f   LIBCMT:strchr.obj
 0001:000398f6       ___from_strstr_to_strchr   1003a8f6     LIBCMT:strchr.obj
 0001:000399b0       _strstr                    1003a9b0 f   LIBCMT:strstr.obj
 0001:00039b10       __stat64i32                1003ab10 f   LIBCMT:stati32.obj
 0001:00039f67       __initp_heap_handler       1003af67 f   LIBCMT:handler.obj
 0001:00039f76       ?_set_new_handler@@YAP6AHI@ZP6AHI@Z@Z 1003af76 f   LIBCMT:handler.obj
 0001:00039fad       __callnewh                 1003afad f   LIBCMT:handler.obj
 0001:00039fd5       ?_set_new_mode@@YAHH@Z     1003afd5 f   LIBCMT:new_mode.obj
 0001:0003a008       __validdrive               1003b008 f   LIBCMT:getcwd.obj
 0001:0003a062       __getdcwd_nolock           1003b062 f   LIBCMT:getcwd.obj
 0001:0003a186       __getcwd                   1003b186 f   LIBCMT:getcwd.obj
 0001:0003a1cf       __mkdir                    1003b1cf f   LIBCMT:mkdir.obj
 0001:0003a1cf       _mkdir                     1003b1cf f   LIBCMT:mkdir.obj
 0001:0003a210       __alloca_probe_16          1003b210 f   LIBCMT:alloca16.obj
 0001:0003a226       __alloca_probe_8           1003b226     LIBCMT:alloca16.obj
 0001:0003a23c       _printf                    1003b23c f   LIBCMT:printf.obj
 0001:0003a2e3       __get_printf_count_output  1003b2e3 f   LIBCMT:printf.obj
 0001:0003a2f9       __findclose                1003b2f9 f   LIBCMT:findfile.obj
 0001:0003a31f       ___time64_t_from_ft        1003b31f f   LIBCMT:findfi32.obj
 0001:0003a39b       __findfirst64i32           1003b39b f   LIBCMT:findfi32.obj
 0001:0003a4c2       __findnext64i32            1003b4c2 f   LIBCMT:findfi32.obj
 0001:0003a5f0       ___crtCorExitProcess       1003b5f0 f   LIBCMT:crt0dat.obj
 0001:0003a61b       ___crtExitProcess          1003b61b f   LIBCMT:crt0dat.obj
 0001:0003a633       __lockexit                 1003b633 f   LIBCMT:crt0dat.obj
 0001:0003a63c       __unlockexit               1003b63c f   LIBCMT:crt0dat.obj
 0001:0003a645       __init_pointers            1003b645 f   LIBCMT:crt0dat.obj
 0001:0003a678       __initterm_e               1003b678 f   LIBCMT:crt0dat.obj
 0001:0003a69c       __cinit                    1003b69c f   LIBCMT:crt0dat.obj
 0001:0003a873       _exit                      1003b873 f   LIBCMT:crt0dat.obj
 0001:0003a889       __exit                     1003b889 f   LIBCMT:crt0dat.obj
 0001:0003a89f       __cexit                    1003b89f f   LIBCMT:crt0dat.obj
 0001:0003a8ae       __amsg_exit                1003b8ae f   LIBCMT:crt0dat.obj
 0001:0003a8cc       _setvbuf                   1003b8cc f   LIBCMT:setvbuf.obj
 0001:0003a9c2       _strtok                    1003b9c2 f   LIBCMT:strtok.obj
 0001:0003aa7f       __vsnprintf_l              1003ba7f f   LIBCMT:vsnprint.obj
 0001:0003ab2b       __vsnprintf                1003bb2b f   LIBCMT:vsnprint.obj
 0001:0003ab50       __alldiv                   1003bb50 f   LIBCMT:lldiv.obj
 0001:0003ac00       __allmul                   1003bc00 f   LIBCMT:llmul.obj
 0001:0003ac34       __toupper_l                1003bc34 f   LIBCMT:toupper.obj
 0001:0003ad4a       _toupper                   1003bd4a f   LIBCMT:toupper.obj
 0001:0003ad76       __get_sys_err_msg          1003bd76 f i LIBCMT:strerror.obj
 0001:0003ad9e       _strerror                  1003bd9e f   LIBCMT:strerror.obj
 0001:0003ae08       __get_errno_from_oserr     1003be08 f   LIBCMT:dosmap.obj
 0001:0003ae4a       __errno                    1003be4a f   LIBCMT:dosmap.obj
 0001:0003ae5d       ___doserrno                1003be5d f   LIBCMT:dosmap.obj
 0001:0003ae70       __dosmaperr                1003be70 f   LIBCMT:dosmap.obj
 0001:0003ae93       __tempnam                  1003be93 f   LIBCMT:tempnam.obj
 0001:0003b0fe       __isdigit_l                1003c0fe f i LIBCMT:_ctype.obj
 0001:0003b14f       _isdigit                   1003c14f f i LIBCMT:_ctype.obj
 0001:0003b17d       __isxdigit_l               1003c17d f i LIBCMT:_ctype.obj
 0001:0003b1d3       _isxdigit                  1003c1d3 f i LIBCMT:_ctype.obj
 0001:0003b203       __isspace_l                1003c203 f i LIBCMT:_ctype.obj
 0001:0003b254       _isspace                   1003c254 f i LIBCMT:_ctype.obj
 0001:0003b282       _remove                    1003c282 f   LIBCMT:unlink.obj
 0001:0003b2b2       __unlink                   1003c2b2 f   LIBCMT:unlink.obj
 0001:0003b2bd       __getenv_helper_nolock     1003c2bd f   LIBCMT:getenv.obj
 0001:0003b344       _getenv                    1003c344 f   LIBCMT:getenv.obj
 0001:0003b3be       __dupenv_s                 1003c3be f   LIBCMT:getenv.obj
 0001:0003b495       __localtime64_s            1003c495 f   LIBCMT:loctim64.obj
 0001:0003b71d       __localtime64              1003c71d f   LIBCMT:loctim64.obj
 0001:0003b744       __time64                   1003c744 f   LIBCMT:time64.obj
 0001:0003b795       _vfscanf                   1003c795 f   LIBCMT:fscanf.obj
 0001:0003b88f       _fscanf                    1003c88f f   LIBCMT:fscanf.obj
 0001:0003b8af       __snprintf                 1003c8af f   LIBCMT:snprintf.obj
 0001:0003ba9d       __tmpnam_helper            1003ca9d f   LIBCMT:tmpfile.obj
 0001:0003bbd9       _tmpnam                    1003cbd9 f   LIBCMT:tmpfile.obj
 0001:0003bc00       __ftell_nolock             1003cc00 f   LIBCMT:ftell.obj
 0001:0003bd94       _ftell                     1003cd94 f   LIBCMT:ftell.obj
 0001:0003bdf9       __CRT_INIT@12              1003cdf9 f   LIBCMT:dllcrt0.obj
 0001:0003c053       __DllMainCRTStartup@12     1003d053 f   LIBCMT:dllcrt0.obj
 0001:0003c080       _acos                      1003d080 f   LIBCMT:_acos_.obj
 0001:0003c0c0       __CIacos                   1003d0c0 f   LIBCMT:_acos_.obj
 0001:0003c0fb       __CIacos_default           1003d0fb f   LIBCMT:_acos_.obj
 0001:0003c10f       __acos_default             1003d10f     LIBCMT:_acos_.obj
 0001:0003c1d0       _asin                      1003d1d0 f   LIBCMT:_asin_.obj
 0001:0003c210       __CIasin                   1003d210 f   LIBCMT:_asin_.obj
 0001:0003c24b       __CIasin_default           1003d24b f   LIBCMT:_asin_.obj
 0001:0003c25f       __asin_default             1003d25f     LIBCMT:_asin_.obj
 0001:0003c320       _fmod                      1003d320 f   LIBCMT:_87fmod_.obj
 0001:0003c32a       __CIfmod                   1003d32a f   LIBCMT:_87fmod_.obj
 0001:0003c350       _pow                       1003d350 f   LIBCMT:_pow_.obj
 0001:0003c390       __CIpow                    1003d390 f   LIBCMT:_pow_.obj
 0001:0003c3cb       __CIpow_default            1003d3cb f   LIBCMT:_pow_.obj
 0001:0003c3e4       __pow_default              1003d3e4     LIBCMT:_pow_.obj
 0001:0003c5da       __tolower_l                1003d5da f   LIBCMT:tolower.obj
 0001:0003c6ef       _tolower                   1003d6ef f   LIBCMT:tolower.obj
 0001:0003c720       _strncat                   1003d720 f   LIBCMT:strncat.obj
 0001:0003c855       __chdir                    1003d855 f   LIBCMT:chdir.obj
 0001:0003c980       _strncpy                   1003d980 f   LIBCMT:strncpy.obj
 0001:0003cab0       __allrem                   1003dab0 f   LIBCMT:llrem.obj
 0001:0003cb62       __strtod_l                 1003db62 f   LIBCMT:strtod.obj
 0001:0003cc85       _strtod                    1003dc85 f   LIBCMT:strtod.obj
 0001:0003cec7       _strtol                    1003dec7 f   LIBCMT:strtol.obj
 0001:0003cef2       _strtoul                   1003def2 f   LIBCMT:strtol.obj
 0001:0003cf1e       __wtol                     1003df1e f   LIBCMT:wtox.obj
 0001:0003cf34       __wtoi                     1003df34 f   LIBCMT:wtox.obj
 0001:0003cf3f       _fgets                     1003df3f f   LIBCMT:fgets.obj
 0001:0003d077       __access_s                 1003e077 f   LIBCMT:access.obj
 0001:0003d0f6       __access                   1003e0f6 f   LIBCMT:access.obj
 0001:0003d10e       _srand                     1003e10e f   LIBCMT:rand.obj
 0001:0003d120       _memchr                    1003e120 f   LIBCMT:memchr.obj
 0001:0003d3ca       __putenv                   1003e3ca f   LIBCMT:putenv.obj
 0001:0003d40f       __spawnv                   1003e40f f   LIBCMT:spawnv.obj
 0001:0003d460       __aullrem                  1003e460 f   LIBCMT:ullrem.obj
 0001:0003d4e0       __aulldiv                  1003e4e0 f   LIBCMT:ulldiv.obj
 0001:0003d550       __aulldvrm                 1003e550 f   LIBCMT:ulldvrm.obj
 0001:0003d5e5       _calloc                    1003e5e5 f   LIBCMT:calloc.obj
 0001:0003d625       ___libm_error_support      1003e625 f   LIBCMT:_libm_error_.obj
 0001:0003d8f1       __sse2_mathfcns_init       1003e8f1 f   LIBCMT:_mathfcns_.obj
 0001:0003d901       __ceil_default             1003e901 f   LIBCMT:_ceil_.obj
 0001:0003d9d9       __forcdecpt_l              1003e9d9 f   LIBCMT:cvt.obj
 0001:0003da4d       __cropzeros_l              1003ea4d f   LIBCMT:cvt.obj
 0001:0003dacf       __positive                 1003eacf f   LIBCMT:cvt.obj
 0001:0003daeb       __fassign_l                1003eaeb f   LIBCMT:cvt.obj
 0001:0003db2d       __fassign                  1003eb2d f   LIBCMT:cvt.obj
 0001:0003db66       __forcdecpt                1003eb66 f   LIBCMT:cvt.obj
 0001:0003db79       __cropzeros                1003eb79 f   LIBCMT:cvt.obj
 0001:0003dced       __cftoe_l                  1003eced f   LIBCMT:cvt.obj
 0001:0003ddb4       __cftoe                    1003edb4 f   LIBCMT:cvt.obj
 0001:0003ddd4       __cftoa_l                  1003edd4 f   LIBCMT:cvt.obj
 0001:0003e24d       __cftof_l                  1003f24d f   LIBCMT:cvt.obj
 0001:0003e30e       __cftog_l                  1003f30e f   LIBCMT:cvt.obj
 0001:0003e3fb       __cfltcvt_l                1003f3fb f   LIBCMT:cvt.obj
 0001:0003e483       __cfltcvt                  1003f483 f   LIBCMT:cvt.obj
 0001:0003e4a6       __initp_misc_cfltcvt_tab   1003f4a6 f   LIBCMT:cmiscdat.obj
 0001:0003e4c9       __setdefaultprecision      1003f4c9 f   LIBCMT:fp8.obj
 0001:0003e4f1       __floor_default            1003f4f1 f   LIBCMT:_floor_.obj
 0001:0003e5c9       __VEC_memzero              1003f5c9 f   LIBCMT:p4_memset.obj
 0001:0003e683       ___sse2_available_init     1003f683 f   LIBCMT:cpu_disp.obj
 0001:0003e693       __VEC_memcpy               1003f693 f   LIBCMT:p4_memcpy.obj
 0001:0003e796       __heap_init                1003f796 f   LIBCMT:heapinit.obj
 0001:0003e7b4       __heap_term                1003f7b4 f   LIBCMT:heapinit.obj
 0001:0003e7c8       __GET_RTERRMSG             1003f7c8 f   LIBCMT:crt0msg.obj
 0001:0003e7ee       __NMSG_WRITE               1003f7ee f   LIBCMT:crt0msg.obj
 0001:0003e99d       __FF_MSGBANNER             1003f99d f   LIBCMT:crt0msg.obj
 0001:0003ebf9       ___updatetmbcinfo          1003fbf9 f   LIBCMT:mbctype.obj
 0001:0003ed19       __setmbcp_nolock           1003fd19 f   LIBCMT:mbctype.obj
 0001:0003ef02       __setmbcp                  1003ff02 f   LIBCMT:mbctype.obj
 0001:0003f09c       ___initmbctable            1004009c f   LIBCMT:mbctype.obj
 0001:0003f0ba       ___addlocaleref            100400ba f   LIBCMT:localref.obj
 0001:0003f149       ___removelocaleref         10040149 f   LIBCMT:localref.obj
 0001:0003f1e2       ___freetlocinfo            100401e2 f   LIBCMT:localref.obj
 0001:0003f32d       __updatetlocinfoEx_nolock  1004032d f   LIBCMT:localref.obj
 0001:0003f37a       ___updatetlocinfo          1004037a f   LIBCMT:localref.obj
 0001:0003f3f3       __encoded_null             100403f3 f   LIBCMT:tidtable.obj
 0001:0003f3fc       ___crtTlsAlloc@4           100403fc f   LIBCMT:tidtable.obj
 0001:0003f405       ___set_flsgetvalue         10040405 f   LIBCMT:tidtable.obj
 0001:0003f439       __mtterm                   10040439 f   LIBCMT:tidtable.obj
 0001:0003f476       __initptd                  10040476 f   LIBCMT:tidtable.obj
 0001:0003f52a       __getptd_noexit            1004052a f   LIBCMT:tidtable.obj
 0001:0003f5a3       __getptd                   100405a3 f   LIBCMT:tidtable.obj
 0001:0003f5bd       __freefls@4                100405bd f   LIBCMT:tidtable.obj
 0001:0003f6ec       __freeptd                  100406ec f   LIBCMT:tidtable.obj
 0001:0003f75a       __mtinit                   1004075a f   LIBCMT:tidtable.obj
 0001:0003f8d5       __fltin2                   100408d5 f   LIBCMT:_cfin_.obj
 0001:0003f97c       __isctype_l                1004097c f   LIBCMT:isctype.obj
 0001:0003fa34       __initp_misc_invarg        10040a34 f   LIBCMT:invarg.obj
 0001:0003fa43       __call_reportfault         10040a43 f   LIBCMT:invarg.obj
 0001:0003fb6c       __invoke_watson            10040b6c f   LIBCMT:invarg.obj
 0001:0003fb91       __invalid_parameter        10040b91 f   LIBCMT:invarg.obj
 0001:0003fbbe       __invalid_parameter_noinfo 10040bbe f   LIBCMT:invarg.obj
 0001:0003fbce       @__security_check_cookie@4 10040bce f   LIBCMT:secchk.obj
 0001:0003fbdd       ___strgtold12_l            10040bdd f   LIBCMT:_strgtold_.obj
 0001:000402c0       _strlen                    100412c0 f   LIBCMT:strlen.obj
 0001:00040402       __input_l                  10041402 f   LIBCMT:input.obj
 0001:00041406       ??0exception@std@@QAE@ABQBDH@Z 10042406 f   LIBCMT:stdexcpt.obj
 0001:00041423       ?what@exception@std@@UBEPBDXZ 10042423 f   LIBCMT:stdexcpt.obj
 0001:00041430       ?_Copy_str@exception@std@@AAEXPBD@Z 10042430 f   LIBCMT:stdexcpt.obj
 0001:00041470       ?_Tidy@exception@std@@AAEXXZ 10042470 f   LIBCMT:stdexcpt.obj
 0001:0004148e       ??4exception@std@@QAEAAV01@ABV01@@Z 1004248e f   LIBCMT:stdexcpt.obj
 0001:000414c3       ??1exception@std@@UAE@XZ   100424c3 f   LIBCMT:stdexcpt.obj
 0001:000414ce       ??_Gexception@std@@UAEPAXI@Z 100424ce f i LIBCMT:stdexcpt.obj
 0001:000414ce       ??_Eexception@std@@UAEPAXI@Z 100424ce f i LIBCMT:stdexcpt.obj
 0001:000414f5       ??0exception@std@@QAE@ABV01@@Z 100424f5 f   LIBCMT:stdexcpt.obj
 0001:0004151a       __CxxThrowException@8      1004251a f   LIBCMT:throw.obj
 0001:00041566       ?_Type_info_dtor@type_info@@CAXPAV1@@Z 10042566 f   LIBCMT:typname.obj
 0001:000415e0       _strcmp                    100425e0 f   LIBCMT:strcmp.obj
 0001:00041668       _abort                     10042668 f   LIBCMT:abort.obj
 0001:0004169b       __set_abort_behavior       1004269b f   LIBCMT:abort.obj
 0001:000416bc       __initp_misc_purevirt      100426bc f   LIBCMT:inithelp.obj
 0001:000416cb       __close_nolock             100426cb f   LIBCMT:close.obj
 0001:00041767       __close                    10042767 f   LIBCMT:close.obj
 0001:0004182b       __fileno                   1004282b f   LIBCMT:fileno.obj
 0001:00041851       __freebuf                  10042851 f   LIBCMT:_freebuf.obj
 0001:00041882       __flush                    10042882 f   LIBCMT:fflush.obj
 0001:000418ea       __fflush_nolock            100428ea f   LIBCMT:fflush.obj
 0001:00041a0c       __flushall                 10042a0c f   LIBCMT:fflush.obj
 0001:00041a20       __SEH_prolog4              10042a20 f   LIBCMT:sehprolg4.obj
 0001:00041a65       __SEH_epilog4              10042a65 f   LIBCMT:sehprolg4.obj
 0001:00041a80       __except_handler4          10042a80 f   LIBCMT:chandler4.obj
 0001:00041c0f       __flsbuf                   10042c0f f   LIBCMT:_flsbuf.obj
 0001:00041d73       __write_nolock             10042d73 f   LIBCMT:write.obj
 0001:00042470       __write                    10043470 f   LIBCMT:write.obj
 0001:00042544       __stbuf                    10043544 f   LIBCMT:_sftbuf.obj
 0001:000425e0       __ftbuf                    100435e0 f   LIBCMT:_sftbuf.obj
 0001:00042695       __output_l                 10043695 f   LIBCMT:output.obj
 0001:00043241       __ioinit                   10044241 f   LIBCMT:ioinit.obj
 0001:00043486       __ioterm                   10044486 f   LIBCMT:ioinit.obj
 0001:000434d9       __malloc_crt               100444d9 f   LIBCMT:crtheap.obj
 0001:0004351e       __calloc_crt               1004451e f   LIBCMT:crtheap.obj
 0001:0004356a       __realloc_crt              1004456a f   LIBCMT:crtheap.obj
 0001:000435b8       __recalloc_crt             100445b8 f   LIBCMT:crtheap.obj
 0001:0004360a       __fcloseall                1004460a f   LIBCMT:closeall.obj
 0001:000436a6       __mtinitlocks              100446a6 f   LIBCMT:mlock.obj
 0001:000436f0       __mtdeletelocks            100446f0 f   LIBCMT:mlock.obj
 0001:00043747       __unlock                   10044747 f   LIBCMT:mlock.obj
 0001:0004375e       __mtinitlocknum            1004475e f   LIBCMT:mlock.obj
 0001:00043820       __lock                     10044820 f   LIBCMT:mlock.obj
 0001:00043853       __openfile                 10044853 f   LIBCMT:_open.obj
 0001:00043aea       __getstream                10044aea f   LIBCMT:stream.obj
 0001:00043c20       __local_unwind4            10044c20 f   LIBCMT:exsup4.obj
 0001:00043cf6       __seh_longjmp_unwind4@4    10044cf6 f   LIBCMT:exsup4.obj
 0001:00043d12       @_EH4_CallFilterFunc@8     10044d12 f   LIBCMT:exsup4.obj
 0001:00043d29       @_EH4_TransferToHandler@8  10044d29 f   LIBCMT:exsup4.obj
 0001:00043d42       @_EH4_GlobalUnwind2@8      10044d42 f   LIBCMT:exsup4.obj
 0001:00043d5b       @_EH4_LocalUnwind@16       10044d5b f   LIBCMT:exsup4.obj
 0001:00043d72       __lseek_nolock             10044d72 f   LIBCMT:lseek.obj
 0001:00043de7       __lseek                    10044de7 f   LIBCMT:lseek.obj
 0001:00043ebb       __filbuf                   10044ebb f   LIBCMT:_filbuf.obj
 0001:00043fdd       __read_nolock              10044fdd f   LIBCMT:read.obj
 0001:00044594       __read                     10045594 f   LIBCMT:read.obj
 0001:0004468a       _memcpy_s                  1004568a f   LIBCMT:memcpy_s.obj
 0001:000446ff       __msize                    100456ff f   LIBCMT:msize.obj
 0001:00044732       __fullpath                 10045732 f   LIBCMT:fullpath.obj
 0001:00044829       ___dtoxmode                10045829 f   LIBCMT:stat.obj
 0001:000448e6       __fstat64i32               100458e6 f   LIBCMT:fstati32.obj
 0001:0004536c       __sopen_helper             1004636c f   LIBCMT:open.obj
 0001:00045430       __sopen_s                  10046430 f   LIBCMT:open.obj
 0001:00045450       ___loctotime64_t           10046450 f   LIBCMT:dtoxtm64.obj
 0001:000456b7       __getdrive                 100466b7 f   LIBCMT:drive.obj
 0001:00045785       __mbctolower_l             10046785 f   LIBCMT:mbtolwr.obj
 0001:0004582b       __mbctolower               1004682b f   LIBCMT:mbtolwr.obj
 0001:0004583e       __mbspbrk_l                1004683e f   LIBCMT:mbspbrk.obj
 0001:00045903       __mbspbrk                  10046903 f   LIBCMT:mbspbrk.obj
 0001:0004591a       _strcpy_s                  1004691a f   LIBCMT:strcpy_s.obj
 0001:00045979       ?terminate@@YAXXZ          10046979 f   LIBCMT:hooks.obj
 0001:000459b2       __initp_eh_hooks           100469b2 f   LIBCMT:hooks.obj
 0001:000459c3       __initp_misc_winsig        100469c3 f   LIBCMT:winsig.obj
 0001:00045a18       ___get_sigabrt             10046a18 f   LIBCMT:winsig.obj
 0001:00045a25       _raise                     10046a25 f   LIBCMT:winsig.obj
 0001:00045bc8       __initp_misc_rand_s        10046bc8 f   LIBCMT:rand_s.obj
 0001:00045bd7       __RTC_Initialize           10046bd7 f   LIBCMT:_initsect_.obj
 0001:00045bfd       __RTC_Terminate            10046bfd f   LIBCMT:_initsect_.obj
 0001:00045c30       __ValidateImageBase        10046c30 f   LIBCMT:pesect.obj
 0001:00045c70       __FindPESection            10046c70 f   LIBCMT:pesect.obj
 0001:00045cc0       __IsNonwritableInCurrentImage 10046cc0 f   LIBCMT:pesect.obj
 0001:00045d7c       __freea                    10046d7c f i LIBCMT:a_map.obj
 0001:00045f83       ___crtLCMapStringA         10046f83 f   LIBCMT:a_map.obj
 0001:00045fc9       __isleadbyte_l             10046fc9 f i LIBCMT:_wctype.obj
 0001:00046001       _isleadbyte                10047001 f i LIBCMT:_wctype.obj
 0001:00046014       ___sys_nerr                10047014 f   LIBCMT:syserr.obj
 0001:0004601a       ___sys_errlist             1004701a f   LIBCMT:syserr.obj
 0001:00046020       _strncpy_s                 10047020 f   LIBCMT:strncpy_s.obj
 0001:0004618f       __ultoa_s                  1004718f f   LIBCMT:xtoas.obj
 0001:000461a9       __rmtmp                    100471a9 f   LIBCMT:rmtmp.obj
 0001:00046252       __mbsrchr_l                10047252 f   LIBCMT:mbsrchr.obj
 0001:000462fc       __mbsrchr                  100472fc f   LIBCMT:mbsrchr.obj
 0001:00046313       _strcat_s                  10047313 f   LIBCMT:strcat_s.obj
 0001:00046380       __mbsnbicoll_l             10047380 f   LIBCMT:mbsnbico.obj
 0001:0004645e       __mbsnbicoll               1004745e f   LIBCMT:mbsnbico.obj
 0001:00046478       ___wtomb_environ           10047478 f   LIBCMT:wtombenv.obj
 0001:0004650f       _strnlen                   1004750f f   LIBCMT:strlen_s.obj
 0001:00046c0d       ___tzset                   10047c0d f   LIBCMT:tzset.obj
 0001:00046c5c       __isindst                  10047c5c f   LIBCMT:tzset.obj
 0001:00046c9d       __gmtime64_s               10047c9d f   LIBCMT:gmtime64.obj
 0001:00046ed6       __get_daylight             10047ed6 f   LIBCMT:timeset.obj
 0001:00046f03       __get_dstbias              10047f03 f   LIBCMT:timeset.obj
 0001:00046f30       __get_timezone             10047f30 f   LIBCMT:timeset.obj
 0001:00046f5d       ___daylight                10047f5d f   LIBCMT:timeset.obj
 0001:00046f63       ___dstbias                 10047f63 f   LIBCMT:timeset.obj
 0001:00046f69       ___timezone                10047f69 f   LIBCMT:timeset.obj
 0001:00046f6f       ___tzname                  10047f6f f   LIBCMT:timeset.obj
 0001:00046f75       ___getgmtimebuf            10047f75 f   LIBCMT:gmtime.obj
 0001:00046fac       __getpid                   10047fac f   LIBCMT:getpid.obj
 0001:00046fb2       __strdup                   10047fb2 f   LIBCMT:strdup.obj
 0001:00047004       __setenvp                  10048004 f   LIBCMT:stdenvp.obj
 0001:0004727a       __setargv                  1004827a f   LIBCMT:stdargv.obj
 0001:00047335       ___crtGetEnvironmentStringsA 10048335 f   LIBCMT:a_env.obj
 0001:000473cc       __XcptFilter               100483cc f   LIBCMT:winxfltr.obj
 0001:00047516       ___CppXcptFilter           10048516 f   LIBCMT:winxfltr.obj
 0001:00047536       _DllMain@12                10048536 f   LIBCMT:dllmain.obj
 0001:0004753c       ___security_init_cookie    1004853c f   LIBCMT:gs_support.obj
 0001:000475e0       __CIacos_pentium4          100485e0 f   LIBCMT:_acos_pentium4_.obj
 0001:000475f8       __acos_pentium4            100485f8     LIBCMT:_acos_pentium4_.obj
 0001:00047b40       __trandisp1                10048b40 f   LIBCMT:_87disp_.obj
 0001:00047ba7       __trandisp2                10048ba7 f   LIBCMT:_87disp_.obj
 0001:00047c33       __rttospopde               10048c33     LIBCMT:_87disp_.obj
 0001:00047c38       __rttospop                 10048c38     LIBCMT:_87disp_.obj
 0001:00047c3a       __rtnospop                 10048c3a     LIBCMT:_87disp_.obj
 0001:00047c3c       __rttosnpop                10048c3c     LIBCMT:_87disp_.obj
 0001:00047c3d       __rtnospopde               10048c3d     LIBCMT:_87disp_.obj
 0001:00047c44       __rtzeropop                10048c44     LIBCMT:_87disp_.obj
 0001:00047c46       __rtzeronpop               10048c46     LIBCMT:_87disp_.obj
 0001:00047c4b       __rtonepop                 10048c4b     LIBCMT:_87disp_.obj
 0001:00047c4d       __rtonenpop                10048c4d     LIBCMT:_87disp_.obj
 0001:00047c52       __tosnan1                  10048c52     LIBCMT:_87disp_.obj
 0001:00047c7d       __nosnan2                  10048c7d     LIBCMT:_87disp_.obj
 0001:00047c7f       __tosnan2                  10048c7f     LIBCMT:_87disp_.obj
 0001:00047ca7       __nan2                     10048ca7     LIBCMT:_87disp_.obj
 0001:00047ce6       __rtindfpop                10048ce6     LIBCMT:_87disp_.obj
 0001:00047ce8       __rtindfnpop               10048ce8     LIBCMT:_87disp_.obj
 0001:00047cf9       __rttosnpopde              10048cf9     LIBCMT:_87disp_.obj
 0001:00047d03       __rtchsifneg               10048d03     LIBCMT:_87disp_.obj
 0001:00047d10       __startTwoArgErrorHandling 10048d10 f   LIBCMT:_genexcep_.obj
 0001:00047d27       __startOneArgErrorHandling 10048d27 f   LIBCMT:_genexcep_.obj
 0001:00047d70       __twoToTOS                 10048d70 f   LIBCMT:_common_.obj
 0001:00047d85       __load_CW                  10048d85 f   LIBCMT:_common_.obj
 0001:00047d9c       __convertTOStoQNaN         10048d9c f   LIBCMT:_common_.obj
 0001:00047db5       __fload_withFB             10048db5 f   LIBCMT:_common_.obj
 0001:00047df8       __checkTOS_withFB          10048df8 f   LIBCMT:_common_.obj
 0001:00047e0e       __fast_exit                10048e0e f   LIBCMT:_common_.obj
 0001:00047e1b       __math_exit                10048e1b f   LIBCMT:_common_.obj
 0001:00047e45       __check_overflow_exit      10048e45 f   LIBCMT:_common_.obj
 0001:00047e59       __check_range_exit         10048e59 f   LIBCMT:_common_.obj
 0001:00047f00       __CIasin_pentium4          10048f00 f   LIBCMT:_asin_pentium4_.obj
 0001:00047f18       __asin_pentium4            10048f18     LIBCMT:_asin_pentium4_.obj
 0001:00048480       __cintrindisp2             10049480 f   LIBCMT:_87cdisp_.obj
 0001:000484be       __cintrindisp1             100494be f   LIBCMT:_87cdisp_.obj
 0001:000484fb       __ctrandisp2               100494fb f   LIBCMT:_87cdisp_.obj
 0001:0004868a       __ctrandisp1               1004968a f   LIBCMT:_87cdisp_.obj
 0001:000486bd       __fload                    100496bd f   LIBCMT:_87cdisp_.obj
 0001:00048700       __CIpow_pentium4           10049700 f   LIBCMT:_pow_pentium4_.obj
 0001:00048719       __pow_pentium4             10049719     LIBCMT:_pow_pentium4_.obj
 0001:00049271       __fFEXP                    1004a271     LIBCMT:_87tran_.obj
 0001:000492c8       __rtinfpopse               1004a2c8     LIBCMT:_87tran_.obj
 0001:000492ca       __rtinfnpopse              1004a2ca     LIBCMT:_87tran_.obj
 0001:000492da       __fFLN                     1004a2da     LIBCMT:_87tran_.obj
 0001:0004938f       __rtinfpop                 1004a38f     LIBCMT:_87tran_.obj
 0001:00049391       __rtinfnpop                1004a391     LIBCMT:_87tran_.obj
 0001:000493ae       __ffexpm1                  1004a3ae     LIBCMT:_87tran_.obj
 0001:00049457       __d_inttype                1004a457 f   LIBCMT:_powhlp_.obj
 0001:000494c1       __powhlp                   1004a4c1 f   LIBCMT:_powhlp_.obj
 0001:000495ec       __mbctoupper_l             1004a5ec f   LIBCMT:mbtoupr.obj
 0001:00049692       __mbctoupper               1004a692 f   LIBCMT:mbtoupr.obj
 0001:00049872       _wcstol                    1004a872 f   LIBCMT:wcstol.obj
 0001:0004988c       _iswctype                  1004a88c f   LIBCMT:iswctype.obj
 0001:00049996       ___crtwsetenv              1004a996 f   LIBCMT:wsetenv.obj
 0001:00049c16       _wcslen                    1004ac16 f   LIBCMT:wcslen.obj
 0001:00049ce3       ___crtsetenv               1004ace3 f   LIBCMT:setenv.obj
 0001:00049f25       __mbschr_l                 1004af25 f   LIBCMT:mbschr.obj
 0001:00049fd5       __mbschr                   1004afd5 f   LIBCMT:mbschr.obj
 0001:0004a05e       __spawnve                  1004b05e f   LIBCMT:spawnve.obj
 0001:0004a247       __calloc_impl              1004b247 f   LIBCMT:calloc_impl.obj
 0001:0004a2c9       __matherr                  1004b2c9 f   LIBCMT:_matherr_.obj
 0001:0004a2cc       __raise_exc_ex             1004b2cc f   LIBCMT:_fpexcept_.obj
 0001:0004a5a8       __raise_exc                1004b5a8 f   LIBCMT:_fpexcept_.obj
 0001:0004a5cb       __handle_exc               1004b5cb f   LIBCMT:_fpexcept_.obj
 0001:0004a7af       __set_errno_from_matherr   1004b7af f   LIBCMT:_fpexcept_.obj
 0001:0004a7dc       __errcode                  1004b7dc f   LIBCMT:_fpexcept_.obj
 0001:0004a810       __umatherr                 1004b810 f   LIBCMT:_fpexcept_.obj
 0001:0004a8b0       __handle_qnan1             1004b8b0 f   LIBCMT:_fpexcept_.obj
 0001:0004a905       __except1                  1004b905 f   LIBCMT:_fpexcept_.obj
 0001:0004a9cf       __frnd                     1004b9cf f   LIBCMT:_frnd_.obj
 0001:0004a9e3       __set_exp                  1004b9e3 f   LIBCMT:_util_.obj
 0001:0004aa10       __sptype                   1004ba10 f   LIBCMT:_util_.obj
 0001:0004aa76       __decomp                   1004ba76 f   LIBCMT:_util_.obj
 0001:0004ab39       __statfp                   1004bb39 f   LIBCMT:_fpctrl_.obj
 0001:0004ab49       __clrfp                    1004bb49 f   LIBCMT:_fpctrl_.obj
 0001:0004ab5a       __ctrlfp                   1004bb5a f   LIBCMT:_fpctrl_.obj
 0001:0004ab85       __set_statfp               1004bb85 f   LIBCMT:_fpctrl_.obj
 0001:0004abdd       ___set_fpsr_sse2           1004bbdd f   LIBCMT:_fpctrl_.obj
 0001:0004ac4f       __atodbl_l                 1004bc4f f   LIBCMT:atodbl.obj
 0001:0004acf7       __atoflt_l                 1004bcf7 f   LIBCMT:atodbl.obj
 0001:0004ad9f       __fptostr                  1004bd9f f   LIBCMT:_fptostr.obj
 0001:0004ae52       ___dtold                   1004be52 f   LIBCMT:_cfout_.obj
 0001:0004af05       __fltout2                  1004bf05 f   LIBCMT:_cfout_.obj
 0001:0004afa0       __alldvrm                  1004bfa0 f   LIBCMT:lldvrm.obj
 0001:0004b080       __aullshr                  1004c080 f   LIBCMT:ullshr.obj
 0001:0004b09f       __fptrap                   1004c09f f   LIBCMT:crt0fp.obj
 0001:0004b0a8       __controlfp_s              1004c0a8 f   LIBCMT:_contrlfp_.obj
 0001:0004b107       ___crtMessageBoxW          1004c107 f   LIBCMT:crtmboxw.obj
 0001:0004b273       _wcscat_s                  1004c273 f   LIBCMT:wcscat_s.obj
 0001:0004b2e8       _wcsncpy_s                 1004c2e8 f   LIBCMT:wcsncpy_s.obj
 0001:0004b3b5       _wcscpy_s                  1004c3b5 f   LIBCMT:wcscpy_s.obj
 0001:0004b418       __set_error_mode           1004c418 f   LIBCMT:errmode.obj
 0001:0004b53e       ___crtGetStringTypeA       1004c53e f   LIBCMT:a_str.obj
 0001:0004b57e       ___free_lc_time            1004c57e f   LIBCMT:inittime.obj
 0001:0004b8f5       ___free_lconv_num          1004c8f5 f   LIBCMT:initnum.obj
 0001:0004b95e       ___free_lconv_mon          1004c95e f   LIBCMT:initmon.obj
 0001:0004ba5c       __ld12tod                  1004ca5c f   LIBCMT:_intrncvt_.obj
 0001:0004bfad       __ld12tof                  1004cfad f   LIBCMT:_intrncvt_.obj
 0001:0004c4fe       __crt_debugger_hook        1004d4fe f   LIBCMT:dbghook.obj
 0001:0004c506       ___report_gsfailure        1004d506 f   LIBCMT:gs_report.obj
 0001:0004c60c       ___mtold12                 1004d60c f   LIBCMT:_mantold_.obj
 0001:0004c7f0       __ungetc_nolock            1004d7f0 f   LIBCMT:ungetc.obj
 0001:0004c8d3       __mbtowc_l                 1004d8d3 f   LIBCMT:mbtowc.obj
 0001:0004c9e9       _mbtowc                    1004d9e9 f   LIBCMT:mbtowc.obj
 0001:0004ca03       __set_osfhnd               1004da03 f   LIBCMT:osfinfo.obj
 0001:0004ca84       __free_osfhnd              1004da84 f   LIBCMT:osfinfo.obj
 0001:0004cb0a       __get_osfhandle            1004db0a f   LIBCMT:osfinfo.obj
 0001:0004cb73       ___lock_fhandle            1004db73 f   LIBCMT:osfinfo.obj
 0001:0004cc12       __unlock_fhandle           1004dc12 f   LIBCMT:osfinfo.obj
 0001:0004cc39       __alloc_osfhnd             1004dc39 f   LIBCMT:osfinfo.obj
 0001:0004cdd2       __commit                   1004ddd2 f   LIBCMT:commit.obj
 0001:0004ceab       __lseeki64_nolock          1004deab f   LIBCMT:lseeki64.obj
 0001:0004cf30       __lseeki64                 1004df30 f   LIBCMT:lseeki64.obj
 0001:0004d01a       __getbuf                   1004e01a f   LIBCMT:_getbuf.obj
 0001:0004d063       __isatty                   1004e063 f   LIBCMT:isatty.obj
 0001:0004d0b9       __putwch_nolock            1004e0b9 f   LIBCMT:putwch.obj
 0001:0004d0fb       __wctomb_s_l               1004e0fb f   LIBCMT:wctomb.obj
 0001:0004d250       _wctomb_s                  1004e250 f   LIBCMT:wctomb.obj
 0001:0004d26d       _realloc                   1004e26d f   LIBCMT:realloc.obj
 0001:0004d31a       __recalloc                 1004e31a f   LIBCMT:recalloc.obj
 0001:0004d388       __mbsnbicmp_l              1004e388 f   LIBCMT:mbsnbicm.obj
 0001:0004d58c       __mbsnbicmp                1004e58c f   LIBCMT:mbsnbicm.obj
 0001:0004d5a6       __mbsnbcmp_l               1004e5a6 f   LIBCMT:mbsnbcmp.obj
 0001:0004d6f2       __mbsnbcmp                 1004e6f2 f   LIBCMT:mbsnbcmp.obj
 0001:0004d710       __global_unwind2           1004e710 f   LIBCMT:exsup.obj
 0001:0004d775       __local_unwind2            1004e775 f   LIBCMT:exsup.obj
 0001:0004d7f9       __abnormal_termination     1004e7f9 f   LIBCMT:exsup.obj
 0001:0004d81c       __NLG_Notify1              1004e81c f   LIBCMT:exsup.obj
 0001:0004d825       __NLG_Notify               1004e825 f   LIBCMT:exsup.obj
 0001:0004d83c       __NLG_Dispatch             1004e83c     LIBCMT:exsup.obj
 0001:0004d83c       __NLG_Dispatch2            1004e83c     LIBCMT:exsup.obj
 0001:0004d844       __NLG_Call                 1004e844 f   LIBCMT:exsup.obj
 0001:0004d846       __NLG_Return2              1004e846     LIBCMT:exsup.obj
 0001:0004d847       __mbsicmp_l                1004e847 f   LIBCMT:mbsicmp.obj
 0001:0004da3e       __mbsicmp                  1004ea3e f   LIBCMT:mbsicmp.obj
 0001:0004da60       __SEH_prolog4_GS           1004ea60 f   LIBCMT:sehprolg4gs.obj
 0001:0004daa8       __SEH_epilog4_GS           1004eaa8 f   LIBCMT:sehprolg4gs.obj
 0001:0004dab7       __chsize_nolock            1004eab7 f   LIBCMT:chsize.obj
 0001:0004dc6d       __setmode_nolock           1004ec6d f   LIBCMT:setmode.obj
 0001:0004dd28       __get_fmode                1004ed28 f   LIBCMT:setmode.obj
 0001:0004dd60       _strpbrk                   1004ed60 f   LIBCMT:strpbrk.obj
 0001:0004dda0       ____lc_codepage_func       1004eda0 f   LIBCMT:initctyp.obj
 0001:0004ddd0       _strcspn                   1004edd0 f   LIBCMT:strcspn.obj
 0001:0004de16       _strncmp                   1004ee16 f   LIBCMT:strncmp.obj
 0001:0004e144       ___crtCompareStringA       1004f144 f   LIBCMT:a_cmp.obj
 0001:0004e186       __strnicoll_l              1004f186 f   LIBCMT:strnicol.obj
 0001:0004e2c3       __ismbblead                1004f2c3 f   LIBCMT:ismbbyte.obj
 0001:0004e2db       __87except                 1004f2db f   LIBCMT:_87except_.obj
 0001:0004e41a       __fpclass                  1004f41a f   LIBCMT:_ieeemisc_.obj
 0001:0004e4b7       __wchartodigit             1004f4b7 f   LIBCMT:wchtodig.obj
 0001:0004e657       __wcsnicoll_l              1004f657 f   LIBCMT:wcsnicol.obj
 0001:0004e777       __wcsnicoll                1004f777 f   LIBCMT:wcsnicol.obj
 0001:0004e831       __wcsdup                   1004f831 f   LIBCMT:wcsdup.obj
 0001:0004e886       ___mbtow_environ           1004f886 f   LIBCMT:mbtowenv.obj
 0001:0004e90d       __wsetenvp                 1004f90d f   LIBCMT:wstdenvp.obj
 0001:0004e9e9       ___crtGetEnvironmentStringsW 1004f9e9 f   LIBCMT:w_env.obj
 0001:0004ea41       _wcschr                    1004fa41 f   LIBCMT:wcschr.obj
 0001:0004ea68       __dospawn                  1004fa68 f   LIBCMT:dospawn.obj
 0001:0004ec6c       __cenvarg                  1004fc6c f   LIBCMT:cenvarg.obj
 0001:0004f008       _$I10_OUTPUT               10050008 f   LIBCMT:_x10fout_.obj
 0001:0004fa2e       __control87                10050a2e f i LIBCMT:_ieee87_.obj
 0001:0004fd40       ___initconout              10050d40 f   LIBCMT:initcon.obj
 0001:0004fd5f       ___termconout              10050d5f f   LIBCMT:initcon.obj
 0001:0004fd76       __strnicmp_l               10050d76 f   LIBCMT:strnicmp.obj
 0001:0004fe58       __strnicmp                 10050e58 f   LIBCMT:strnicmp.obj
 0001:0004feab       ___ascii_stricmp           10050eab f   LIBCMT:stricmp.obj
 0001:0004fee4       __stricmp_l                10050ee4 f   LIBCMT:stricmp.obj
 0001:0004ffa4       __stricmp                  10050fa4 f   LIBCMT:stricmp.obj
 0001:0004ffa4       _stricmp                   10050fa4 f   LIBCMT:stricmp.obj
 0001:0004ffa4       _strcmpi                   10050fa4 f   LIBCMT:stricmp.obj
 0001:0004ffeb       ___crtCompareStringW       10050feb f   LIBCMT:w_cmp.obj
 0001:0005004e       __mbsnicmp_l               1005104e f   LIBCMT:mbsnicmp.obj
 0001:00050219       __mbsnicmp                 10051219 f   LIBCMT:mbsnicmp.obj
 0001:00050240       ___ascii_strnicmp          10051240 f   LIBCMT:_strnicm.obj
 0001:000502a1       _wcsnlen                   100512a1 f   LIBCMT:wcslen_s.obj
 0001:000502c2       _RtlUnwind@16              100512c2 f   kernel32:KERNEL32.dll
 0001:000502c8       __getextendedkeycode       100512c8 f   LIBCMT:getch.obj
 0001:0005037b       __getch_nolock             1005137b f   LIBCMT:getch.obj
 0001:00050454       __kbhit_nolock             10051454 f   LIBCMT:getch.obj
 0001:0005057c       __getch                    1005157c f   LIBCMT:getch.obj
 0001:0005057c       _getch                     1005157c f   LIBCMT:getch.obj
 0001:000505ba       _kbhit                     100515ba f   LIBCMT:getch.obj
 0001:000505ba       __kbhit                    100515ba f   LIBCMT:getch.obj
 0001:000505f8       ?_strlwr_s_l_stat@@YAHPADIPAUlocaleinfo_struct@@@Z 100515f8 f   LIBCMT:strlwr.obj
 0001:00050776       __strlwr_s_l               10051776 f   LIBCMT:strlwr.obj
 0001:000507aa       _strlwr                    100517aa f   LIBCMT:strlwr.obj
 0001:000507aa       __strlwr                   100517aa f   LIBCMT:strlwr.obj
 0001:00050807       ___initconin               10051807 f   LIBCMT:initconin.obj
 0001:00050826       ___termconin               10051826 f   LIBCMT:initconin.obj
 0002:00000000       __imp__RegOpenKeyExA@20    10053000     advapi32:ADVAPI32.dll
 0002:00000004       __imp__RegQueryValueExA@24 10053004     advapi32:ADVAPI32.dll
 0002:00000008       __imp__RegCloseKey@4       10053008     advapi32:ADVAPI32.dll
 0002:0000000c       \177ADVAPI32_NULL_THUNK_DATA 1005300c     advapi32:ADVAPI32.dll
 0002:00000010       __imp__GetStockObject@4    10053010     gdi32:GDI32.dll
 0002:00000014       __imp__CreateSolidBrush@4  10053014     gdi32:GDI32.dll
 0002:00000018       __imp__SelectObject@8      10053018     gdi32:GDI32.dll
 0002:0000001c       __imp__DeleteObject@4      1005301c     gdi32:GDI32.dll
 0002:00000020       __imp__Rectangle@20        10053020     gdi32:GDI32.dll
 0002:00000024       \177GDI32_NULL_THUNK_DATA  10053024     gdi32:GDI32.dll
 0002:00000028       __imp__GetCurrentThreadId@0 10053028     kernel32:KERNEL32.dll
 0002:0000002c       __imp__GetModuleFileNameA@12 1005302c     kernel32:KERNEL32.dll
 0002:00000030       __imp__GetModuleHandleA@4  10053030     kernel32:KERNEL32.dll
 0002:00000034       __imp__CreateProcessA@40   10053034     kernel32:KERNEL32.dll
 0002:00000038       __imp__GetTickCount@0      10053038     kernel32:KERNEL32.dll
 0002:0000003c       __imp__CloseHandle@4       1005303c     kernel32:KERNEL32.dll
 0002:00000040       __imp__WaitForSingleObject@8 10053040     kernel32:KERNEL32.dll
 0002:00000044       __imp__SetEvent@4          10053044     kernel32:KERNEL32.dll
 0002:00000048       __imp__CreateThread@24     10053048     kernel32:KERNEL32.dll
 0002:0000004c       __imp__CreateEventA@16     1005304c     kernel32:KERNEL32.dll
 0002:00000050       __imp__GetComputerNameA@8  10053050     kernel32:KERNEL32.dll
 0002:00000054       __imp__Sleep@4             10053054     kernel32:KERNEL32.dll
 0002:00000058       __imp__SetPriorityClass@8  10053058     kernel32:KERNEL32.dll
 0002:0000005c       __imp__GetSystemInfo@4     1005305c     kernel32:KERNEL32.dll
 0002:00000060       __imp__SetThreadPriority@8 10053060     kernel32:KERNEL32.dll
 0002:00000064       __imp__WaitForMultipleObjects@16 10053064     kernel32:KERNEL32.dll
 0002:00000068       __imp__SetUnhandledExceptionFilter@4 10053068     kernel32:KERNEL32.dll
 0002:0000006c       __imp__UnmapViewOfFile@4   1005306c     kernel32:KERNEL32.dll
 0002:00000070       __imp__InitializeCriticalSection@4 10053070     kernel32:KERNEL32.dll
 0002:00000074       __imp__MapViewOfFile@20    10053074     kernel32:KERNEL32.dll
 0002:00000078       __imp__CreateFileMappingA@24 10053078     kernel32:KERNEL32.dll
 0002:0000007c       __imp__CreateFileA@28      1005307c     kernel32:KERNEL32.dll
 0002:00000080       __imp__InterlockedDecrement@4 10053080     kernel32:KERNEL32.dll
 0002:00000084       __imp__DeleteFileA@4       10053084     kernel32:KERNEL32.dll
 0002:00000088       __imp__InterlockedIncrement@4 10053088     kernel32:KERNEL32.dll
 0002:0000008c       __imp__GetTempFileNameA@16 1005308c     kernel32:KERNEL32.dll
 0002:00000090       __imp__GetTempPathA@8      10053090     kernel32:KERNEL32.dll
 0002:00000094       __imp__GetLocalTime@4      10053094     kernel32:KERNEL32.dll
 0002:00000098       __imp__GetLastError@0      10053098     kernel32:KERNEL32.dll
 0002:0000009c       __imp__SetFilePointer@16   1005309c     kernel32:KERNEL32.dll
 0002:000000a0       __imp__ReadFile@20         100530a0     kernel32:KERNEL32.dll
 0002:000000a4       __imp__WriteFile@20        100530a4     kernel32:KERNEL32.dll
 0002:000000a8       __imp__FlushFileBuffers@4  100530a8     kernel32:KERNEL32.dll
 0002:000000ac       __imp__PeekConsoleInputA@16 100530ac     kernel32:KERNEL32.dll
 0002:000000b0       __imp__SetConsoleMode@8    100530b0     kernel32:KERNEL32.dll
 0002:000000b4       __imp__ReadConsoleInputA@16 100530b4     kernel32:KERNEL32.dll
 0002:000000b8       __imp__EnterCriticalSection@4 100530b8     kernel32:KERNEL32.dll
 0002:000000bc       __imp__RaiseException@16   100530bc     kernel32:KERNEL32.dll
 0002:000000c0       __imp__OutputDebugStringA@4 100530c0     kernel32:KERNEL32.dll
 0002:000000c4       __imp__LeaveCriticalSection@4 100530c4     kernel32:KERNEL32.dll
 0002:000000c8       __imp__GetCurrentProcess@0 100530c8     kernel32:KERNEL32.dll
 0002:000000cc       __imp__TerminateProcess@8  100530cc     kernel32:KERNEL32.dll
 0002:000000d0       __imp__SetConsoleTextAttribute@8 100530d0     kernel32:KERNEL32.dll
 0002:000000d4       __imp__GetStdHandle@4      100530d4     kernel32:KERNEL32.dll
 0002:000000d8       __imp__GetFileSize@8       100530d8     kernel32:KERNEL32.dll
 0002:000000dc       __imp__GetConsoleScreenBufferInfo@8 100530dc     kernel32:KERNEL32.dll
 0002:000000e0       __imp__CreateFileW@28      100530e0     kernel32:KERNEL32.dll
 0002:000000e4       __imp__GetExitCodeProcess@8 100530e4     kernel32:KERNEL32.dll
 0002:000000e8       __imp__CompareStringW@24   100530e8     kernel32:KERNEL32.dll
 0002:000000ec       __imp__GetProcessHeap@0    100530ec     kernel32:KERNEL32.dll
 0002:000000f0       __imp__SetEndOfFile@4      100530f0     kernel32:KERNEL32.dll
 0002:000000f4       __imp__HeapReAlloc@16      100530f4     kernel32:KERNEL32.dll
 0002:000000f8       __imp__WriteConsoleW@20    100530f8     kernel32:KERNEL32.dll
 0002:000000fc       __imp__SetStdHandle@8      100530fc     kernel32:KERNEL32.dll
 0002:00000100       __imp__SetEnvironmentVariableW@8 10053100     kernel32:KERNEL32.dll
 0002:00000104       __imp__GetStringTypeW@16   10053104     kernel32:KERNEL32.dll
 0002:00000108       __imp__QueryPerformanceCounter@4 10053108     kernel32:KERNEL32.dll
 0002:0000010c       __imp__GetEnvironmentStringsW@0 1005310c     kernel32:KERNEL32.dll
 0002:00000110       __imp__FreeEnvironmentStringsW@4 10053110     kernel32:KERNEL32.dll
 0002:00000114       __imp__GetCurrentProcessId@0 10053114     kernel32:KERNEL32.dll
 0002:00000118       __imp__GetTimeZoneInformation@4 10053118     kernel32:KERNEL32.dll
 0002:0000011c       __imp__LCMapStringW@24     1005311c     kernel32:KERNEL32.dll
 0002:00000120       __imp__LoadLibraryW@4      10053120     kernel32:KERNEL32.dll
 0002:00000124       __imp__GetCurrentDirectoryW@8 10053124     kernel32:KERNEL32.dll
 0002:00000128       __imp__PeekNamedPipe@24    10053128     kernel32:KERNEL32.dll
 0002:0000012c       __imp__GetFileInformationByHandle@8 1005312c     kernel32:KERNEL32.dll
 0002:00000130       __imp__HeapSize@12         10053130     kernel32:KERNEL32.dll
 0002:00000134       __imp__RtlUnwind@16        10053134     kernel32:KERNEL32.dll
 0002:00000138       __imp__GetStartupInfoW@4   10053138     kernel32:KERNEL32.dll
 0002:0000013c       __imp__GetFileType@4       1005313c     kernel32:KERNEL32.dll
 0002:00000140       __imp__InitializeCriticalSectionAndSpinCount@8 10053140     kernel32:KERNEL32.dll
 0002:00000144       __imp__SetHandleCount@4    10053144     kernel32:KERNEL32.dll
 0002:00000148       __imp__MultiByteToWideChar@24 10053148     kernel32:KERNEL32.dll
 0002:0000014c       __imp__WideCharToMultiByte@32 1005314c     kernel32:KERNEL32.dll
 0002:00000150       __imp__GetProcAddress@8    10053150     kernel32:KERNEL32.dll
 0002:00000154       __imp__LoadLibraryExA@12   10053154     kernel32:KERNEL32.dll
 0002:00000158       __imp__FreeLibrary@4       10053158     kernel32:KERNEL32.dll
 0002:0000015c       __imp__LoadLibraryA@4      1005315c     kernel32:KERNEL32.dll
 0002:00000160       __imp__GetPriorityClass@4  10053160     kernel32:KERNEL32.dll
 0002:00000164       __imp__ResetEvent@4        10053164     kernel32:KERNEL32.dll
 0002:00000168       __imp__DeleteCriticalSection@4 10053168     kernel32:KERNEL32.dll
 0002:0000016c       __imp__LocalFree@4         1005316c     kernel32:KERNEL32.dll
 0002:00000170       __imp__FormatMessageA@28   10053170     kernel32:KERNEL32.dll
 0002:00000174       __imp__GetEnvironmentVariableA@12 10053174     kernel32:KERNEL32.dll
 0002:00000178       __imp__GetCurrentThread@0  10053178     kernel32:KERNEL32.dll
 0002:0000017c       __imp__ResumeThread@4      1005317c     kernel32:KERNEL32.dll
 0002:00000180       __imp__HeapFree@12         10053180     kernel32:KERNEL32.dll
 0002:00000184       __imp__HeapAlloc@12        10053184     kernel32:KERNEL32.dll
 0002:00000188       __imp__DecodePointer@4     10053188     kernel32:KERNEL32.dll
 0002:0000018c       __imp__EncodePointer@4     1005318c     kernel32:KERNEL32.dll
 0002:00000190       __imp__FindClose@4         10053190     kernel32:KERNEL32.dll
 0002:00000194       __imp__FileTimeToSystemTime@8 10053194     kernel32:KERNEL32.dll
 0002:00000198       __imp__FileTimeToLocalFileTime@8 10053198     kernel32:KERNEL32.dll
 0002:0000019c       __imp__GetDriveTypeA@4     1005319c     kernel32:KERNEL32.dll
 0002:000001a0       __imp__FindFirstFileExA@24 100531a0     kernel32:KERNEL32.dll
 0002:000001a4       __imp__GetDriveTypeW@4     100531a4     kernel32:KERNEL32.dll
 0002:000001a8       __imp__GetFullPathNameA@16 100531a8     kernel32:KERNEL32.dll
 0002:000001ac       __imp__CreateDirectoryA@8  100531ac     kernel32:KERNEL32.dll
 0002:000001b0       __imp__FindNextFileA@8     100531b0     kernel32:KERNEL32.dll
 0002:000001b4       __imp__GetModuleHandleW@4  100531b4     kernel32:KERNEL32.dll
 0002:000001b8       __imp__ExitProcess@4       100531b8     kernel32:KERNEL32.dll
 0002:000001bc       __imp__GetSystemTimeAsFileTime@4 100531bc     kernel32:KERNEL32.dll
 0002:000001c0       __imp__GetCommandLineA@0   100531c0     kernel32:KERNEL32.dll
 0002:000001c4       __imp__SetEnvironmentVariableA@8 100531c4     kernel32:KERNEL32.dll
 0002:000001c8       __imp__GetCurrentDirectoryA@8 100531c8     kernel32:KERNEL32.dll
 0002:000001cc       __imp__SetCurrentDirectoryA@4 100531cc     kernel32:KERNEL32.dll
 0002:000001d0       __imp__GetFileAttributesA@4 100531d0     kernel32:KERNEL32.dll
 0002:000001d4       __imp__IsProcessorFeaturePresent@4 100531d4     kernel32:KERNEL32.dll
 0002:000001d8       __imp__HeapCreate@12       100531d8     kernel32:KERNEL32.dll
 0002:000001dc       __imp__HeapDestroy@4       100531dc     kernel32:KERNEL32.dll
 0002:000001e0       __imp__GetModuleFileNameW@12 100531e0     kernel32:KERNEL32.dll
 0002:000001e4       __imp__GetCPInfo@8         100531e4     kernel32:KERNEL32.dll
 0002:000001e8       __imp__GetACP@0            100531e8     kernel32:KERNEL32.dll
 0002:000001ec       __imp__GetOEMCP@0          100531ec     kernel32:KERNEL32.dll
 0002:000001f0       __imp__IsValidCodePage@4   100531f0     kernel32:KERNEL32.dll
 0002:000001f4       __imp__TlsAlloc@0          100531f4     kernel32:KERNEL32.dll
 0002:000001f8       __imp__TlsGetValue@4       100531f8     kernel32:KERNEL32.dll
 0002:000001fc       __imp__TlsSetValue@8       100531fc     kernel32:KERNEL32.dll
 0002:00000200       __imp__TlsFree@4           10053200     kernel32:KERNEL32.dll
 0002:00000204       __imp__SetLastError@4      10053204     kernel32:KERNEL32.dll
 0002:00000208       __imp__UnhandledExceptionFilter@4 10053208     kernel32:KERNEL32.dll
 0002:0000020c       __imp__IsDebuggerPresent@0 1005320c     kernel32:KERNEL32.dll
 0002:00000210       __imp__GetConsoleCP@0      10053210     kernel32:KERNEL32.dll
 0002:00000214       __imp__GetConsoleMode@8    10053214     kernel32:KERNEL32.dll
 0002:00000218       __imp__GetNumberOfConsoleInputEvents@8 10053218     kernel32:KERNEL32.dll
 0002:0000021c       \177KERNEL32_NULL_THUNK_DATA 1005321c     kernel32:KERNEL32.dll
 0002:00000220       __imp__LoadCursorA@8       10053220     user32:USER32.dll
 0002:00000224       __imp__RegisterClassExA@4  10053224     user32:USER32.dll
 0002:00000228       __imp__CreateWindowExA@48  10053228     user32:USER32.dll
 0002:0000022c       __imp__ShowWindow@8        1005322c     user32:USER32.dll
 0002:00000230       __imp__PeekMessageA@20     10053230     user32:USER32.dll
 0002:00000234       __imp__DispatchMessageA@4  10053234     user32:USER32.dll
 0002:00000238       __imp__TranslateMessage@4  10053238     user32:USER32.dll
 0002:0000023c       __imp__InvalidateRect@12   1005323c     user32:USER32.dll
 0002:00000240       __imp__BeginPaint@8        10053240     user32:USER32.dll
 0002:00000244       __imp__EndPaint@8          10053244     user32:USER32.dll
 0002:00000248       __imp__DefWindowProcA@16   10053248     user32:USER32.dll
 0002:0000024c       __imp__SetWindowTextA@8    1005324c     user32:USER32.dll
 0002:00000250       \177USER32_NULL_THUNK_DATA 10053250     user32:USER32.dll
 0002:00000254       __imp__ioctlsocket@12      10053254     ws2_32:WS2_32.dll
 0002:00000258       __imp__closesocket@4       10053258     ws2_32:WS2_32.dll
 0002:0000025c       __imp__WSASendTo@36        1005325c     ws2_32:WS2_32.dll
 0002:00000260       __imp__setsockopt@20       10053260     ws2_32:WS2_32.dll
 0002:00000264       __imp__gethostbyname@4     10053264     ws2_32:WS2_32.dll
 0002:00000268       __imp__ntohs@4             10053268     ws2_32:WS2_32.dll
 0002:0000026c       __imp__htons@4             1005326c     ws2_32:WS2_32.dll
 0002:00000270       __imp__WSAStartup@8        10053270     ws2_32:WS2_32.dll
 0002:00000274       __imp__accept@12           10053274     ws2_32:WS2_32.dll
 0002:00000278       __imp__WSAGetOverlappedResult@20 10053278     ws2_32:WS2_32.dll
 0002:0000027c       __imp__WSARecv@28          1005327c     ws2_32:WS2_32.dll
 0002:00000280       __imp__WSASend@28          10053280     ws2_32:WS2_32.dll
 0002:00000284       __imp__listen@8            10053284     ws2_32:WS2_32.dll
 0002:00000288       __imp__connect@12          10053288     ws2_32:WS2_32.dll
 0002:0000028c       __imp__WSAGetLastError@0   1005328c     ws2_32:WS2_32.dll
 0002:00000290       __imp__WSASocketA@24       10053290     ws2_32:WS2_32.dll
 0002:00000294       __imp__sendto@24           10053294     ws2_32:WS2_32.dll
 0002:00000298       __imp__select@20           10053298     ws2_32:WS2_32.dll
 0002:0000029c       __imp__recvfrom@24         1005329c     ws2_32:WS2_32.dll
 0002:000002a0       __imp__socket@12           100532a0     ws2_32:WS2_32.dll
 0002:000002a4       __imp__bind@12             100532a4     ws2_32:WS2_32.dll
 0002:000002a8       \177WS2_32_NULL_THUNK_DATA 100532a8     ws2_32:WS2_32.dll
 0002:000002ac       __imp__WriteMiniDumpUsingExceptionInfo 100532ac     tier0:tier0.dll
 0002:000002b0       __imp__GetCPUInformation   100532b0     tier0:tier0.dll
 0002:000002b4       __imp__Warning             100532b4     tier0:tier0.dll
 0002:000002b8       __imp__Error               100532b8     tier0:tier0.dll
 0002:000002bc       __imp__Msg                 100532bc     tier0:tier0.dll
 0002:000002c0       __imp__Plat_SetThreadName  100532c0     tier0:tier0.dll
 0002:000002c4       __imp__Plat_MSTime         100532c4     tier0:tier0.dll
 0002:000002c8       __imp__g_pVCR              100532c8     tier0:tier0.dll
 0002:000002cc       __imp__ThreadInterlockedAssignIf64 100532cc     tier0:tier0.dll
 0002:000002d0       __imp__g_ClockSpeedSecondsMultiplier 100532d0     tier0:tier0.dll
 0002:000002d4       __imp__g_ClockSpeed        100532d4     tier0:tier0.dll
 0002:000002d8       __imp_?Lock@CThreadFastMutex@@ACEXII@Z 100532d8     tier0:tier0.dll
 0002:000002dc       __imp__SpewOutputFunc      100532dc     tier0:tier0.dll
 0002:000002e0       __imp__Plat_IsInDebugSession 100532e0     tier0:tier0.dll
 0002:000002e4       __imp__GetSpewOutputColor  100532e4     tier0:tier0.dll
 0002:000002e8       __imp__CommandLine_Tier0   100532e8     tier0:tier0.dll
 0002:000002ec       __imp_?DevMsg@@YAXPBDZZ    100532ec     tier0:tier0.dll
 0002:000002f0       __imp__g_pMemAlloc         100532f0     tier0:tier0.dll
 0002:000002f4       __imp__AssertValidStringPtr 100532f4     tier0:tier0.dll
 0002:000002f8       __imp___AssertValidWritePtr 100532f8     tier0:tier0.dll
 0002:000002fc       __imp__ThreadWaitForObjects 100532fc     tier0:tier0.dll
 0002:00000300       __imp__ReleaseThreadHandle 10053300     tier0:tier0.dll
 0002:00000304       __imp__CreateSimpleThread  10053304     tier0:tier0.dll
 0002:00000308       __imp__GetThreadedLoadLibraryFunc 10053308     tier0:tier0.dll
 0002:0000030c       __imp_?UnlockRead@CThreadSpinRWLock@@QAEXXZ 1005330c     tier0:tier0.dll
 0002:00000310       __imp_?LockForRead@CThreadSpinRWLock@@QAEXXZ 10053310     tier0:tier0.dll
 0002:00000314       __imp_?UnlockWrite@CThreadSpinRWLock@@QAEXXZ 10053314     tier0:tier0.dll
 0002:00000318       __imp_?LockForWrite@CThreadSpinRWLock@@QAEXXZ 10053318     tier0:tier0.dll
 0002:0000031c       __imp_??0CThreadSpinRWLock@@QAE@XZ 1005331c     tier0:tier0.dll
 0002:00000320       __imp__Plat_FloatTime      10053320     tier0:tier0.dll
 0002:00000324       \177tier0_NULL_THUNK_DATA  10053324     tier0:tier0.dll
 0002:00000328       __imp__KeyValuesSystem     10053328     vstdlib:vstdlib.dll
 0002:0000032c       __imp_??0CUniformRandomStream@@QAE@XZ 1005332c     vstdlib:vstdlib.dll
 0002:00000330       __imp_?SetSeed@CUniformRandomStream@@UAEXH@Z 10053330     vstdlib:vstdlib.dll
 0002:00000334       __imp_?RandomInt@CUniformRandomStream@@UAEHHH@Z 10053334     vstdlib:vstdlib.dll
 0002:00000338       __imp__RandomInt           10053338     vstdlib:vstdlib.dll
 0002:0000033c       __imp__RandomSeed          1005333c     vstdlib:vstdlib.dll
 0002:00000340       \177vstdlib_NULL_THUNK_DATA 10053340     vstdlib:vstdlib.dll
 0002:00000344       ___xc_a                    10053344     LIBCMT:crt0init.obj
 0002:00000560       ___xc_z                    10053560     LIBCMT:crt0init.obj
 0002:00000564       ___xi_a                    10053564     LIBCMT:crt0init.obj
 0002:0000057c       ___xi_z                    1005357c     LIBCMT:crt0init.obj
 0002:00000580       ___xp_a                    10053580     LIBCMT:crt0init.obj
 0002:00000594       ___xp_z                    10053594     LIBCMT:crt0init.obj
 0002:00000598       ___xt_a                    10053598     LIBCMT:crt0init.obj
 0002:0000059c       ___xt_z                    1005359c     LIBCMT:crt0init.obj
 0002:000005bc       ??_C@_0BI@OECFCPNB@swapmoppsurfaceheader_t?$AA@ 100535bc     bsplib.obj
 0002:000005d4       ??_C@_0BL@DNFCANOP@swapcompactsurfaceheader_t?$AA@ 100535d4     bsplib.obj
 0002:000005f0       ??_C@_0BE@OFLJJEKJ@swapcollideheader_t?$AA@ 100535f0     bsplib.obj
 0002:00000604       ??_C@_0BD@OLKDGEE@LUMP_OVERLAY_FADES?$AA@ 10053604     bsplib.obj
 0002:00000618       ??_C@_0P@IIOJAODF@LUMP_MAP_FLAGS?$AA@ 10053618     bsplib.obj
 0002:00000628       ??_C@_0P@FDJNLOGC@LUMP_FACES_HDR?$AA@ 10053628     bsplib.obj
 0002:00000638       ??_C@_0BB@NEDFPAGN@LUMP_XZIPPAKFILE?$AA@ 10053638     bsplib.obj
 0002:0000064c       ??_C@_0BL@BKCBAMMA@LUMP_LEAF_AMBIENT_LIGHTING?$AA@ 1005364c     bsplib.obj
 0002:00000668       ??_C@_0BP@BFFHMJPJ@LUMP_LEAF_AMBIENT_LIGHTING_HDR?$AA@ 10053668     bsplib.obj
 0002:00000688       ??_C@_0BF@CANCIIGC@LUMP_WORLDLIGHTS_HDR?$AA@ 10053688     bsplib.obj
 0002:000006a0       ??_C@_0BC@KEAACHGA@LUMP_LIGHTING_HDR?$AA@ 100536a0     bsplib.obj
 0002:000006b4       ??_C@_0BI@BMFPOHKD@LUMP_LEAF_AMBIENT_INDEX?$AA@ 100536b4     bsplib.obj
 0002:000006cc       ??_C@_0BM@MBKMFPBI@LUMP_LEAF_AMBIENT_INDEX_HDR?$AA@ 100536cc     bsplib.obj
 0002:000006e8       ??_C@_0BD@CLELFBLI@LUMP_WATEROVERLAYS?$AA@ 100536e8     bsplib.obj
 0002:000006fc       ??_C@_0BI@NJJHKFEP@LUMP_PHYSCOLLIDESURFACE?$AA@ 100536fc     bsplib.obj
 0002:00000714       ??_C@_0P@ILJIKKIG@LUMP_DISP_TRIS?$AA@ 10053714     bsplib.obj
 0002:00000724       ??_C@_0BN@FKFFDEEC@LUMP_FACE_MACRO_TEXTURE_INFO?$AA@ 10053724     bsplib.obj
 0002:00000744       ??_C@_0BI@PEOPPAME@LUMP_LEAFMINDISTTOWATER?$AA@ 10053744     bsplib.obj
 0002:0000075c       ??_C@_0O@EGIHIGHE@LUMP_OVERLAYS?$AA@ 1005375c     bsplib.obj
 0002:0000076c       ??_C@_0BK@HOIMAHNF@LUMP_TEXDATA_STRING_TABLE?$AA@ 1005376c     bsplib.obj
 0002:00000788       ??_C@_0BJ@PGCIOLBP@LUMP_TEXDATA_STRING_DATA?$AA@ 10053788     bsplib.obj
 0002:000007a4       ??_C@_0O@MHPJGMBB@LUMP_CUBEMAPS?$AA@ 100537a4     bsplib.obj
 0002:000007b4       ??_C@_0BF@NDALMOFD@LUMP_CLIPPORTALVERTS?$AA@ 100537b4     bsplib.obj
 0002:000007cc       ??_C@_0N@GNKDOCCI@LUMP_PAKFILE?$AA@ 100537cc     bsplib.obj
 0002:000007dc       ??_C@_0BB@KPDLNDCB@LUMP_PRIMINDICES?$AA@ 100537dc     bsplib.obj
 0002:000007f0       ??_C@_0P@OELFIIM@LUMP_PRIMVERTS?$AA@ 100537f0     bsplib.obj
 0002:00000800       ??_C@_0BA@IJBIAGAH@LUMP_PRIMITIVES?$AA@ 10053800     bsplib.obj
 0002:00000810       ??_C@_0BD@ODLDHPKI@LUMP_LEAFWATERDATA?$AA@ 10053810     bsplib.obj
 0002:00000824       ??_C@_0P@GGMDDMAI@LUMP_GAME_LUMP?$AA@ 10053824     bsplib.obj
 0002:00000834       ??_C@_0CE@CBCIIDNL@LUMP_DISP_LIGHTMAP_SAMPLE_POSITI@ 10053834     bsplib.obj
 0002:00000858       ??_C@_0BA@IIJJJMKK@LUMP_DISP_VERTS?$AA@ 10053858     bsplib.obj
 0002:00000868       ??_C@_0BK@HINDNDEN@LUMP_DISP_LIGHTMAP_ALPHAS?$AA@ 10053868     bsplib.obj
 0002:00000884       ??_C@_0BH@FFAKLLAA@LUMP_VERTNORMALINDICES?$AA@ 10053884     bsplib.obj
 0002:0000089c       ??_C@_0BB@DBIDJPFD@LUMP_VERTNORMALS?$AA@ 1005389c     bsplib.obj
 0002:000008b0       ??_C@_0BB@MBCNHCIA@LUMP_PHYSCOLLIDE?$AA@ 100538b0     bsplib.obj
 0002:000008c4       ??_C@_0O@OEJDLIOJ@LUMP_PHYSDISP?$AA@ 100538c4     bsplib.obj
 0002:000008d4       ??_C@_0BD@EJIHOJDL@LUMP_ORIGINALFACES?$AA@ 100538d4     bsplib.obj
 0002:000008e8       ??_C@_0O@EJABBFOH@LUMP_DISPINFO?$AA@ 100538e8     bsplib.obj
 0002:000008f8       ??_C@_0N@HPHHNHMM@LUMP_UNUSED3?$AA@ 100538f8     bsplib.obj
 0002:00000908       ??_C@_0N@GGGMOGIN@LUMP_UNUSED2?$AA@ 10053908     bsplib.obj
 0002:00000918       ??_C@_0N@ENEBLFEO@LUMP_UNUSED1?$AA@ 10053918     bsplib.obj
 0002:00000928       ??_C@_0N@FEFKIEAP@LUMP_UNUSED0?$AA@ 10053928     bsplib.obj
 0002:00000938       ??_C@_0BB@OJCKABCN@LUMP_AREAPORTALS?$AA@ 10053938     bsplib.obj
 0002:0000094c       ??_C@_0L@HCKCACPC@LUMP_AREAS?$AA@ 1005394c     bsplib.obj
 0002:00000958       ??_C@_0BA@BNCFENGJ@LUMP_BRUSHSIDES?$AA@ 10053958     bsplib.obj
 0002:00000968       ??_C@_0N@DPCCMAAJ@LUMP_BRUSHES?$AA@ 10053968     bsplib.obj
 0002:00000978       ??_C@_0BB@HIKJEPMN@LUMP_LEAFBRUSHES?$AA@ 10053978     bsplib.obj
 0002:0000098c       ??_C@_0P@CJINAEPL@LUMP_LEAFFACES?$AA@ 1005398c     bsplib.obj
 0002:0000099c       ??_C@_0BB@LDCFDKDP@LUMP_WORLDLIGHTS?$AA@ 1005399c     bsplib.obj
 0002:000009b0       ??_C@_0M@BPMHBODO@LUMP_MODELS?$AA@ 100539b0     bsplib.obj
 0002:000009bc       ??_C@_0P@GAMKMAKO@LUMP_SURFEDGES?$AA@ 100539bc     bsplib.obj
 0002:000009cc       ??_C@_0L@KLJDECJB@LUMP_EDGES?$AA@ 100539cc     bsplib.obj
 0002:000009d8       ??_C@_0N@GOAPMGFG@LUMP_FACEIDS?$AA@ 100539d8     bsplib.obj
 0002:000009e8       ??_C@_0L@JGNBNLGM@LUMP_LEAFS?$AA@ 100539e8     bsplib.obj
 0002:000009f4       ??_C@_0P@FFNBCDDI@LUMP_OCCLUSION?$AA@ 100539f4     bsplib.obj
 0002:00000a04       ??_C@_0O@ENKADPOO@LUMP_LIGHTING?$AA@ 10053a04     bsplib.obj
 0002:00000a14       ??_C@_0L@GKIFCIBI@LUMP_FACES?$AA@ 10053a14     bsplib.obj
 0002:00000a20       ??_C@_0N@HABLHKMA@LUMP_TEXINFO?$AA@ 10053a20     bsplib.obj
 0002:00000a30       ??_C@_0L@KEDBCMKN@LUMP_NODES?$AA@ 10053a30     bsplib.obj
 0002:00000a3c       ??_C@_0BA@JJJJNMIF@LUMP_VISIBILITY?$AA@ 10053a3c     bsplib.obj
 0002:00000a4c       ??_C@_0O@PFMNCFLL@LUMP_VERTEXES?$AA@ 10053a4c     bsplib.obj
 0002:00000a5c       ??_C@_0N@FBMJPELH@LUMP_TEXDATA?$AA@ 10053a5c     bsplib.obj
 0002:00000a6c       ??_C@_0M@IPGKKCGA@LUMP_PLANES?$AA@ 10053a6c     bsplib.obj
 0002:00000a78       ??_C@_0O@FEFHONOO@LUMP_ENTITIES?$AA@ 10053a78     bsplib.obj
 0002:00000a88       ??_C@_0N@MKKKCKNB@FileHeader_t?$AA@ 10053a88     bsplib.obj
 0002:00000a98       ??_C@_0N@OAJJGDEO@MeshHeader_t?$AA@ 10053a98     bsplib.obj
 0002:00000aa8       ??_C@_0BM@MCIAFPDJ@DetailPropLightstylesLump_t?$AA@ 10053aa8     bsplib.obj
 0002:00000ac4       ??_C@_0BH@MHMAAGLE@DetailSpriteDictLump_t?$AA@ 10053ac4     bsplib.obj
 0002:00000adc       ??_C@_0BD@PIOIBHCF@DetailObjectLump_t?$AA@ 10053adc     bsplib.obj
 0002:00000af0       ??_C@_0BH@NLNJCPJB@DetailObjectDictLump_t?$AA@ 10053af0     bsplib.obj
 0002:00000b08       ??_C@_0BF@EHIAMEIF@StaticPropLeafLump_t?$AA@ 10053b08     bsplib.obj
 0002:00000b20       ??_C@_0BD@LEBBNIAA@StaticPropLumpV5_t?$AA@ 10053b20     bsplib.obj
 0002:00000b34       ??_C@_0BD@MKNLPGF@StaticPropLumpV4_t?$AA@ 10053b34     bsplib.obj
 0002:00000b48       ??_C@_0BB@KBIEIIMO@StaticPropLump_t?$AA@ 10053b48     bsplib.obj
 0002:00000b5c       ??_C@_0BF@PHBHNLJO@StaticPropDictLump_t?$AA@ 10053b5c     bsplib.obj
 0002:00000b74       ??_C@_0M@OMEEDGMC@dgamelump_t?$AA@ 10053b74     bsplib.obj
 0002:00000b80       ??_C@_0BC@DOHNMHNB@dgamelumpheader_t?$AA@ 10053b80     bsplib.obj
 0002:00000b94       ??_C@_0P@GCGCOJHF@doverlayfade_t?$AA@ 10053b94     bsplib.obj
 0002:00000ba4       ??_C@_0BA@LPAAAJLB@dwateroverlay_t?$AA@ 10053ba4     bsplib.obj
 0002:00000bb4       ??_C@_0L@NFDMIKGD@doverlay_t?$AA@ 10053bb4     bsplib.obj
 0002:00000bc0       ??_C@_0BB@PEILJHEN@dcubemapsample_t?$AA@ 10053bc0     bsplib.obj
 0002:00000bd4       ??_C@_0BE@LJCKGEBK@doccluderpolydata_t?$AA@ 10053bd4     bsplib.obj
 0002:00000be8       ??_C@_0BA@DGINHBJN@doccluderdata_t?$AA@ 10053be8     bsplib.obj
 0002:00000bf8       ??_C@_0BB@LPGCFBAA@dleafwaterdata_t?$AA@ 10053bf8     bsplib.obj
 0002:00000c0c       ??_C@_0O@KHFJINND@dworldlight_t?$AA@ 10053c0c     bsplib.obj
 0002:00000c1c       ??_C@_0O@FELKPDKA@dareaportal_t?$AA@ 10053c1c     bsplib.obj
 0002:00000c2c       ??_C@_07FLKMNIGI@darea_t?$AA@ 10053c2c     bsplib.obj
 0002:00000c34       ??_C@_0M@EEEPECPF@dphysdisp_t?$AA@ 10053c34     bsplib.obj
 0002:00000c40       ??_C@_0N@JKAKAPKN@dphysmodel_t?$AA@ 10053c40     bsplib.obj
 0002:00000c50       ??_C@_08LBJNJKCK@dmodel_t?$AA@ 10053c50     bsplib.obj
 0002:00000c5c       ??_C@_07IPMONJMK@dedge_t?$AA@ 10053c5c     bsplib.obj
 0002:00000c64       ??_C@_0N@DICEINDF@dbrushside_t?$AA@ 10053c64     bsplib.obj
 0002:00000c74       ??_C@_08MGPMFBMD@dbrush_t?$AA@ 10053c74     bsplib.obj
 0002:00000c80       ??_C@_09BJPDADAO@dfaceid_t?$AA@ 10053c80     bsplib.obj
 0002:00000c8c       ??_C@_07BLGLPECE@dface_t?$AA@ 10053c8c     bsplib.obj
 0002:00000c94       ??_C@_0M@IELDMBMH@dprimvert_t?$AA@ 10053c94     bsplib.obj
 0002:00000ca0       ??_C@_0N@JCLKPMCB@dprimitive_t?$AA@ 10053ca0     bsplib.obj
 0002:00000cb0       ??_C@_0BG@DPNAMNGO@CFaceMacroTextureInfo?$AA@ 10053cb0     bsplib.obj
 0002:00000cc8       ??_C@_08JOFBHKDH@CDispTri?$AA@ 10053cc8     bsplib.obj
 0002:00000cd4       ??_C@_09FEANDIFA@CDispVert?$AA@ 10053cd4     bsplib.obj
 0002:00000ce0       ??_C@_0BB@CINMEECK@CDispSubNeighbor?$AA@ 10053ce0     bsplib.obj
 0002:00000cf4       ??_C@_0BF@GAGKEJIM@CDispCornerNeighbors?$AA@ 10053cf4     bsplib.obj
 0002:00000d0c       ??_C@_0O@KJLBJMCP@CDispNeighbor?$AA@ 10053d0c     bsplib.obj
 0002:00000d1c       ??_C@_0M@HCKLBNLM@ddispinfo_t?$AA@ 10053d1c     bsplib.obj
 0002:00000d28       ??_C@_0L@PNLMHHJK@dtexdata_t?$AA@ 10053d28     bsplib.obj
 0002:00000d34       ??_C@_09PPMCCLHO@texinfo_t?$AA@ 10053d34     bsplib.obj
 0002:00000d40       ??_C@_07KAKOAHCD@dnode_t?$AA@ 10053d40     bsplib.obj
 0002:00000d48       ??_C@_09OHGFAMOH@dvertex_t?$AA@ 10053d48     bsplib.obj
 0002:00000d54       ??_C@_0BH@JAMCCGHN@dleafambientlighting_t?$AA@ 10053d54     bsplib.obj
 0002:00000d6c       ??_C@_0BE@ILNCIEDE@dleafambientindex_t?$AA@ 10053d6c     bsplib.obj
 0002:00000d80       ??_C@_0BE@EMOGJPEN@CompressedLightCube?$AA@ 10053d80     bsplib.obj
 0002:00000d94       ??_C@_07EMPPBFPC@dleaf_t?$AA@ 10053d94     bsplib.obj
 0002:00000d9c       ??_C@_0BC@EHFLNAFD@dleaf_version_0_t?$AA@ 10053d9c     bsplib.obj
 0002:00000db0       ??_C@_08DNNOELGF@dplane_t?$AA@ 10053db0     bsplib.obj
 0002:00000dbc       ??_C@_0N@LGEPKNAO@dflagslump_t?$AA@ 10053dbc     bsplib.obj
 0002:00000dcc       ??_C@_06FDEEFMHN@lump_t?$AA@ 10053dcc     bsplib.obj
 0002:00000dd4       ??_C@_09LJDKPBKI@dheader_t?$AA@ 10053dd4     bsplib.obj
 0002:00000de0       ??_C@_0CE@COMABEJA@warning?3?5Vis?5decompression?5overr@ 10053de0     bsplib.obj
 0002:00000e04       ??_C@_0BI@BDJEEEMN@DecompressVis?3?50?5repeat?$AA@ 10053e04     bsplib.obj
 0002:00000e1c       ??_C@_0CO@EDJFKPFP@ValidateLump?3?5old?5version?5for?5lu@ 10053e1c     bsplib.obj
 0002:00000e4c       ??_C@_0CD@HCMHJLHJ@ValidateLump?3?5odd?5size?5for?5lump?5@ 10053e4c     bsplib.obj
 0002:00000e70       ??_C@_0BJ@EBHLPGFH@?$CFs?5is?5version?5?$CFi?0?5not?5?$CFi?$AA@ 10053e70     bsplib.obj
 0002:00000e8c       ??_C@_0BG@HLMOFCME@?$CFs?5is?5not?5a?5IBSP?5file?$AA@ 10053e8c     bsplib.obj
 0002:00000ea4       ??_C@_0CM@NMKLEGFP@Error?5opening?5?$CFs?$CB?5?$CICheck?5for?5wri@ 10053ea4     bsplib.obj
 0002:00000ed0       ??_C@_02GMLFBBN@wb?$AA@    10053ed0     bsplib.obj
 0002:00000ed4       ??_C@_01EEMJAFIK@?6?$AA@   10053ed4     bsplib.obj
 0002:00000ed8       __real@0000000000000000    10053ed8     bsplib.obj
 0002:00000ee0       __real@4059000000000000    10053ee0     bsplib.obj
 0002:00000ee8       ??_C@_0BK@IGGDCDAB@ParseEpar?3?5token?5too?5long?$AA@ 10053ee8     bsplib.obj
 0002:00000f04       ??_C@_01CELHOKLL@?$HN?$AA@ 10053f04     bsplib.obj
 0002:00000f08       ??_C@_0CH@DFFBFKCE@ParseEntity?3?5EOF?5without?5closing@ 10053f08     bsplib.obj
 0002:00000f30       ??_C@_0CB@GIFGAPCN@num_entities?5?$DN?$DN?5MAX_MAP_ENTITIES@ 10053f30     bsplib.obj
 0002:00000f54       ??_C@_0BJ@FJKNDMCD@ParseEntity?3?5?$HL?5not?5found?$AA@ 10053f54     bsplib.obj
 0002:00000f70       ??_C@_01HCONENDN@?$HL?$AA@ 10053f70     bsplib.obj
 0002:00000f72       ??_C@_00CNPNBAHC@?$AA@     10053f72     bsplib.obj
 0002:00000f74       ??_C@_04KPILAJPA@?4bsp?$AA@ 10053f74     bsplib.obj
 0002:00000f7c       ??_C@_02JDPG@rb?$AA@       10053f7c     bsplib.obj
 0002:00000f80       ??_C@_0DJ@IALAKHCH@Unknown?5Static?5Prop?5Lump?5version@ 10053f80     bsplib.obj
 0002:00000fbc       ??_C@_0CM@DGBFFHA@Unknown?5game?5lump?5?8?$CFs?8?5didn?8t?5ge@ 10053fbc     bsplib.obj
 0002:00000fe8       ??_C@_0CP@MLMNILJJ@?$CB?$CB?$CB?5WARNING?3?5Can?8t?5swap?5the?5phys@ 10053fe8     bsplib.obj
 0002:00001018       ??_C@_0BF@PLKAEACL@VPhysicsCollision007?$AA@ 10054018     bsplib.obj
 0002:00001030       ??_C@_0N@FNMJMILG@vphysics?4dll?$AA@ 10054030     bsplib.obj
 0002:00001040       ??_C@_0CF@KAOEHNKC@Writing?5unknown?5lump?5?$CD?$CFd?5?$CI?$CFd?5byt@ 10054040     bsplib.obj
 0002:00001068       ??_C@_0BK@CAOLELCJ@CUtlLinkedList?5overflow?$CB?6?$AA@ 10054068     bsplib.obj
 0002:00001084       ??_C@_02DPKJAMEF@?$CFd?$AA@ 10054084     bsplib.obj
 0002:00001088       ??_C@_07EMAOIIJD@texdata?$AA@ 10054088     bsplib.obj
 0002:00001090       ??_C@_0CF@BMEFMFJB@Reading?5unknown?5lump?5?$CD?$CFd?5?$CI?$CFd?5byt@ 10054090     bsplib.obj
 0002:000010b8       ??_C@_0DJ@MFKFBFPP@Map?5has?5too?5many?5texinfos?5?$CIhas?5?$CF@ 100540b8     bsplib.obj
 0002:000010f4       ??_C@_05IJGIMKK@ident?$AA@ 100540f4     bsplib.obj
 0002:000010fc       ??_C@_07CPCPJPKL@version?$AA@ 100540fc     bsplib.obj
 0002:00001104       ??_C@_05JJJGJDHJ@lumps?$AA@ 10054104     bsplib.obj
 0002:0000110c       ??_C@_0M@HBIBAMBI@mapRevision?$AA@ 1005410c     bsplib.obj
 0002:00001118       ??_C@_07JHJOMNHC@fileofs?$AA@ 10054118     bsplib.obj
 0002:00001120       ??_C@_07HIABLANJ@filelen?$AA@ 10054120     bsplib.obj
 0002:00001128       ??_C@_06CKNLMMCG@fourCC?$AA@ 10054128     bsplib.obj
 0002:00001130       ??_C@_0N@EFAKEOG@m_LevelFlags?$AA@ 10054130     bsplib.obj
 0002:00001140       ??_C@_06IKLLLDHL@normal?$AA@ 10054140     bsplib.obj
 0002:00001148       ??_C@_04OKFALBN@dist?$AA@  10054148     bsplib.obj
 0002:00001150       ??_C@_04GPMDFGEJ@type?$AA@ 10054150     bsplib.obj
 0002:00001158       ??_C@_08ODCIAOPM@contents?$AA@ 10054158     bsplib.obj
 0002:00001164       ??_C@_07NKHKICEG@cluster?$AA@ 10054164     bsplib.obj
 0002:0000116c       ??_C@_02HIEKPFIC@bf?$AA@   1005416c     bsplib.obj
 0002:00001170       ??_C@_04FIAKMPII@mins?$AA@ 10054170     bsplib.obj
 0002:00001178       ??_C@_04IFBFDIKF@maxs?$AA@ 10054178     bsplib.obj
 0002:00001180       ??_C@_0O@JFONBDAD@firstleafface?$AA@ 10054180     bsplib.obj
 0002:00001190       ??_C@_0N@BDFNHCAO@numleaffaces?$AA@ 10054190     bsplib.obj
 0002:000011a0       ??_C@_0P@OFLACFMD@firstleafbrush?$AA@ 100541a0     bsplib.obj
 0002:000011b0       ??_C@_0P@FMNNGKO@numleafbrushes?$AA@ 100541b0     bsplib.obj
 0002:000011c0       ??_C@_0BA@IKLKJAHM@leafWaterDataID?$AA@ 100541c0     bsplib.obj
 0002:000011d0       ??_C@_0BC@OICOOBDE@m_AmbientLighting?$AA@ 100541d0     bsplib.obj
 0002:000011e4       ??_C@_07LJHCELCO@m_Color?$AA@ 100541e4     bsplib.obj
 0002:000011ec       ??_C@_0BD@BFDCJBID@ambientSampleCount?$AA@ 100541ec     bsplib.obj
 0002:00001200       ??_C@_0BD@HFMKPMGE@firstAmbientSample?$AA@ 10054200     bsplib.obj
 0002:00001214       ??_C@_04OIHHNFHN@cube?$AA@ 10054214     bsplib.obj
 0002:0000121c       ??_C@_01FJMABOPO@x?$AA@    1005421c     bsplib.obj
 0002:00001220       ??_C@_01EANLCPLP@y?$AA@    10054220     bsplib.obj
 0002:00001224       ??_C@_01GLPGHMHM@z?$AA@    10054224     bsplib.obj
 0002:00001228       ??_C@_03PNAAIPML@pad?$AA@  10054228     bsplib.obj
 0002:0000122c       ??_C@_05BBEJFBFA@point?$AA@ 1005422c     bsplib.obj
 0002:00001234       ??_C@_08HJGMHDFH@planenum?$AA@ 10054234     bsplib.obj
 0002:00001240       ??_C@_08GOINNFB@children?$AA@ 10054240     bsplib.obj
 0002:0000124c       ??_C@_09FEPJDPNN@firstface?$AA@ 1005424c     bsplib.obj
 0002:00001258       ??_C@_08JKOEMKBP@numfaces?$AA@ 10054258     bsplib.obj
 0002:00001264       ??_C@_04GOEDGNCF@area?$AA@ 10054264     bsplib.obj
 0002:0000126c       ??_C@_0BP@NMBCBGBE@textureVecsTexelsPerWorldUnits?$AA@ 1005426c     bsplib.obj
 0002:0000128c       ??_C@_0CA@IPOFBMEA@lightmapVecsLuxelsPerWorldUnits?$AA@ 1005428c     bsplib.obj
 0002:000012ac       ??_C@_05GECEPKB@flags?$AA@ 100542ac     bsplib.obj
 0002:000012b4       ??_C@_0N@LJNLFOD@reflectivity?$AA@ 100542b4     bsplib.obj
 0002:000012c4       ??_C@_0BC@OEOFGALD@nameStringTableID?$AA@ 100542c4     bsplib.obj
 0002:000012d8       ??_C@_05IGKADHGO@width?$AA@ 100542d8     bsplib.obj
 0002:000012e0       ??_C@_06LNLHEAAG@height?$AA@ 100542e0     bsplib.obj
 0002:000012e8       ??_C@_0L@CHMFFBH@view_width?$AA@ 100542e8     bsplib.obj
 0002:000012f4       ??_C@_0M@JEOKFFPM@view_height?$AA@ 100542f4     bsplib.obj
 0002:00001300       ??_C@_0O@FDHHLLPE@startPosition?$AA@ 10054300     bsplib.obj
 0002:00001310       ??_C@_0BB@BEGJFCOK@m_iDispVertStart?$AA@ 10054310     bsplib.obj
 0002:00001324       ??_C@_0BA@EEICBDCB@m_iDispTriStart?$AA@ 10054324     bsplib.obj
 0002:00001334       ??_C@_05PLIADJJL@power?$AA@ 10054334     bsplib.obj
 0002:0000133c       ??_C@_07GOCNGAOG@minTess?$AA@ 1005433c     bsplib.obj
 0002:00001344       ??_C@_0P@JNKEKPLM@smoothingAngle?$AA@ 10054344     bsplib.obj
 0002:00001354       ??_C@_0L@CFKODFKO@m_iMapFace?$AA@ 10054354     bsplib.obj
 0002:00001360       ??_C@_0BG@DDOEIFEL@m_iLightmapAlphaStart?$AA@ 10054360     bsplib.obj
 0002:00001378       ??_C@_0BP@PAFNNLAB@m_iLightmapSamplePositionStart?$AA@ 10054378     bsplib.obj
 0002:00001398       ??_C@_0BA@KPACCIDF@m_EdgeNeighbors?$AA@ 10054398     bsplib.obj
 0002:000013a8       ??_C@_0BC@NIPPIPEI@m_CornerNeighbors?$AA@ 100543a8     bsplib.obj
 0002:000013bc       ??_C@_0P@LOALHPHF@m_AllowedVerts?$AA@ 100543bc     bsplib.obj
 0002:000013cc       ??_C@_0P@MHNHNEHJ@m_SubNeighbors?$AA@ 100543cc     bsplib.obj
 0002:000013dc       ??_C@_0M@PJNEJPND@m_Neighbors?$AA@ 100543dc     bsplib.obj
 0002:000013e8       ??_C@_0N@NFFMJJFJ@m_nNeighbors?$AA@ 100543e8     bsplib.obj
 0002:000013f8       ??_C@_0M@BHAIIGNN@m_iNeighbor?$AA@ 100543f8     bsplib.obj
 0002:00001404       ??_C@_0BG@LCLHGLFD@m_NeighborOrientation?$AA@ 10054404     bsplib.obj
 0002:0000141c       ??_C@_06NDMNEFDP@m_Span?$AA@ 1005441c     bsplib.obj
 0002:00001424       ??_C@_0P@OADNGDCO@m_NeighborSpan?$AA@ 10054424     bsplib.obj
 0002:00001434       ??_C@_09IDMJOBKC@m_vVector?$AA@ 10054434     bsplib.obj
 0002:00001440       ??_C@_08FJDFPGMN@m_flDist?$AA@ 10054440     bsplib.obj
 0002:0000144c       ??_C@_09GMODKCE@m_flAlpha?$AA@ 1005444c     bsplib.obj
 0002:00001458       ??_C@_08KOPEMDCL@m_uiTags?$AA@ 10054458     bsplib.obj
 0002:00001464       ??_C@_0BF@IGHHBDIM@m_MacroTextureNameID?$AA@ 10054464     bsplib.obj
 0002:0000147c       ??_C@_0L@PGKNLMCD@firstIndex?$AA@ 1005447c     bsplib.obj
 0002:00001488       ??_C@_0L@PBJJKAHO@indexCount?$AA@ 10054488     bsplib.obj
 0002:00001494       ??_C@_09DEIHPKFL@firstVert?$AA@ 10054494     bsplib.obj
 0002:000014a0       ??_C@_09MANBFGEA@vertCount?$AA@ 100544a0     bsplib.obj
 0002:000014ac       ??_C@_03PCBNCGFH@pos?$AA@  100544ac     bsplib.obj
 0002:000014b0       ??_C@_04JGNFNGGK@side?$AA@ 100544b0     bsplib.obj
 0002:000014b8       ??_C@_06POEBIPME@onNode?$AA@ 100544b8     bsplib.obj
 0002:000014c0       ??_C@_09CDIOBNOD@firstedge?$AA@ 100544c0     bsplib.obj
 0002:000014cc       ??_C@_08FLPCKAJG@numedges?$AA@ 100544cc     bsplib.obj
 0002:000014d8       ??_C@_07GNNMAGOE@texinfo?$AA@ 100544d8     bsplib.obj
 0002:000014e0       ??_C@_08OAJLBCOI@dispinfo?$AA@ 100544e0     bsplib.obj
 0002:000014ec       ??_C@_0BD@KHDHNEKP@surfaceFogVolumeID?$AA@ 100544ec     bsplib.obj
 0002:00001500       ??_C@_06OAJMEMBL@styles?$AA@ 10054500     bsplib.obj
 0002:00001508       ??_C@_08OBOMOBNA@lightofs?$AA@ 10054508     bsplib.obj
 0002:00001514       ??_C@_0BO@KLAFEDGH@m_LightmapTextureMinsInLuxels?$AA@ 10054514     bsplib.obj
 0002:00001534       ??_C@_0BO@NBHLKPOL@m_LightmapTextureSizeInLuxels?$AA@ 10054534     bsplib.obj
 0002:00001554       ??_C@_08HJLENCAJ@origFace?$AA@ 10054554     bsplib.obj
 0002:00001560       ??_C@_0L@NCAJFDDK@m_NumPrims?$AA@ 10054560     bsplib.obj
 0002:0000156c       ??_C@_0M@KIFLCOML@firstPrimID?$AA@ 1005456c     bsplib.obj
 0002:00001578       ??_C@_0BA@NGBALEKI@smoothingGroups?$AA@ 10054578     bsplib.obj
 0002:00001588       ??_C@_0N@OPGHGHFA@hammerfaceid?$AA@ 10054588     bsplib.obj
 0002:00001598       ??_C@_09DMACBJEF@firstside?$AA@ 10054598     bsplib.obj
 0002:000015a4       ??_C@_08GEFICKEP@numsides?$AA@ 100545a4     bsplib.obj
 0002:000015b0       ??_C@_05JDNDNKBA@bevel?$AA@ 100545b0     bsplib.obj
 0002:000015b8       ??_C@_01MHEDDDHA@v?$AA@    100545b8     bsplib.obj
 0002:000015bc       ??_C@_06NHCMNMEH@origin?$AA@ 100545bc     bsplib.obj
 0002:000015c4       ??_C@_08MKPBLOEI@headnode?$AA@ 100545c4     bsplib.obj
 0002:000015d0       ??_C@_0L@OJKNJKNO@modelIndex?$AA@ 100545d0     bsplib.obj
 0002:000015dc       ??_C@_08KHMGMMON@dataSize?$AA@ 100545dc     bsplib.obj
 0002:000015e8       ??_C@_0M@EIAFECAC@keydataSize?$AA@ 100545e8     bsplib.obj
 0002:000015f4       ??_C@_0L@BOALBGOC@solidCount?$AA@ 100545f4     bsplib.obj
 0002:00001600       ??_C@_0BB@NNJGKKC@numDisplacements?$AA@ 10054600     bsplib.obj
 0002:00001614       ??_C@_0P@JEEOJIEO@numareaportals?$AA@ 10054614     bsplib.obj
 0002:00001624       ??_C@_0BA@PNCAMLID@firstareaportal?$AA@ 10054624     bsplib.obj
 0002:00001634       ??_C@_0M@HGJDIFIH@m_PortalKey?$AA@ 10054634     bsplib.obj
 0002:00001640       ??_C@_09FKCCELOM@otherarea?$AA@ 10054640     bsplib.obj
 0002:0000164c       ??_C@_0BG@GLOJEMCM@m_FirstClipPortalVert?$AA@ 1005464c     bsplib.obj
 0002:00001664       ??_C@_0BD@FMOIFBLK@m_nClipPortalVerts?$AA@ 10054664     bsplib.obj
 0002:00001678       ??_C@_09DDBFFAKC@intensity?$AA@ 10054678     bsplib.obj
 0002:00001684       ??_C@_05IAKJCFIM@style?$AA@ 10054684     bsplib.obj
 0002:0000168c       ??_C@_07BMMJEPCG@stopdot?$AA@ 1005468c     bsplib.obj
 0002:00001694       ??_C@_08DPGBBIMD@stopdot2?$AA@ 10054694     bsplib.obj
 0002:000016a0       ??_C@_08EGJNFMPO@exponent?$AA@ 100546a0     bsplib.obj
 0002:000016ac       ??_C@_06KGHINEPG@radius?$AA@ 100546ac     bsplib.obj
 0002:000016b4       ??_C@_0O@CNHFALEA@constant_attn?$AA@ 100546b4     bsplib.obj
 0002:000016c4       ??_C@_0M@CJNGHEBK@linear_attn?$AA@ 100546c4     bsplib.obj
 0002:000016d0       ??_C@_0P@FEPJNKCE@quadratic_attn?$AA@ 100546d0     bsplib.obj
 0002:000016e0       ??_C@_05HEIBENID@owner?$AA@ 100546e0     bsplib.obj
 0002:000016e8       ??_C@_08BCLLBMPF@surfaceZ?$AA@ 100546e8     bsplib.obj
 0002:000016f4       ??_C@_04BMEMFAGD@minZ?$AA@ 100546f4     bsplib.obj
 0002:000016fc       ??_C@_0BB@HHFELCML@surfaceTexInfoID?$AA@ 100546fc     bsplib.obj
 0002:00001710       ??_C@_09LGKNDAKM@firstpoly?$AA@ 10054710     bsplib.obj
 0002:0000171c       ??_C@_09FHKLOLHG@polycount?$AA@ 1005471c     bsplib.obj
 0002:00001728       ??_C@_0BB@KCKOGCPC@firstvertexindex?$AA@ 10054728     bsplib.obj
 0002:0000173c       ??_C@_0M@LGFIEHAP@vertexcount?$AA@ 1005473c     bsplib.obj
 0002:00001748       ??_C@_04IAGNFIBA@size?$AA@ 10054748     bsplib.obj
 0002:00001750       ??_C@_03HLJILIDP@nId?$AA@  10054750     bsplib.obj
 0002:00001754       ??_C@_08ECOBNKEH@nTexInfo?$AA@ 10054754     bsplib.obj
 0002:00001760       ??_C@_0BL@BMLGJAII@m_nFaceCountAndRenderOrder?$AA@ 10054760     bsplib.obj
 0002:0000177c       ??_C@_06FBJMKLEP@aFaces?$AA@ 1005477c     bsplib.obj
 0002:00001784       ??_C@_03EGPHBDGJ@flU?$AA@  10054784     bsplib.obj
 0002:00001788       ??_C@_03GNNKEAKK@flV?$AA@  10054788     bsplib.obj
 0002:0000178c       ??_C@_0M@DNMEENHI@vecUVPoints?$AA@ 1005478c     bsplib.obj
 0002:00001798       ??_C@_09NFLAMELP@vecOrigin?$AA@ 10054798     bsplib.obj
 0002:000017a4       ??_C@_0P@BCDLPAHE@vecBasisNormal?$AA@ 100547a4     bsplib.obj
 0002:000017b4       ??_C@_0BA@OHDMMINB@flFadeDistMinSq?$AA@ 100547b4     bsplib.obj
 0002:000017c4       ??_C@_0BA@KCDOILFD@flFadeDistMaxSq?$AA@ 100547c4     bsplib.obj
 0002:000017d4       ??_C@_09NEJACIE@lumpCount?$AA@ 100547d4     bsplib.obj
 0002:000017e0       ??_C@_02EGCJHIOB@id?$AA@   100547e0     bsplib.obj
 0002:000017e4       ??_C@_06EJPGAGFJ@m_Name?$AA@ 100547e4     bsplib.obj
 0002:000017ec       ??_C@_08ECNOKJJC@m_Origin?$AA@ 100547ec     bsplib.obj
 0002:000017f8       ??_C@_08PILCLMDH@m_Angles?$AA@ 100547f8     bsplib.obj
 0002:00001804       ??_C@_0L@DKADNPBA@m_PropType?$AA@ 10054804     bsplib.obj
 0002:00001810       ??_C@_0M@PCPKPBEP@m_FirstLeaf?$AA@ 10054810     bsplib.obj
 0002:0000181c       ??_C@_0M@HIJBBFID@m_LeafCount?$AA@ 1005481c     bsplib.obj
 0002:00001828       ??_C@_07KCLBIANA@m_Solid?$AA@ 10054828     bsplib.obj
 0002:00001830       ??_C@_07ELHNBIGJ@m_Flags?$AA@ 10054830     bsplib.obj
 0002:00001838       ??_C@_06FKMGMEBJ@m_Skin?$AA@ 10054838     bsplib.obj
 0002:00001840       ??_C@_0O@NDJEDMNM@m_FadeMinDist?$AA@ 10054840     bsplib.obj
 0002:00001850       ??_C@_0O@DFPEJDDN@m_FadeMaxDist?$AA@ 10054850     bsplib.obj
 0002:00001860       ??_C@_0BB@LGCHAJAF@m_LightingOrigin?$AA@ 10054860     bsplib.obj
 0002:00001874       ??_C@_0BE@CDLLNLBJ@m_flForcedFadeScale?$AA@ 10054874     bsplib.obj
 0002:00001888       ??_C@_0O@DNAIOLB@m_nMinDXLevel?$AA@ 10054888     bsplib.obj
 0002:00001898       ??_C@_0O@MPNNPFLO@m_nMaxDXLevel?$AA@ 10054898     bsplib.obj
 0002:000018a8       ??_C@_06JOGDGIMJ@m_Leaf?$AA@ 100548a8     bsplib.obj
 0002:000018b0       ??_C@_0O@IFMDLEOF@m_DetailModel?$AA@ 100548b0     bsplib.obj
 0002:000018c0       ??_C@_0L@DIBKBJPK@m_Lighting?$AA@ 100548c0     bsplib.obj
 0002:000018cc       ??_C@_0O@JEEBDPBL@m_LightStyles?$AA@ 100548cc     bsplib.obj
 0002:000018dc       ??_C@_0BC@PMMMLGGN@m_LightStyleCount?$AA@ 100548dc     bsplib.obj
 0002:000018f0       ??_C@_0N@OCPKHEBL@m_SwayAmount?$AA@ 100548f0     bsplib.obj
 0002:00001900       ??_C@_0N@PHKBCMEN@m_ShapeAngle?$AA@ 10054900     bsplib.obj
 0002:00001910       ??_C@_0M@LMGIPCHC@m_ShapeSize?$AA@ 10054910     bsplib.obj
 0002:0000191c       ??_C@_0O@IEBBNBA@m_Orientation?$AA@ 1005491c     bsplib.obj
 0002:0000192c       ??_C@_0L@CKJLJANI@m_Padding2?$AA@ 1005492c     bsplib.obj
 0002:00001938       ??_C@_06OCPFMGCJ@m_Type?$AA@ 10054938     bsplib.obj
 0002:00001940       ??_C@_0L@DDIAKBJJ@m_Padding3?$AA@ 10054940     bsplib.obj
 0002:0000194c       ??_C@_09EBEAFDEH@m_flScale?$AA@ 1005494c     bsplib.obj
 0002:00001958       ??_C@_04PNKKEILI@m_UL?$AA@ 10054958     bsplib.obj
 0002:00001960       ??_C@_04DKBMOPJI@m_LR?$AA@ 10054960     bsplib.obj
 0002:00001968       ??_C@_07FKFDNKFP@m_TexUL?$AA@ 10054968     bsplib.obj
 0002:00001970       ??_C@_07JNOFHNHP@m_TexLR?$AA@ 10054970     bsplib.obj
 0002:00001978       ??_C@_07MNJGHCEE@m_Style?$AA@ 10054978     bsplib.obj
 0002:00001980       ??_C@_06MAPALLJB@m_nLod?$AA@ 10054980     bsplib.obj
 0002:00001988       ??_C@_0M@NBOPACBB@m_nVertexes?$AA@ 10054988     bsplib.obj
 0002:00001994       ??_C@_09FGLPPFBG@m_nOffset?$AA@ 10054994     bsplib.obj
 0002:000019a0       ??_C@_09BEMAELPI@m_nUnused?$AA@ 100549a0     bsplib.obj
 0002:000019ac       ??_C@_0L@JPACMPLE@m_nVersion?$AA@ 100549ac     bsplib.obj
 0002:000019b8       ??_C@_0M@LAEBCFFC@m_nChecksum?$AA@ 100549b8     bsplib.obj
 0002:000019c4       ??_C@_0P@LGPPEEMA@m_nVertexFlags?$AA@ 100549c4     bsplib.obj
 0002:000019d4       ??_C@_0O@ONPOBLGK@m_nVertexSize?$AA@ 100549d4     bsplib.obj
 0002:000019e4       ??_C@_09CHONMIDK@m_nMeshes?$AA@ 100549e4     bsplib.obj
 0002:000019f0       ??_C@_0CB@HNEIEEGN@Unknown?5occlusion?5lump?5version?$CB?6@ 100549f0     bsplib.obj
 0002:00001a14       ??_C@_0L@JODPFALJ@vphysicsID?$AA@ 10054a14     bsplib.obj
 0002:00001a20       ??_C@_09NOHACFLB@modelType?$AA@ 10054a20     bsplib.obj
 0002:00001a2c       ??_C@_0M@DBJCOOM@surfaceSize?$AA@ 10054a2c     bsplib.obj
 0002:00001a38       ??_C@_0O@IFELHGBJ@dragAxisAreas?$AA@ 10054a38     bsplib.obj
 0002:00001a48       ??_C@_0M@HLOKJILB@axisMapSize?$AA@ 10054a48     bsplib.obj
 0002:00001a54       ??_C@_08CCCKJNKJ@moppSize?$AA@ 10054a54     bsplib.obj
 0002:00001a60       ??_C@_0BJ@JDOEEAFA@odd?5size?5for?5LUMP_LEAFS?6?$AA@ 10054a60     bsplib.obj
 0002:00001a7c       ??_C@_0BM@KBEAGEDM@Unknown?5LUMP_LEAFS?5version?6?$AA@ 10054a7c     bsplib.obj
 0002:00001a98       ??_C@_0BJ@HHDOALOL@?6Press?5any?5key?5to?5quit?4?6?$AA@ 10054a98     cmdlib.obj
 0002:00001ab4       ??_C@_0CE@CLJFPNFI@Error?5trying?5to?5allocate?5?$CFd?5byte@ 10054ab4     cmdlib.obj
 0002:00001ad8       ??_C@_02DKCKIIND@?$CFs?$AA@ 10054ad8     cmdlib.obj
 0002:00001adc       ??_C@_01KICIPPFI@?2?$AA@   10054adc     cmdlib.obj
 0002:00001ae0       ??_C@_04HDOCAJNK@?$CFs?$CFs?$AA@ 10054ae0     cmdlib.obj
 0002:00001ae8       ??_C@_0M@BBODMOGM@?$CFd?5second?$CFs?$AA@ 10054ae8     cmdlib.obj
 0002:00001af4       ??_C@_0BJ@KMIJFNCM@?$CFd?5minute?$CFs?0?5?$CFd?5second?$CFs?$AA@ 10054af4     cmdlib.obj
 0002:00001b10       ??_C@_0CE@PALCMKJH@?$CFd?5hour?$CFs?0?5?$CFd?5minute?$CFs?0?5?$CFd?5secon@ 10054b10     cmdlib.obj
 0002:00001b34       ??_C@_01LKDEMHDF@s?$AA@    10054b34     cmdlib.obj
 0002:00001b38       ??_C@_0BO@EENJAGHE@CmdLib_InitFileSystem?5failed?4?$AA@ 10054b38     cmdlib.obj
 0002:00001b58       ??_C@_0BB@KKAAPNA@Error?5opening?5?$CFs?$AA@ 10054b58     cmdlib.obj
 0002:00001b6c       ??_C@_0BC@HMDGJKFB@Error?5opening?5?$CFs?6?$AA@ 10054b6c     cmdlib.obj
 0002:00001b80       ??_C@_0BC@OGGEBGDM@File?5read?5failure?$AA@ 10054b80     cmdlib.obj
 0002:00001b94       ??_C@_0BD@IHJMODLC@File?5write?5failure?$AA@ 10054b94     cmdlib.obj
 0002:00001ba8       ??_C@_03OFAPEBGM@?$CFs?6?$AA@ 10054ba8     cmdlib.obj
 0002:00001bac       ??_C@_01OGPIMHDM@?$DP?$AA@ 10054bac     cmdlib.obj
 0002:00001bb0       ??_C@_01NBENCBCI@?$CK?$AA@ 10054bb0     cmdlib.obj
 0002:00001bb4       ??_C@_0CP@DAHDEIHG@CmdLib_FPrintf?3?5can?8t?5allocate?5s@ 10054bb4     cmdlib.obj
 0002:00001be4       ??_C@_03EGHOKNNL@?6?6?6?$AA@ 10054be4     cmdlib.obj
 0002:00001be8       ??_C@_0BL@BBEKHHIC@Can?8t?5create?5LogFile?3?$CC?$CFs?$CC?6?$AA@ 10054be8     cmdlib.obj
 0002:00001c04       ??_C@_01MCMALHOG@a?$AA@    10054c04     cmdlib.obj
 0002:00001c08       __real@3a83126f            10054c08     collisionutils.obj
 0002:00001c0c       __real@bf800000            10054c0c     collisionutils.obj
 0002:00001c10       __real@3f000000            10054c10     collisionutils.obj
 0002:00001c14       __real@40000000            10054c14     collisionutils.obj
 0002:00001c18       __real@3ff0000000000000    10054c18     collisionutils.obj
 0002:00001c20       __real@c7c34f80            10054c20     collisionutils.obj
 0002:00001c24       ??_C@_0CJ@KFKDPFHE@Out?5of?5memory?4?5AllocStackWinding@ 10054c24     flow.obj
 0002:00001c50       ??_C@_0CA@BHKMEKMP@FreeStackWinding?3?5allready?5free?$AA@ 10054c50     flow.obj
 0002:00001c70       __real@bf847ae147ae147b    10054c70     flow.obj
 0002:00001c78       __real@3f847ae147ae147b    10054c78     flow.obj
 0002:00001c80       ??_C@_0N@KIHDBFHI@Wrote?5?$CFs?$CB?$CB?$CB?6?$AA@ 10054c80     flow.obj
 0002:00001c90       ??_C@_09MALOBAAJ@?$CFf?5?$CFf?5?$CFf?6?$AA@ 10054c90     flow.obj
 0002:00001c9c       ??_C@_0BC@ONJICBGP@Couldn?8t?5open?5?$CFs?6?$AA@ 10054c9c     flow.obj
 0002:00001cb0       ??_C@_01NOFIACDB@w?$AA@    10054cb0     flow.obj
 0002:00001cb4       ??_C@_06MBNJCGIN@?$CFs?4lin?$AA@ 10054cb4     flow.obj
 0002:00001cbc       ??_C@_0CC@HPKCKDEK@No?5trace?5generated?5from?5?$CFd?5to?5?$CFd@ 10054cbc     flow.obj
 0002:00001ce0       __real@41ce848000000000    10054ce0     flow.obj
 0002:00001ce8       ??_C@_0BJ@MINIFJIH@Dumped?5cluster?5trace?$CB?$CB?$CB?6?$AA@ 10054ce8     flow.obj
 0002:00001d04       ??_C@_0DC@MAAFJFBP@portal?3?$CF4i?5?5mightsee?3?$CF4i?5?5cansee@ 10054d04     flow.obj
 0002:00001d38       ??_C@_01CLKCMJKC@?5?$AA@   10054d38     loadcmdline.obj
 0002:00001d3c       ??_C@_0BI@GJGMGOAA@Command?5Line?5found?3?5?$CFs?6?$AA@ 10054d3c     loadcmdline.obj
 0002:00001d54       ??_C@_0BH@FPHGKPHF@?$CFs?1cfg?1commandline?4cfg?$AA@ 10054d54     loadcmdline.obj
 0002:00001d6c       ??_C@_0M@FMINHJIF@CommandLine?$AA@ 10054d6c     loadcmdline.obj
 0002:00001d7c       ??_7ISQLDBCommand@@6B@     10054d7c     mpi_stats.obj
 0002:00001d94       ??_C@_0O@PNHIGMNA@mysql_wrapper?$AA@ 10054d94     mpi_stats.obj
 0002:00001da4       ??_C@_0BA@JPGOEJJC@MySQLWrapper001?$AA@ 10054da4     mpi_stats.obj
 0002:00001db4       ??_C@_0CH@PNAKFGKH@?$CFs?5is?5not?5a?5valid?5database?5info?5@ 10054db4     mpi_stats.obj
 0002:00001ddc       ??_C@_0CC@DFIBLENO@Can?8t?5open?5?$CFs?5for?5database?5info?4@ 10054ddc     mpi_stats.obj
 0002:00001e00       ??_C@_02BMJICGCB@rt?$AA@   10054e00     mpi_stats.obj
 0002:00001e04       ??_C@_01KMDKNFGN@?1?$AA@   10054e04     mpi_stats.obj
 0002:00001e08       ??_C@_01LFCBOECM@?4?$AA@   10054e08     mpi_stats.obj
 0002:00001e0c       ??_C@_0BK@BOAPLJJ@GetModuleFileName?5failed?4?$AA@ 10054e0c     mpi_stats.obj
 0002:00001e28       ??_C@_0BL@HCECIFNB@?$CFs?5?9?5error?5launching?5?8?$CFs?8?6?$AA@ 10054e28     mpi_stats.obj
 0002:00001e48       ??_7CSQLDBCommand_TextMessage@@6B@ 10054e48     mpi_stats.obj
 0002:00001e64       ??_7CSQLDBCommand_WorkerStats@@6B@ 10054e64     mpi_stats.obj
 0002:00001e80       ??_C@_0FC@BAHGPOJL@update?5job_worker_start?5set?5Work@ 10054e80     mpi_stats.obj
 0002:00001ed4       ??_C@_0DK@NBFPGFAE@update?5job_master_start?5set?5NumW@ 10054ed4     mpi_stats.obj
 0002:00001f14       ??_7CSQLDBCommand_JobMasterEnd@@6B@ 10054f14     mpi_stats.obj
 0002:00001f30       ??_7CSQLDBCommand_GraphEntry@@6B@ 10054f30     mpi_stats.obj
 0002:00001f48       ??_C@_0P@JEKHFFKJ@?$CFs?5not?5enabled?$AA@ 10054f48     mpi_stats.obj
 0002:00001f58       ??_C@_0DO@KPADPPEG@update?5job_master_start?5set?5Runn@ 10054f58     mpi_stats.obj
 0002:00001f98       ??_C@_0DP@HDGOFHAI@insert?5into?5job_master_end?5value@ 10054f98     mpi_stats.obj
 0002:00001fd8       ??_C@_0IP@MCMBBGMF@update?5job_worker_start?5set?5Runn@ 10054fd8     mpi_stats.obj
 0002:00002068       ??_C@_0GP@EDFCLLOB@insert?5into?5graph_entry?5?$CIJobWork@ 10055068     mpi_stats.obj
 0002:000020d8       ??_C@_0FG@CEOKGCGH@insert?5into?5text_messages?5?$CIJobWo@ 100550d8     mpi_stats.obj
 0002:00002130       ??_C@_0GN@MMADCNAP@insert?5into?5job_worker_start?5?$CI?5J@ 10055130     mpi_stats.obj
 0002:000021a0       ??_C@_0HF@BACCOONC@insert?5into?5job_master_start?5?$CI?5B@ 100551a0     mpi_stats.obj
 0002:00002218       ??_C@_0CO@ICGPMGDB@VMPI_Stats_Init_Worker?$CI?5?$CFs?0?5?$CFs?0?5@ 10055218     mpi_stats.obj
 0002:00002248       ??_C@_0DA@KCNKMAAM@?6To?5watch?5this?5job?0?5run?5this?5com@ 10055248     mpi_stats.obj
 0002:00002278       ??_C@_0BJ@CEDKCIMI@vmpi_job_watch?5?9JobID?5?$CFd?$AA@ 10055278     mpi_stats.obj
 0002:00002294       ??_C@_0CO@LGLFBNP@VMPI_Stats_Init_Master?$CI?5?$CFs?0?5?$CFs?0?5@ 10055294     mpi_stats.obj
 0002:000022c4       ??_C@_0BA@HPENCGCJ@dbinfo_vvis?4txt?$AA@ 100552c4     mpivis.obj
 0002:000022d4       ??_C@_0BB@NBELHPEC@MPI_Init?5failed?4?$AA@ 100552d4     mpivis.obj
 0002:000022e8       ??_C@_0BJ@DAPPMHKI@dependency_info_vvis?4txt?$AA@ 100552e8     mpivis.obj
 0002:00002304       ??_C@_0BG@IMDCKLEB@Initializing?5VMPI?4?4?4?6?$AA@ 10055304     mpivis.obj
 0002:0000231c       ??_C@_04CJAOHEDH@?9mpi?$AA@ 1005531c     mpivis.obj
 0002:00002324       ??_C@_0CI@JEJFGCAK@Invalid?5packet?5in?5ReceiveBasePor@ 10055324     mpivis.obj
 0002:0000234c       ??_C@_0BF@KHAMBIAK@Duplicate?5portal?5?$CFd?6?$AA@ 1005534c     mpivis.obj
 0002:00002364       ??_C@_0CI@NOFJJEGA@Exited?5early?0?5using?5fastvis?5resu@ 10055364     mpivis.obj
 0002:0000238c       ??_C@_0CJ@HPBOJCHE@?6Exited?5early?0?5using?5fastvis?5res@ 1005538c     mpivis.obj
 0002:000023bc       ??_7CVisDistributeWorkCallbacks@@6B@ 100553bc     mpivis.obj
 0002:000023c4       ??_C@_0BB@CDKIBHLA@?6?6Exited?5menu?4?6?6?$AA@ 100553c4     mpivis.obj
 0002:000023d8       __real@3e99999a            100553d8     mpivis.obj
 0002:000023dc       ??_C@_0M@IMMFCAIH@scratch?4pad?$AA@ 100553dc     mpivis.obj
 0002:000023e8       ??_C@_0IB@KPPNEKE@?6?6Writing?5scratchpad?5file?4?6Comma@ 100553e8     mpivis.obj
 0002:00002470       ??_C@_0JB@GFCFPOLJ@?6?6?9?9?9?9?9?9?9?9?9?9?9?9?9?9?9?9?9?9?9?9?9?9?61?4?5Writ@ 10055470     mpivis.obj
 0002:00002504       ??_C@_0DH@NCJMLGF@?6?$CF?$CF?5worker?5CPU?5utilization?5durin@ 10055504     mpivis.obj
 0002:0000253c       ??_C@_0CF@EJKBGALO@Can?8t?5open?5?8?$CFs?8?5to?5read?5portal?5i@ 1005553c     mpivis.obj
 0002:00002564       ??_C@_0BL@MNAGEPGL@VMPI_VIRTUAL_FILES_PATH_ID?$AA@ 10055564     mpivis.obj
 0002:00002580       ??_C@_0BC@OCBJDJNJ@RecvPortalResults?$AA@ 10055580     mpivis.obj
 0002:00002594       ??_C@_0BD@MFBAMFPO@?9?9portal?9results?9?9?$AA@ 10055594     mpivis.obj
 0002:000025a8       ??_C@_0BC@OIOFODLP@SendPortalResults?$AA@ 100555a8     mpivis.obj
 0002:000025bc       ??_C@_06DGMHMLID@?5?$CI?$CFd?$CJ?6?$AA@ 100555bc     mpivis.obj
 0002:000025c4       ??_C@_0BE@JDDBLCEO@RunMPIBasePortalVis?$AA@ 100555c4     mpivis.obj
 0002:000025d8       ??_C@_06KMNNMBLO@?$CF?920s?5?$AA@ 100555d8     mpivis.obj
 0002:000025e0       ??_C@_0P@JCMFKHPL@BasePortalVis?3?$AA@ 100555e0     mpivis.obj
 0002:000025f0       ??_C@_0DK@DADOBOOB@?6?6portalbytes?3?5?$CFd?6Num?5Work?5Units@ 100555f0     mpivis.obj
 0002:0000262c       ??_C@_0M@IKDKFMDC@worker?5done?$AA@ 1005562c     mpivis.obj
 0002:00002638       ??_C@_0CF@HCNGOEML@VVIS?5worker?5finished?4?5Over?5and?5o@ 10055638     mpivis.obj
 0002:00002660       ??_C@_0CK@OELOGFJP@?$CF?41f?$CF?$CF?5CPU?5utilization?5during?5Po@ 10055660     mpivis.obj
 0002:0000268c       ??_C@_0DB@KFNACNIN@Received?5?$CFd?5?$CIout?5of?5?$CFd?$CJ?5portals?5@ 1005568c     mpivis.obj
 0002:000026c0       ??_C@_0BF@LDILIPLA@RunMPIBasePortalFlow?$AA@ 100556c0     mpivis.obj
 0002:000026d8       ??_C@_0EE@FFHLNAJF@RunMPIPortalFlow?3?5CreateThread?5f@ 100556d8     mpivis.obj
 0002:0000271c       ??_C@_0DM@GPLIPKMN@RunMPIPortalFlow?3?5CreateMulticas@ 1005571c     mpivis.obj
 0002:00002758       ??_C@_0BE@MCKPNOON@wait?5for?5MC?5address?$AA@ 10055758     mpivis.obj
 0002:0000276c       ??_C@_0DH@MJLEMGMG@RunMPIPortalFlow?3?5can?8t?5open?5a?5s@ 1005576c     mpivis.obj
 0002:000027a4       ??_C@_0P@GBKIOIEJ@MPIPortalFlow?3?$AA@ 100557a4     mpivis.obj
 0002:000027b8       ??_7CMySqlDatabase@@6B@    100557b8     MySqlDatabase.obj
 0002:000027c0       __real@42200000            100557c0     pacifier.obj
 0002:000027cc       ??_7IScratchPad3D@@6B@     100557cc     scratchpad3d.obj
 0002:00002814       __real@40400000            10055814     scratchpad3d.obj
 0002:0000281c       ??_7CBaseCommand@CScratchPad3D@@6B@ 1005581c     scratchpad3d.obj
 0002:00002824       ??_C@_0P@PAEMGLHD@VFileSystem017?$AA@ 10055824     scratchpad3d.obj
 0002:00002834       ??_C@_0BB@DHLFOMEN@filesystem_stdio?$AA@ 10055834     scratchpad3d.obj
 0002:0000284c       ??_7CCommand_Point@CScratchPad3D@@6B@ 1005584c     scratchpad3d.obj
 0002:00002858       ??_7CCommand_Line@CScratchPad3D@@6B@ 10055858     scratchpad3d.obj
 0002:00002864       ??_7CCommand_Matrix@CScratchPad3D@@6B@ 10055864     scratchpad3d.obj
 0002:00002870       ??_7CCommand_RenderState@CScratchPad3D@@6B@ 10055870     scratchpad3d.obj
 0002:00002878       ??_C@_03GAACFCKC@ab?$CL?$AA@ 10055878     scratchpad3d.obj
 0002:00002880       ??_7CCommand_Polygon@CScratchPad3D@@6B@ 10055880     scratchpad3d.obj
 0002:0000288c       ??_7CCommand_Text@CScratchPad3D@@6B@ 1005588c     scratchpad3d.obj
 0002:0000289c       ??_7CScratchPad3D@@6B@     1005589c     scratchpad3d.obj
 0002:000028e4       __real@38d1b717            100558e4     scratchpad3d.obj
 0002:000028e8       __real@3b80739b            100558e8     scratchpad3d.obj
 0002:000028ec       __real@42c80000            100558ec     scratchpad3d.obj
 0002:000028f0       __real@c2c80000            100558f0     scratchpad3d.obj
 0002:000028f4       ??_C@_0CC@KGOJGFKG@script?5file?5exceeded?5MAX_INCLUDE@ 100558f4     scriplib.obj
 0002:00002918       ??_C@_0BH@GPEKOEFF@Macro?5buffer?5overflow?6?$AA@ 10055918     scriplib.obj
 0002:00002930       ??_C@_0BM@NCGMJOHK@Token?5too?5large?5on?5line?5?$CFi?6?$AA@ 10055930     scriplib.obj
 0002:0000294c       ??_C@_0BH@EBCLMMIF@Macro?5expand?5overflow?6?$AA@ 1005594c     scriplib.obj
 0002:00002964       ??_C@_0CA@JGLJFGLA@unknown?5macro?5token?5?$CC?$CFs?$CC?5in?5?$CFs?6?$AA@ 10055964     scriplib.obj
 0002:00002984       ??_C@_0O@DIEIKEFB@memory?5buffer?$AA@ 10055984     scriplib.obj
 0002:00002994       ??_C@_0BH@IMFFIBJN@Line?5?$CFi?5is?5incomplete?6?$AA@ 10055994     scriplib.obj
 0002:000029ac       ??_C@_0CK@NIJIDEPG@ReadFileToBuffer?$CI?$CJ?3?5Error?5openin@ 100559ac     scriplib.obj
 0002:000029d8       ??_C@_06IHDMMOPO@?$CFs?4tmp?$AA@ 100559d8     scriplib.obj
 0002:000029e0       ??_C@_04IMHDFGMD@mgd_?$AA@ 100559e0     scriplib.obj
 0002:000029ec       ??_7CScriptLib@@6B@        100559ec     scriplib.obj
 0002:00002a08       ??_C@_0CD@EHIHBPDL@unknown?5variable?5token?5?$CC?$CFs?$CC?5in?5?$CF@ 10055a08     scriplib.obj
 0002:00002a2c       ??_C@_0BA@JJDJCKLN@$definevariable?$AA@ 10055a2c     scriplib.obj
 0002:00002a3c       ??_C@_0N@DFPGLGNC@$definemacro?$AA@ 10055a3c     scriplib.obj
 0002:00002a4c       ??_C@_08LNBPPNO@$include?$AA@ 10055a4c     scriplib.obj
 0002:00002a58       ??_C@_02DJGKEECL@?4?4?$AA@ 10055a58     scriplib.obj
 0002:00002a5c       ??_C@_02CEGDFPFP@?4?2?$AA@ 10055a5c     scriplib.obj
 0002:00002a60       ??_C@_03FFNGDGKN@tmp?$AA@  10055a60     scriplib.obj
 0002:00002a64       ??_C@_04FGEHGIFJ@temp?$AA@ 10055a64     scriplib.obj
 0002:00002a6c       ??_C@_0M@FBLNEIAD@?$CFi?5threads?6?$AA@ 10055a6c     threads.obj
 0002:00002a78       ??_C@_0BG@BEEOCMHK@Recursive?5ThreadLock?6?$AA@ 10055a78     threads.obj
 0002:00002a90       ??_C@_0BL@HADBLPO@ThreadUnlock?5without?5lock?6?$AA@ 10055a90     threads.obj
 0002:00002aac       ??_C@_06MEKNBDFO@?5?$CI?$CFi?$CJ?6?$AA@ 10055aac     threads.obj
 0002:00002ab8       ??_C@_0EC@CEHAKKAN@?6Received?5worker?5crash?5minidump?5@ 10055ab8     vmpi_tools_shared.obj
 0002:00002afc       ??_C@_0DF@ECPFANDO@?6Saved?5worker?5crash?5minidump?5?8?$CFs@ 10055afc     vmpi_tools_shared.obj
 0002:00002b34       ??_C@_0CP@FKGICCIC@?$CFs?2vmpi_?$CFs_on_?$CFs_?$CFd?$CF?42d?$CF2d?$CF?42d?$CF?4@ 10055b34     vmpi_tools_shared.obj
 0002:00002b64       ??_C@_02GPIGINON@c?3?$AA@  10055b64     vmpi_tools_shared.obj
 0002:00002b68       ??_C@_03FICNPLNB@TMP?$AA@  10055b68     vmpi_tools_shared.obj
 0002:00002b6c       ??_C@_04JKHNIKCB@TEMP?$AA@ 10055b6c     vmpi_tools_shared.obj
 0002:00002b74       ??_C@_0BH@GMABBDMG@?6Worker?5?8?$CFs?8?5dead?3?5?$CFs?6?$AA@ 10055b74     vmpi_tools_shared.obj
 0002:00002b8c       ??_C@_0BN@NPDFIMEK@?6FAILURE?3?5?8?$CFs?8?5?$CIassert?3?5?$CFd?$CJ?6?$AA@ 10055b8c     vmpi_tools_shared.obj
 0002:00002bac       ??_C@_0BC@MFHIJMHG@Error?5code?50x?$CF08X?$AA@ 10055bac     vmpi_tools_shared.obj
 0002:00002bc0       ??_C@_0BJ@FNEOPPMM@EXCEPTION_STACK_OVERFLOW?$AA@ 10055bc0     vmpi_tools_shared.obj
 0002:00002bdc       ??_C@_0BG@HPCFEJHG@EXCEPTION_SINGLE_STEP?$AA@ 10055bdc     vmpi_tools_shared.obj
 0002:00002bf4       ??_C@_0BL@HJPDFKEO@EXCEPTION_PRIV_INSTRUCTION?$AA@ 10055bf4     vmpi_tools_shared.obj
 0002:00002c10       ??_C@_0CD@JGPJMHJA@EXCEPTION_NONCONTINUABLE_EXCEPTI@ 10055c10     vmpi_tools_shared.obj
 0002:00002c34       ??_C@_0BO@GJKCLCLP@EXCEPTION_INVALID_DISPOSITION?$AA@ 10055c34     vmpi_tools_shared.obj
 0002:00002c54       ??_C@_0BH@HNBKDLPO@EXCEPTION_INT_OVERFLOW?$AA@ 10055c54     vmpi_tools_shared.obj
 0002:00002c6c       ??_C@_0BN@LBLGDPIG@EXCEPTION_INT_DIVIDE_BY_ZERO?$AA@ 10055c6c     vmpi_tools_shared.obj
 0002:00002c8c       ??_C@_0BI@BNDIILLI@EXCEPTION_IN_PAGE_ERROR?$AA@ 10055c8c     vmpi_tools_shared.obj
 0002:00002ca4       ??_C@_0BO@DLLOIENN@EXCEPTION_ILLEGAL_INSTRUCTION?$AA@ 10055ca4     vmpi_tools_shared.obj
 0002:00002cc4       ??_C@_0BI@CHKFJJC@EXCEPTION_FLT_UNDERFLOW?$AA@ 10055cc4     vmpi_tools_shared.obj
 0002:00002cdc       ??_C@_0BK@COBCCPEI@EXCEPTION_FLT_STACK_CHECK?$AA@ 10055cdc     vmpi_tools_shared.obj
 0002:00002cf8       ??_C@_0BH@LGFBHAFE@EXCEPTION_FLT_OVERFLOW?$AA@ 10055cf8     vmpi_tools_shared.obj
 0002:00002d10       ??_C@_0CA@JJDIIMDB@EXCEPTION_FLT_INVALID_OPERATION?$AA@ 10055d10     vmpi_tools_shared.obj
 0002:00002d30       ??_C@_0BN@KLCBBCKL@EXCEPTION_FLT_INEXACT_RESULT?$AA@ 10055d30     vmpi_tools_shared.obj
 0002:00002d50       ??_C@_0BN@PHPNMCML@EXCEPTION_FLT_DIVIDE_BY_ZERO?$AA@ 10055d50     vmpi_tools_shared.obj
 0002:00002d70       ??_C@_0BP@NMNHALMC@EXCEPTION_FLT_DENORMAL_OPERAND?$AA@ 10055d70     vmpi_tools_shared.obj
 0002:00002d90       ??_C@_0CA@LEJEDDLG@EXCEPTION_DATATYPE_MISALIGNMENT?$AA@ 10055d90     vmpi_tools_shared.obj
 0002:00002db0       ??_C@_0BF@FLLDOCJP@EXCEPTION_BREAKPOINT?$AA@ 10055db0     vmpi_tools_shared.obj
 0002:00002dc8       ??_C@_0CA@JNIHFDGO@EXCEPTION_ARRAY_BOUNDS_EXCEEDED?$AA@ 10055dc8     vmpi_tools_shared.obj
 0002:00002de8       ??_C@_0BL@CMOMFGDN@EXCEPTION_ACCESS_VIOLATION?$AA@ 10055de8     vmpi_tools_shared.obj
 0002:00002e04       ??_C@_0BB@DGPLGLPD@Worker?5quitting?4?$AA@ 10055e04     vmpi_tools_shared.obj
 0002:00002e18       ??_C@_0BF@IBMFMPIL@?$CFd?5workers?5remain?4?6?6?$AA@ 10055e18     vmpi_tools_shared.obj
 0002:00002e30       ??_C@_0CO@ODPIGCJH@?6?6?9?9?9?5WARNING?3?5lost?5connection?5t@ 10055e30     vmpi_tools_shared.obj
 0002:00002e60       ??_C@_0BE@INCGBJA@invalid?5packet?5size?$AA@ 10055e60     vmpi_tools_shared.obj
 0002:00002e74       ??_C@_0BO@KBBNAIKL@NewWinding?3?5?$CFi?5points?0?5max?5?$CFd?$AA@ 10055e74     vvis.obj
 0002:00002e94       ??_C@_0BK@GKIAFPLM@Vismap?5expansion?5overflow?$AA@ 10055e94     vvis.obj
 0002:00002eb0       ??_C@_0M@OGEIHEGO@PortalFlow?3?$AA@ 10055eb0     vvis.obj
 0002:00002ebc       ??_C@_0BO@OBPBPCKD@Average?5clusters?5audible?3?5?$CFi?6?$AA@ 10055ebc     vvis.obj
 0002:00002edc       ??_C@_0P@CDDANIHI@Bad?5bit?5in?5PVS?$AA@ 10055edc     vvis.obj
 0002:00002eec       ??_C@_0BB@ILIICCGJ@Building?5PAS?4?4?4?6?$AA@ 10055eec     vvis.obj
 0002:00002f00       ??_C@_04COJADHCL@farz?$AA@ 10055f00     vvis.obj
 0002:00002f08       ??_C@_0BD@CFNFEIAC@env_fog_controller?$AA@ 10055f08     vvis.obj
 0002:00002f1c       ??_C@_09CNJINBGN@classname?$AA@ 10055f1c     vvis.obj
 0002:00002f28       ??_C@_0BM@FHMHAFJB@VBSP?3?5Unknown?5option?5?$CC?$CFs?$CC?6?6?$AA@ 10055f28     vvis.obj
 0002:00002f44       ??_C@_0BA@CJFLDFHJ@verbose?5?$DN?5true?6?$AA@ 10055f44     vvis.obj
 0002:00002f54       ??_C@_06NIKDPCHB@?9steam?$AA@ 10055f54     vvis.obj
 0002:00002f5c       ??_C@_0M@OJHILNKA@?9allowdebug?$AA@ 10055f5c     vvis.obj
 0002:00002f68       ??_C@_05FACLEBO@?9game?$AA@ 10055f68     vvis.obj
 0002:00002f70       ??_C@_09NFNCOJPN@?9vproject?$AA@ 10055f70     vvis.obj
 0002:00002f7c       ??_C@_0L@JACELBLD@?9NoVConfig?$AA@ 10055f7c     vvis.obj
 0002:00002f88       ??_C@_0P@EOOCKJDE@?9FullMinidumps?$AA@ 10055f88     vvis.obj
 0002:00002f98       ??_C@_04FCIJMIMA@?9low?$AA@ 10055f98     vvis.obj
 0002:00002fa0       ??_C@_04PBCBKGHJ@?1tmp?$AA@ 10055fa0     vvis.obj
 0002:00002fa8       ??_C@_06OKKPJCOM@?9tmpin?$AA@ 10055fa8     vvis.obj
 0002:00002fb0       ??_C@_0P@PBALAHLG@nosort?5?$DN?5true?6?$AA@ 10055fb0     vvis.obj
 0002:00002fc0       ??_C@_07BLJEKAKA@?9nosort?$AA@ 10055fc0     vvis.obj
 0002:00002fc8       ??_C@_0CD@LGEGEFOC@Tracing?5vis?5from?5cluster?5?$CFd?5to?5?$CF@ 10055fc8     vvis.obj
 0002:00002fec       ??_C@_06ONJPOFI@?9trace?$AA@ 10055fec     vvis.obj
 0002:00002ff4       ??_C@_0BE@JDOKAEOP@Vis?5Radius?5?$DN?5?$CF4?42f?6?$AA@ 10055ff4     vvis.obj
 0002:00003008       ??_C@_0BB@MCMGLGFO@?9radius_override?$AA@ 10056008     vvis.obj
 0002:0000301c       ??_C@_08FBJJFDKJ@?9verbose?$AA@ 1005601c     vvis.obj
 0002:00003028       ??_C@_02EJEOCNCO@?9v?$AA@  10056028     vvis.obj
 0002:0000302c       ??_C@_0BA@DLLFEMHI@fastvis?5?$DN?5true?6?$AA@ 1005602c     vvis.obj
 0002:0000303c       ??_C@_05HNADDAME@?9fast?$AA@ 1005603c     vvis.obj
 0002:00003044       ??_C@_08CFGFJOBF@?9threads?$AA@ 10056044     vvis.obj
 0002:00003050       ??_C@_02PHMGELLB@?6?6?$AA@ 10056050     vvis.obj
 0002:00003054       ??_C@_05NKLPODEL@?$CC?$CFs?$CC?5?$AA@ 10056054     vvis.obj
 0002:0000305c       ??_C@_0P@IFCDDMDK@Command?5line?3?5?$AA@ 1005605c     vvis.obj
 0002:00003070       ??_C@_0FEG@CEAGJMHP@usage?5?5?3?5vvis?5?$FLoptions?4?4?4?$FN?5bspfi@ 10056070     vvis.obj
 0002:000035bc       ??_7CVVisDLL@@6B@          100565bc     vvis.obj
 0002:000035c0       ??_C@_0BL@BBNGDGFJ@cluster?5?$CF4i?5?3?5?$CF4i?5visible?6?$AA@ 100565c0     vvis.obj
 0002:000035dc       ??_C@_0BK@LJKOODPC@portal?5not?5done?5?$CFd?5?$CFd?5?$CFd?6?$AA@ 100565dc     vvis.obj
 0002:000035f8       ??_C@_0BO@KGFKCDBE@Average?5clusters?5visible?3?5?$CFi?6?$AA@ 100565f8     vvis.obj
 0002:00003618       ??_C@_0BM@FFDBNMLB@Total?5clusters?5visible?3?5?$CFi?6?$AA@ 10056618     vvis.obj
 0002:00003634       ??_C@_0CJ@JKANLMLL@Optimized?3?5?$CFd?5visible?5clusters?5?$CI@ 10056634     vvis.obj
 0002:00003660       __real@477fff00            10056660     vvis.obj
 0002:00003664       ??_C@_0BA@MANBOAOF@?$CI?$CFlf?5?$CFlf?5?$CFlf?5?$CJ?5?$AA@ 10056664     vvis.obj
 0002:00003674       ??_C@_0CL@ILIGGBLP@LoadPortals?3?5portal?5?$CFi?5has?5too?5m@ 10056674     vvis.obj
 0002:000036a0       ??_C@_0BP@MFAGACOI@LoadPortals?3?5reading?5portal?5?$CFi?$AA@ 100566a0     vvis.obj
 0002:000036c0       ??_C@_09IKGGOGBI@?$CFi?5?$CFi?5?$CFi?5?$AA@ 100566c0     vvis.obj
 0002:000036cc       ??_C@_0DI@DGOFPJIB@The?5map?5overflows?5the?5max?5portal@ 100566cc     vvis.obj
 0002:00003704       ??_C@_0BA@KINFPEFK@?$CF4i?5numportals?6?$AA@ 10056704     vvis.obj
 0002:00003714       ??_C@_0BE@GIIEEPCH@?$CF4i?5portalclusters?6?$AA@ 10056714     vvis.obj
 0002:00003728       ??_C@_0CC@HBPPAFNI@LoadPortals?5?$CFs?3?5not?5a?5portal?5fil@ 10056728     vvis.obj
 0002:0000374c       ??_C@_04MNCCIBNO@PRT1?$AA@ 1005674c     vvis.obj
 0002:00003754       ??_C@_0CG@HBFOHFFI@LoadPortals?5?$CFs?3?5failed?5to?5read?5h@ 10056754     vvis.obj
 0002:0000377c       ??_C@_0M@BLCKJGOM@?$CF79s?6?$CFi?6?$CFi?6?$AA@ 1005677c     vvis.obj
 0002:00003788       ??_C@_0BP@PPEIPGEB@LoadPortals?3?5couldn?8t?5read?5?$CFs?6?$AA@ 10056788     vvis.obj
 0002:000037a8       ??_C@_04JMNHBHGM@rSTD?$AA@ 100567a8     vvis.obj
 0002:000037b0       ??_C@_02BKFDOEMK@wt?$AA@   100567b0     vvis.obj
 0002:000037b4       ??_C@_0DD@OBLDMNHK@LoadPortals?$CI?5?$CFs?5?$CJ?3?5couldn?8t?5get?5@ 100567b4     vvis.obj
 0002:000037e8       ??_C@_01KDCPPGHE@r?$AA@    100567e8     vvis.obj
 0002:000037ec       ??_C@_0CG@DKHDKHPG@LoadPortals?3?5GetTempFileName?5fai@ 100567ec     vvis.obj
 0002:00003814       ??_C@_0N@NOIDICFB@vvis_portal_?$AA@ 10056814     vvis.obj
 0002:00003824       ??_C@_0CC@KNMPMKKD@LoadPortals?3?5GetTempPath?5failed?4@ 10056824     vvis.obj
 0002:00003848       ??_C@_0M@JMMNIPIN@?$CFs?5elapsed?6?$AA@ 10056848     vvis.obj
 0002:00003854       ??_C@_0CB@FAIMOIB@Can?8t?5compile?5trace?5in?5MPI?5mode?6@ 10056854     vvis.obj
 0002:00003878       ??_C@_0DJ@PPBLLBEC@Invalid?5cluster?5trace?3?5?$CFd?5to?5?$CFd?0@ 10056878     vvis.obj
 0002:000038b4       ??_C@_0M@JKCPKPL@writing?5?$CFs?6?$AA@ 100568b4     vvis.obj
 0002:000038c0       ??_C@_0CE@OIKPLDLE@visdatasize?3?$CFi?5?5compressed?5from?5@ 100568c0     vvis.obj
 0002:000038e4       ??_C@_04DADFDJNH@?4prt?$AA@ 100568e4     vvis.obj
 0002:000038ec       ??_C@_09DPDHNMAE@Empty?5map?$AA@ 100568ec     vvis.obj
 0002:000038f8       ??_C@_0M@KJNLFOCG@reading?5?$CFs?6?$AA@ 100568f8     vvis.obj
 0002:00003904       ??_C@_06BEJGOBHG@?$CFs?4log?$AA@ 10056904     vvis.obj
 0002:0000390c       ??_C@_04ECAPDIFH@vvis?$AA@ 1005690c     vvis.obj
 0002:00003914       ??_C@_0CA@KMAOGAIF@Valve?5Software?5?9?5vvis?4exe?5?$CI?$CFs?$CJ?6?$AA@ 10056914     vvis.obj
 0002:00003934       ??_C@_0M@DKONODBL@Sep?520?52011?$AA@ 10056934     vvis.obj
 0002:00003940       __real@400ccccd            10056940     vvis.obj
 0002:00003944       ??_C@_0BB@EFNBGOD@launchable_dll_1?$AA@ 10056944     vvis.obj
 0002:00003958       ??_C@_0BK@FBHKPEMJ@ZIP_PreloadDirectoryEntry?$AA@ 10056958     zip_utils.obj
 0002:00003974       ??_C@_0BC@HEOACHKI@ZIP_PreloadHeader?$AA@ 10056974     zip_utils.obj
 0002:00003988       ??_C@_0BE@DFBHNPNK@ZIP_LocalFileHeader?$AA@ 10056988     zip_utils.obj
 0002:0000399c       ??_C@_0P@DELNDGBJ@ZIP_FileHeader?$AA@ 1005699c     zip_utils.obj
 0002:000039ac       ??_C@_0BK@HMMNJNAE@ZIP_EndOfCentralDirRecord?$AA@ 100569ac     zip_utils.obj
 0002:000039c8       ??_C@_0BD@DIHGEHMN@?$CFd_?$CFd_?$CFd_?$CFd_?$CFd?4tmp?$AA@ 100569c8     zip_utils.obj
 0002:000039dc       ??_C@_07PDHECPID@_?$CFs?4tmp?$AA@ 100569dc     zip_utils.obj
 0002:000039e8       ??_7CFileStream@@6B@       100569e8     zip_utils.obj
 0002:000039f0       ??_C@_08CBJJBCAI@XZP?$CFc?5?$CFd?$AA@ 100569f0     zip_utils.obj
 0002:000039fc       ??_C@_03LJCPBJM@XZP?$AA@   100569fc     zip_utils.obj
 0002:00003a04       ??_7CBufferStream@@6B@     10056a04     zip_utils.obj
 0002:00003a0c       ??_C@_0BG@EMENODEA@CUtlRBTree?5overflow?$CB?6?$AA@ 10056a0c     zip_utils.obj
 0002:00003a24       ??_C@_09CMIIOJHF@signature?$AA@ 10056a24     zip_utils.obj
 0002:00003a30       ??_C@_0BB@LEECKDMO@numberOfThisDisk?$AA@ 10056a30     zip_utils.obj
 0002:00003a44       ??_C@_0CL@OMGIEOOH@numberOfTheDiskWithStartOfCentra@ 10056a44     zip_utils.obj
 0002:00003a70       ??_C@_0CC@CAOEOPLI@nCentralDirectoryEntries_ThisDis@ 10056a70     zip_utils.obj
 0002:00003a94       ??_C@_0BP@GOGNIAAK@nCentralDirectoryEntries_Total?$AA@ 10056a94     zip_utils.obj
 0002:00003ab4       ??_C@_0BF@DGGHGBPA@centralDirectorySize?$AA@ 10056ab4     zip_utils.obj
 0002:00003acc       ??_C@_0BI@PHNJPAJL@startOfCentralDirOffset?$AA@ 10056acc     zip_utils.obj
 0002:00003ae4       ??_C@_0O@PEAODJEB@commentLength?$AA@ 10056ae4     zip_utils.obj
 0002:00003af4       ??_C@_0O@OABAGKLC@versionMadeBy?$AA@ 10056af4     zip_utils.obj
 0002:00003b04       ??_C@_0BH@KAODBOOK@versionNeededToExtract?$AA@ 10056b04     zip_utils.obj
 0002:00003b1c       ??_C@_0BC@JMCGMPDB@compressionMethod?$AA@ 10056b1c     zip_utils.obj
 0002:00003b30       ??_C@_0BB@LHLABCIP@lastModifiedTime?$AA@ 10056b30     zip_utils.obj
 0002:00003b44       ??_C@_0BB@BBDDFBN@lastModifiedDate?$AA@ 10056b44     zip_utils.obj
 0002:00003b58       ??_C@_05KBIBMHFC@crc32?$AA@ 10056b58     zip_utils.obj
 0002:00003b60       ??_C@_0P@IEFIMPBE@compressedSize?$AA@ 10056b60     zip_utils.obj
 0002:00003b70       ??_C@_0BB@BDLNGEJN@uncompressedSize?$AA@ 10056b70     zip_utils.obj
 0002:00003b84       ??_C@_0P@GEFKFGAH@fileNameLength?$AA@ 10056b84     zip_utils.obj
 0002:00003b94       ??_C@_0BB@MBCIFNFD@extraFieldLength?$AA@ 10056b94     zip_utils.obj
 0002:00003ba8       ??_C@_0BC@JLPEPFDC@fileCommentLength?$AA@ 10056ba8     zip_utils.obj
 0002:00003bbc       ??_C@_0BA@EPOPKLNJ@diskNumberStart?$AA@ 10056bbc     zip_utils.obj
 0002:00003bcc       ??_C@_0BE@CBMOBGJC@internalFileAttribs?$AA@ 10056bcc     zip_utils.obj
 0002:00003be0       ??_C@_0BE@HMGGBLGA@externalFileAttribs?$AA@ 10056be0     zip_utils.obj
 0002:00003bf4       ??_C@_0BM@OJCDHDKM@relativeOffsetOfLocalHeader?$AA@ 10056bf4     zip_utils.obj
 0002:00003c10       ??_C@_07NGFJPNPN@Version?$AA@ 10056c10     zip_utils.obj
 0002:00003c18       ??_C@_0BB@GFAJHKJ@DirectoryEntries?$AA@ 10056c18     zip_utils.obj
 0002:00003c2c       ??_C@_0BI@IAOOMPJP@PreloadDirectoryEntries?$AA@ 10056c2c     zip_utils.obj
 0002:00003c44       ??_C@_09FBMAGD@Alignment?$AA@ 10056c44     zip_utils.obj
 0002:00003c50       ??_C@_06MHCOIGNA@Length?$AA@ 10056c50     zip_utils.obj
 0002:00003c58       ??_C@_0L@HLJLKILN@DataOffset?$AA@ 10056c58     zip_utils.obj
 0002:00003c6c       ??_7CZip@@6B@              10056c6c     zip_utils.obj
 0002:00003cbc       ?nanmask@@3HB              10056cbc     mathlib:mathlib_base.obj
 0002:00003cc0       __real@34000000            10056cc0     mathlib:mathlib_base.obj
 0002:00003cc8       __real@3f70000000000000    10056cc8     mathlib:mathlib_base.obj
 0002:00003cd0       __real@400921fb54442d18    10056cd0     mathlib:mathlib_base.obj
 0002:00003cd8       __real@4000000000000000    10056cd8     mathlib:mathlib_base.obj
 0002:00003ce0       __real@43b40000            10056ce0     mathlib:mathlib_base.obj
 0002:00003ce8       __real@3fd45f306dc9c883    10056ce8     mathlib:mathlib_base.obj
 0002:00003cf0       __real@43340000            10056cf0     mathlib:mathlib_base.obj
 0002:00003cf4       __real@42b40000            10056cf4     mathlib:mathlib_base.obj
 0002:00003cf8       __real@43870000            10056cf8     mathlib:mathlib_base.obj
 0002:00003cfc       __real@47c34f80            10056cfc     mathlib:mathlib_base.obj
 0002:00003d00       __real@3fe0000000000000    10056d00     mathlib:mathlib_base.obj
 0002:00003d08       __real@3e800000            10056d08     mathlib:mathlib_base.obj
 0002:00003d0c       __real@3e000000            10056d0c     mathlib:mathlib_base.obj
 0002:00003d10       ?Four_PointFives@@3T__m128@@B 10056d10     mathlib:sseconst.obj
 0002:00003d20       ?Four_Zeros@@3T__m128@@B   10056d20     mathlib:sseconst.obj
 0002:00003d30       ?Four_Ones@@3T__m128@@B    10056d30     mathlib:sseconst.obj
 0002:00003d40       ?Four_Twos@@3T__m128@@B    10056d40     mathlib:sseconst.obj
 0002:00003d50       ?Four_Threes@@3T__m128@@B  10056d50     mathlib:sseconst.obj
 0002:00003d60       ?Four_Fours@@3T__m128@@B   10056d60     mathlib:sseconst.obj
 0002:00003d70       ?Four_Origin@@3T__m128@@B  10056d70     mathlib:sseconst.obj
 0002:00003d80       ?Four_NegativeOnes@@3T__m128@@B 10056d80     mathlib:sseconst.obj
 0002:00003d90       ?Four_2ToThe21s@@3T__m128@@B 10056d90     mathlib:sseconst.obj
 0002:00003da0       ?Four_2ToThe22s@@3T__m128@@B 10056da0     mathlib:sseconst.obj
 0002:00003db0       ?Four_2ToThe23s@@3T__m128@@B 10056db0     mathlib:sseconst.obj
 0002:00003dc0       ?Four_2ToThe24s@@3T__m128@@B 10056dc0     mathlib:sseconst.obj
 0002:00003dd0       ?Four_Point225s@@3T__m128@@B 10056dd0     mathlib:sseconst.obj
 0002:00003de0       ?Four_Epsilons@@3T__m128@@B 10056de0     mathlib:sseconst.obj
 0002:00003df0       ?Four_FLT_MAX@@3T__m128@@B 10056df0     mathlib:sseconst.obj
 0002:00003e00       ?Four_Negative_FLT_MAX@@3T__m128@@B 10056e00     mathlib:sseconst.obj
 0002:00003e10       ?g_SIMD_0123@@3T__m128@@B  10056e10     mathlib:sseconst.obj
 0002:00003e20       ?g_SIMD_clear_signmask@@3QBHB 10056e20     mathlib:sseconst.obj
 0002:00003e30       ?g_SIMD_signmask@@3QBHB    10056e30     mathlib:sseconst.obj
 0002:00003e40       ?g_SIMD_lsbmask@@3QBHB     10056e40     mathlib:sseconst.obj
 0002:00003e50       ?g_SIMD_clear_wmask@@3QBHB 10056e50     mathlib:sseconst.obj
 0002:00003e60       ?g_SIMD_AllOnesMask@@3QBHB 10056e60     mathlib:sseconst.obj
 0002:00003e70       ?g_SIMD_Low16BitsMask@@3QBHB 10056e70     mathlib:sseconst.obj
 0002:00003e80       ?g_SIMD_ComponentMask@@3QAY03$$CBHA 10056e80     mathlib:sseconst.obj
 0002:00003ec0       ?g_SIMD_SkipTailMask@@3QAY03$$CBHA 10056ec0     mathlib:sseconst.obj
 0002:00003f00       __real@40019999a0000000    10056f00     mathlib:color_conversion.obj
 0002:00003f08       __real@3fdd1745c0000000    10056f08     mathlib:color_conversion.obj
 0002:00003f10       __real@437f0000            10056f10     mathlib:color_conversion.obj
 0002:00003f18       __real@3f50000000000000    10056f18     mathlib:color_conversion.obj
 0002:00003f20       __real@406fe00000000000    10056f20     mathlib:color_conversion.obj
 0002:00003f28       __real@3fec000000000000    10056f28     mathlib:color_conversion.obj
 0002:00003f30       __real@3f50040100401004    10056f30     mathlib:color_conversion.obj
 0002:00003f38       __real@3b808081            10056f38     mathlib:color_conversion.obj
 0002:00003f40       __real@3fc0000000000000    10056f40     mathlib:color_conversion.obj
 0002:00003f48       __real@3fb3333333333333    10056f48     mathlib:color_conversion.obj
 0002:00003f50       __real@3d4ccccd            10056f50     mathlib:color_conversion.obj
 0002:00004020       ??_C@_0CH@DNILKGJA@V_AppendSlash?3?5ran?5out?5of?5space?5@ 10057020     tier1:strtools.obj
 0002:00004048       ??_C@_01JOAMLHOP@?9?$AA@   10057048     tier1:strtools.obj
 0002:0000404c       ??_C@_03OOAAEEIB@?4?$CFc?$AA@ 1005704c     tier1:strtools.obj
 0002:00004050       ??_C@_02CAHBHFGK@?4?1?$AA@ 10057050     tier1:strtools.obj
 0002:00004054       ??_C@_0DB@FOILCOJM@V_MakeAbsolutePath?3?5tried?5to?5?$CC?4?4@ 10057054     tier1:strtools.obj
 0002:00004088       ??_C@_0CE@INIPJBEP@V_MakeAbsolutePath?3?5_getcwd?5fail@ 10057088     tier1:strtools.obj
 0002:000040ac       ??_C@_01BJJEKLCA@?$CC?$AA@ 100570ac     tier1:utlbuffer.obj
 0002:000040b0       ??_C@_01GEODFPGF@?8?$AA@   100570b0     tier1:utlbuffer.obj
 0002:000040b4       ??_C@_01INIBCBCB@f?$AA@    100570b4     tier1:utlbuffer.obj
 0002:000040b8       ??_C@_01OJONOECF@b?$AA@    100570b8     tier1:utlbuffer.obj
 0002:000040bc       ??_C@_01PFHFFBPC@t?$AA@    100570bc     tier1:utlbuffer.obj
 0002:000040c0       ??_C@_01EFFIKLCJ@n?$AA@    100570c0     tier1:utlbuffer.obj
 0002:000040c8       ??_7CUtlCharConversion@@6B@ 100570c8     tier1:utlbuffer.obj
 0002:000040d0       ??_7CUtlNoEscConversion@@6B@ 100570d0     tier1:utlbuffer.obj
 0002:000040d8       ??_7CUtlCStringConversion@@6B@ 100570d8     tier1:utlbuffer.obj
 0002:000040dc       ??_C@_02HAOIJKIC@?$CFc?$AA@ 100570dc     tier1:utlbuffer.obj
 0002:000044e0       ??_C@_04HLONOPDM@?4dll?$AA@ 100574e0     tier1:interface.obj
 0002:000044e8       ??_C@_0BM@OIEJAJOK@Module?5?$CFs?5is?5a?5debug?5build?6?$AA@ 100574e8     tier1:interface.obj
 0002:00004504       ??_C@_0L@EJCNAOMG@BuiltDebug?$AA@ 10057504     tier1:interface.obj
 0002:00004510       ??_C@_09ILGMALND@?$CFs?1bin?1?$CFs?$AA@ 10057510     tier1:interface.obj
 0002:0000451c       ??_C@_05GFOLEBJA@?$CFs?1?$CFs?$AA@ 1005751c     tier1:interface.obj
 0002:00004524       ??_C@_04MMFEEKAB@bin?1?$AA@ 10057524     tier1:interface.obj
 0002:0000452c       ??_C@_0BA@OBHPCBFP@CreateInterface?$AA@ 1005752c     tier1:interface.obj
 0002:0000453c       ??_C@_07CIFAGBMG@unknown?$AA@ 1005753c     tier1:KeyValues.obj
 0002:00004544       ??_C@_04HIBGFPH@NULL?$AA@  10057544     tier1:KeyValues.obj
 0002:0000454c       ??_C@_08KKMCJABH@?$CI?$CK?$CFs?$CK?$CJ?0?5?$AA@ 1005754c     tier1:KeyValues.obj
 0002:00004558       ??_C@_04ONKFDMMC@?$CFs?0?5?$AA@ 10057558     tier1:KeyValues.obj
 0002:00004560       ??_C@_0CA@NDDGCEEP@KeyValues?5Error?3?5?$CFs?5in?5file?5?$CFs?6?$AA@ 10057560     tier1:KeyValues.obj
 0002:00004580       ??_C@_0BE@CCEENLEF@?5ReadToken?5overflow?$AA@ 10057580     tier1:KeyValues.obj
 0002:00004594       ??_C@_08HHEPHHEL@?$FL$WIN32?$FN?$AA@ 10057594     tier1:KeyValues.obj
 0002:000045a0       ??_C@_02NJPGOMH@?$CFf?$AA@ 100575a0     tier1:KeyValues.obj
 0002:000045a4       ??_C@_05OKCMKDO@?$CFI64i?$AA@ 100575a4     tier1:KeyValues.obj
 0002:000045b0       ??_C@_0EA@NBPAKPMP@RecursiveLoadFromBuffer?3?5?5got?5co@ 100575b0     tier1:KeyValues.obj
 0002:000045f0       ??_C@_0CH@FAEPDIPE@RecursiveLoadFromBuffer?3?5?5got?5?$HN?5@ 100575f0     tier1:KeyValues.obj
 0002:00004618       ??_C@_0CH@HEKCOJBB@RecursiveLoadFromBuffer?3?5?5got?5NU@ 10057618     tier1:KeyValues.obj
 0002:00004640       ??_C@_0CM@EGPGDPNF@RecursiveLoadFromBuffer?3?5?5got?5em@ 10057640     tier1:KeyValues.obj
 0002:0000466c       ??_C@_0DF@BNKODCEE@RecursiveLoadFromBuffer?3?5?5got?5EO@ 1005766c     tier1:KeyValues.obj
 0002:000046a8       ??_C@_0EH@OAIGODPC@KeyValues?3?3ParseIncludedKeys?3?5Co@ 100576a8     tier1:KeyValues.obj
 0002:000046f0       ??_C@_0BK@NIPBBFNB@LoadFromBuffer?3?5missing?5?$HL?$AA@ 100576f0     tier1:KeyValues.obj
 0002:0000470c       ??_C@_0P@NHINIODK@?$CDbase?5is?5NULL?5?$AA@ 1005770c     tier1:KeyValues.obj
 0002:0000471c       ??_C@_05OBFANEGE@?$CDbase?$AA@ 1005771c     tier1:KeyValues.obj
 0002:00004724       ??_C@_0BC@NGELGJPP@?$CDinclude?5is?5NULL?5?$AA@ 10057724     tier1:KeyValues.obj
 0002:00004738       ??_C@_08GPLAJCBH@?$CDinclude?$AA@ 10057738     tier1:KeyValues.obj
 0002:00004744       ??_C@_04FOKBGDA@GAME?$AA@  10057744     vmpi:filesystem_tools.obj
 0002:0000474c       ??_C@_0M@CHBCHPDB@?4?4?1platform?$AA@ 1005774c     vmpi:filesystem_tools.obj
 0002:00004758       ??_C@_08FONOGHLN@PLATFORM?$AA@ 10057758     vmpi:filesystem_tools.obj
 0002:00004768       ??_C@_0GC@OMFCLCAL@Similar?5to?5?9mpi_AutoLocalWorker?0@ 10057768     vmpi:vmpi.obj
 0002:000047cc       ??_C@_0L@NNMFBFMC@?9mpi_Local?$AA@ 100577cc     vmpi:vmpi.obj
 0002:000047d8       ??_C@_0DG@POMBKGPE@Automatically?5launches?5vmpi_job_@ 100577d8     vmpi:vmpi.obj
 0002:00004810       ??_C@_0P@HIKJGOCM@?9mpi_Job_Watch?$AA@ 10057810     vmpi:vmpi.obj
 0002:00004820       ??_C@_0FA@JEMHPCNE@Calculate?5a?5CRC?5for?5shuffled?5wor@ 10057820     vmpi:vmpi.obj
 0002:00004870       ??_C@_0BE@OIOKPNBL@?9mpi_CalcShuffleCRC?$AA@ 10057870     vmpi:vmpi.obj
 0002:00004888       ??_C@_0KJ@PEDLFADL@Non?9SDK?5only?4?5Sets?5a?5password?5on@ 10057888     vmpi:vmpi.obj
 0002:00004934       ??_C@_07CKCOPKFM@?9mpi_pw?$AA@ 10057934     vmpi:vmpi.obj
 0002:00004940       ??_C@_0EO@GIFEDMLB@Enables?5the?5workers?5storing?5all?5@ 10057940     vmpi:vmpi.obj
 0002:00004990       ??_C@_0BG@KGEKOGFD@?9mpi_Stats_TextOutput?$AA@ 10057990     vmpi:vmpi.obj
 0002:000049a8       ??_C@_0DL@FMBDABOD@Enables?5the?5use?5of?5a?5database?5to@ 100579a8     vmpi:vmpi.obj
 0002:000049e4       ??_C@_0L@EFMLKEJB@?9mpi_Stats?$AA@ 100579e4     vmpi:vmpi.obj
 0002:000049f0       ??_C@_0EL@MKKGJEBJ@Delay?5and?5group?5some?5of?5the?5work@ 100579f0     vmpi:vmpi.obj
 0002:00004a3c       ??_C@_0BC@KFPACIFD@?9mpi_GroupPackets?$AA@ 10057a3c     vmpi:vmpi.obj
 0002:00004a50       ??_C@_0CM@HKPOENDC@Don?8t?5set?5worker?5thread?5prioriti@ 10057a50     vmpi:vmpi.obj
 0002:00004a7c       ??_C@_0BN@DLMLNHKE@?9mpi_DontSetThreadPriorities?$AA@ 10057a7c     vmpi:vmpi.obj
 0002:00004a9c       ??_C@_0CO@LAOIKCIP@Don?8t?5timeout?5VMPI?5sockets?4?5Used@ 10057a9c     vmpi:vmpi.obj
 0002:00004acc       ??_C@_0P@NAPGNEMO@?9mpi_NoTimeout?$AA@ 10057acc     vmpi:vmpi.obj
 0002:00004ae0       ??_C@_0MD@KNLHCKGO@Use?5the?5default?5work?5unit?5distri@ 10057ae0     vmpi:vmpi.obj
 0002:00004ba4       ??_C@_0BL@JDPJEDP@?9mpi_UseDefaultDistributor?$AA@ 10057ba4     vmpi:vmpi.obj
 0002:00004bc0       ??_C@_0JM@LIOLKBJK@Use?5the?5SDK?5work?5unit?5distributo@ 10057bc0     vmpi:vmpi.obj
 0002:00004c5c       ??_C@_0BH@EJIHLPPB@?9mpi_UseSDKDistributor?$AA@ 10057c5c     vmpi:vmpi.obj
 0002:00004c74       ??_C@_0BP@PGFCDAAP@Force?5VMPI?5to?5run?5in?5SDK?5mode?4?$AA@ 10057c74     vmpi:vmpi.obj
 0002:00004c94       ??_C@_0N@FGBPNEKN@?9mpi_SDKMode?$AA@ 10057c94     vmpi:vmpi.obj
 0002:00004ca8       ??_C@_0FO@KPMBAGGB@Don?8t?5process?5work?5units?5locally@ 10057ca8     vmpi:vmpi.obj
 0002:00004d08       ??_C@_0BL@KKJENFOD@?9mpi_NoMasterWorkerThreads?$AA@ 10057d08     vmpi:vmpi.obj
 0002:00004d24       ??_C@_0DI@ODNFCKDI@Set?5to?50?0?51?0?5or?52?5to?5control?5ver@ 10057d24     vmpi:vmpi.obj
 0002:00004d5c       ??_C@_0N@OLILDKE@?9mpi_Verbose?$AA@ 10057d5c     vmpi:vmpi.obj
 0002:00004d6c       ??_C@_0CH@LFMBNKJ@VMPI?5file?5transmission?5rate?5in?5k@ 10057d6c     vmpi:vmpi.obj
 0002:00004d94       ??_C@_0BG@DGIKADMG@?9mpi_FileTransmitRate?$AA@ 10057d94     vmpi:vmpi.obj
 0002:00004db0       ??_C@_0GD@DACCGFJF@Used?5on?5the?5master?8s?5machine?4?5Au@ 10057db0     vmpi:vmpi.obj
 0002:00004e14       ??_C@_0BF@LPJAFFKK@?9mpi_AutoLocalWorker?$AA@ 10057e14     vmpi:vmpi.obj
 0002:00004e2c       ??_C@_0DG@GOBINBAO@Set?5the?5maximum?5number?5of?5worker@ 10057e2c     vmpi:vmpi.obj
 0002:00004e64       ??_C@_0BB@LDMHHOKB@?9mpi_WorkerCount?$AA@ 10057e64     vmpi:vmpi.obj
 0002:00004e78       ??_C@_0HO@EOFLOANE@Causes?5the?5master?5to?5wait?5for?5a?5@ 10057e78     vmpi:vmpi.obj
 0002:00004ef8       ??_C@_0BA@NCHOIHCK@?9mpi_TimingWait?$AA@ 10057ef8     vmpi:vmpi.obj
 0002:00004f08       ??_C@_0EH@GFFAKCGA@After?5finishing?5a?5stage?5in?5the?5w@ 10057f08     vmpi:vmpi.obj
 0002:00004f50       ??_C@_0BN@DPICJMJL@?9mpi_ShowDistributeWorkStats?$AA@ 10057f50     vmpi:vmpi.obj
 0002:00004f70       ??_C@_0HC@JCLOJEML@Enables?5a?5debug?5menu?5during?5jobs@ 10057f70     vmpi:vmpi.obj
 0002:00004fe4       ??_C@_0BB@GJNLNKMA@?9mpi_TrackEvents?$AA@ 10057fe4     vmpi:vmpi.obj
 0002:00004ff8       ??_C@_0LM@FNEKKKON@Use?5this?5on?5the?5worker?5to?5have?5i@ 10057ff8     vmpi:vmpi.obj
 0002:000050b4       ??_C@_0BB@LIDFEIHP@?9mpi_AutoRestart?$AA@ 100580b4     vmpi:vmpi.obj
 0002:000050c8       ??_C@_0JA@OFJMLKLM@Use?5this?5on?5the?5worker?5to?5have?5i@ 100580c8     vmpi:vmpi.obj
 0002:00005158       ??_C@_0L@EKLCPKJD@?9mpi_Retry?$AA@ 10058158     vmpi:vmpi.obj
 0002:00005168       ??_C@_0HI@JJHPJIDC@Show?5a?5graphical?5representation?5@ 10058168     vmpi:vmpi.obj
 0002:000051e0       ??_C@_0O@IJEDKJON@?9mpi_Graphics?$AA@ 100581e0     vmpi:vmpi.obj
 0002:000051f0       ??_C@_0JA@OPFADIBK@Use?5this?5on?5the?5master?5to?5force?5@ 100581f0     vmpi:vmpi.obj
 0002:00005280       ??_C@_09DCMHDMM@?9mpi_Port?$AA@ 10058280     vmpi:vmpi.obj
 0002:00005290       ??_C@_0IL@OPOIOBPG@Workers?5use?5this?5to?5connect?5to?5a@ 10058290     vmpi:vmpi.obj
 0002:0000531c       ??_C@_0M@DAILNABA@?9mpi_Worker?$AA@ 1005831c     vmpi:vmpi.obj
 0002:00005328       ??_C@_0N@PNBGJLEG@Enable?5VMPI?4?$AA@ 10058328     vmpi:vmpi.obj
 0002:00005338       ??_C@_03PHDJLHID@mpi?$AA@  10058338     vmpi:vmpi.obj
 0002:0000533c       ??_C@_06OJAIHGIC@unused?$AA@ 1005833c     vmpi:vmpi.obj
 0002:00005344       ??_C@_0BP@LNPAKMIE@k_eVMPICmdLineParam_FirstParam?$AA@ 10058344     vmpi:vmpi.obj
 0002:00005364       ??_C@_0BO@FDPJCHDE@CTSListBase?3?5Misaligned?5list?6?$AA@ 10058364     vmpi:vmpi.obj
 0002:00005384       ??_C@_0BO@EBFLNFPO@CTSListBase?3?5Misaligned?5node?6?$AA@ 10058384     vmpi:vmpi.obj
 0002:000053a4       ??_C@_0BB@EMIOGOGL@GetConsoleWindow?$AA@ 100583a4     vmpi:vmpi.obj
 0002:000053b8       ??_C@_0N@MDJJJHMB@kernel32?4dll?$AA@ 100583b8     vmpi:vmpi.obj
 0002:000053c8       ??_C@_0BC@BEDBBFM@mysql_wrapper?4dll?$AA@ 100583c8     vmpi:vmpi.obj
 0002:000053dc       ??_C@_0CP@DODIKJFP@VMPI_CheckSDKMode?5?9?$DO?5GetModuleFi@ 100583dc     vmpi:vmpi.obj
 0002:0000540c       ??_C@_0BL@BEHDHCGA@?$CIerror?5in?5GetComputerName?$CJ?$AA@ 1005840c     vmpi:vmpi.obj
 0002:00005428       ??_C@_0CJ@PJDADHIA@Invalid?5call?3?5VMPI_GetParamStrin@ 10058428     vmpi:vmpi.obj
 0002:00005454       ??_C@_01HIHLOKLC@1?$AA@    10058454     vmpi:vmpi.obj
 0002:00005458       ??_C@_0L@JGNDPCOE@?$CFs?5found?4?6?$AA@ 10058458     vmpi:vmpi.obj
 0002:00005464       ??_C@_0CE@JKEKJLML@VMPI?5?9?5Workers?3?5?$CFd?0?5Downloaders?3@ 10058464     vmpi:vmpi.obj
 0002:00005488       ??_C@_0BJ@GAHOGAMC@VMPI?5?$CISDK?$CJ?5?9?5Workers?3?5?$CFd?$AA@ 10058488     vmpi:vmpi.obj
 0002:000054a8       ??_7CVMPIConnectionCreator@@6B@ 100584a8     vmpi:vmpi.obj
 0002:000054ac       ??_C@_0CB@MCFJOHCL@?5?9?5ERROR?5in?5CreateProcess?5?$CI?$CFs?$CJ?$CB?6@ 100584ac     vmpi:vmpi.obj
 0002:000054d0       ??_C@_0BD@HDELONBC@_getcwd?$CI?$CJ?5failed?4?6?$AA@ 100584d0     vmpi:vmpi.obj
 0002:000054e4       ??_C@_0N@EDLLPPPH@?9allowdebug?5?$AA@ 100584e4     vmpi:vmpi.obj
 0002:000054f4       ??_C@_0BK@FNEJJFIK@?9mpi_worker?5127?40?40?41?3?$CFd?5?$AA@ 100584f4     vmpi:vmpi.obj
 0002:00005510       ??_C@_0BA@PPJCDJGE@?9mpi_MasterName?$AA@ 10058510     vmpi:vmpi.obj
 0002:00005520       ??_C@_0BA@OKHBLKMD@cstrike?$CFcmapsrc?$AA@ 10058520     vmpi:vmpi.obj
 0002:00005530       ??_C@_0BC@MJAJPCMI@sourcesdk_content?$AA@ 10058530     vmpi:vmpi.obj
 0002:00005544       ??_C@_0BE@NCOEMFNB@ClientRegistry?4blob?$AA@ 10058544     vmpi:vmpi.obj
 0002:00005558       ??_C@_09DCGKHCMF@steamapps?$AA@ 10058558     vmpi:vmpi.obj
 0002:00005564       ??_C@_09HCHJOCLK@sourcesdk?$AA@ 10058564     vmpi:vmpi.obj
 0002:00005570       ??_C@_03PDOMKJON@bin?$AA@  10058570     vmpi:vmpi.obj
 0002:00005574       ??_C@_0O@BGLHAEFA@invalid?5index?$AA@ 10058574     vmpi:vmpi.obj
 0002:00005584       ??_C@_0BM@KDFEDBID@?$CFs?5found?4?5Auto?9restarting?4?6?$AA@ 10058584     vmpi:vmpi.obj
 0002:000055a4       ??_7CVMPIConnection@@6B@   100585a4     vmpi:vmpi.obj
 0002:000055b0       ??_C@_0EI@CDGJMNFJ@VMPI?5running?5in?5SDK?5mode?5but?5inc@ 100585b0     vmpi:vmpi.obj
 0002:000055f8       ??_C@_0FJ@GGOJLDND@VMPI?5running?5in?5SDK?5mode?5but?5Ste@ 100585f8     vmpi:vmpi.obj
 0002:00005654       ??_C@_0CO@KEPEMMO@VerifyValidSDKMode?3?5GetModuleFil@ 10058654     vmpi:vmpi.obj
 0002:00005684       ??_C@_0BL@DBNAOPI@VMPI?5running?5in?5SDK?5mode?4?6?$AA@ 10058684     vmpi:vmpi.obj
 0002:000056a0       ??_C@_0M@NHLICNNA@debugworker?$AA@ 100586a0     vmpi:vmpi.obj
 0002:000056ac       ??_C@_0BO@GAMKKIJC@Can?8t?5find?5?$CFs?5?$CIlisted?5in?5?$CFs?$CJ?4?$AA@ 100586ac     vmpi:vmpi.obj
 0002:000056cc       ??_C@_09HCHNGPNO@optional?5?$AA@ 100586cc     vmpi:vmpi.obj
 0002:000056d8       ??_C@_0P@NIMONDBM@Can?8t?5find?5?$CFs?4?$AA@ 100586d8     vmpi:vmpi.obj
 0002:000056e8       ??_C@_03EMIMMIHL@?$CK?4?$CK?$AA@ 100586e8     vmpi:vmpi.obj
 0002:000056ec       ??_C@_0M@PCENNPGA@?$CFd?4?$CFd?4?$CFd?4?$CFd?$AA@ 100586ec     vmpi:vmpi.obj
 0002:000056f8       ??_C@_0EK@LBAPFCPH@?9mpi_PatchWorkers?3?5?$CFd?5specified?5@ 100586f8     vmpi:vmpi.obj
 0002:00005744       ??_C@_0BC@DBIADKFM@?9mpi_PatchWorkers?$AA@ 10058744     vmpi:vmpi.obj
 0002:00005758       ??_C@_0CF@NHCAFLNP@?$CFs?5?9?5CVMPIConnection?3?3OnError?$CI?5?$CF@ 10058758     vmpi:vmpi.obj
 0002:00005780       ??_C@_0DG@BMOBJKCL@VMPI_GetNextMessage?3?5WaitForSing@ 10058780     vmpi:vmpi.obj
 0002:000057b8       ??_C@_0BI@EMCKLCJC@Invalid?5chunked?5packet?6?$AA@ 100587b8     vmpi:vmpi.obj
 0002:000057d0       ??_C@_0EN@BKKFDDKL@Error?5in?5ReadString?$CI?$CJ?5while?5read@ 100587d0     vmpi:vmpi.obj
 0002:00005820       ??_C@_0DC@GPCILDEA@Error?5in?5ReadString?$CI?$CJ?5while?5read@ 10058820     vmpi:vmpi.obj
 0002:00005854       ??_C@_0DL@LOGCDFLN@Worker?5?$CFd?5is?5running?5in?5SDK?5mode@ 10058854     vmpi:vmpi.obj
 0002:00005890       ??_C@_0NO@EDAADNKJ@VMPI_ReceiveExeName?3?5mismatched?5@ 10058890     vmpi:vmpi.obj
 0002:00005970       ??_C@_0O@JNNFDNFH@vmpi_transfer?$AA@ 10058970     vmpi:vmpi.obj
 0002:00005980       ??_C@_0BO@IPJGDIHD@VMPI_ReceiveExeName?3?5timeout?4?$AA@ 10058980     vmpi:vmpi.obj
 0002:000059a0       __real@403e000000000000    100589a0     vmpi:vmpi.obj
 0002:000059a8       ??_C@_02JIKNIHJJ@?6?5?$AA@ 100589a8     vmpi:vmpi.obj
 0002:000059ac       ??_C@_0DK@GOCIAMKO@?9mpi_TimingWait?5specified?4?5Waiti@ 100589ac     vmpi:vmpi.obj
 0002:000059e8       ??_C@_0EF@JBMMIGCO@VMPI_ReceiveCommandLine?3?5timeout@ 100589e8     vmpi:vmpi.obj
 0002:00005a30       ??_C@_09HCBKBGHL@packetBuf?$AA@ 10058a30     vmpi:vmpi.obj
 0002:00005a40       ??_C@_0EC@KBJMLMAA@?9mpi_TimingWait?5specified?4?5Waiti@ 10058a40     vmpi:vmpi.obj
 0002:00005a84       ??_C@_0DP@PBCCDDGH@?$CFs?5found?4?5Retrying?5connection?5to@ 10058a84     vmpi:vmpi.obj
 0002:00005ac4       ??_C@_0CI@OHMCGKDA@ITCPConnectSocket?3?3Update?$CI?$CJ?5erro@ 10058ac4     vmpi:vmpi.obj
 0002:00005aec       ??_C@_0M@LBKCABOL@arg?5?$CFd?3?5?$CFs?6?$AA@ 10058aec     vmpi:vmpi.obj
 0002:00005af8       __real@4008000000000000    10058af8     vmpi:vmpi.obj
 0002:00005b00       ??_C@_0CF@FIAACEMN@Can?8t?5bind?5a?5port?5in?5range?5?$FL?$CFd?0?5@ 10058b00     vmpi:vmpi.obj
 0002:00005b28       ??_C@_0O@IAGOMGHB@?9mpi_filebase?$AA@ 10058b28     vmpi:vmpi.obj
 0002:00005b38       ??_C@_09ENEHMMFM@?9mpi_file?$AA@ 10058b38     vmpi:vmpi.obj
 0002:00005b44       ??_C@_0DP@KLEBECEB@?9mpi_PatchVersion?5?$DMval?$DO?5?9?5?5val?5m@ 10058b44     vmpi:vmpi.obj
 0002:00005b84       __real@46fffe00            10058b84     vmpi:vmpi.obj
 0002:00005b88       ??_C@_0BC@KIIOFKEI@?9mpi_PatchVersion?$AA@ 10058b88     vmpi:vmpi.obj
 0002:00005b9c       ??_C@_01GBGANLPD@0?$AA@    10058b9c     vmpi:vmpi.obj
 0002:00005ba0       ??_C@_0BA@HCHNEKOA@?9mpi_ForcePatch?$AA@ 10058ba0     vmpi:vmpi.obj
 0002:00005bb0       ??_C@_0CF@MDDAMIMB@MPI_Init_Master?3?5can?8t?5bind?5a?5so@ 10058bb0     vmpi:vmpi.obj
 0002:00005bd8       ??_C@_0DD@EDDMNDKK@Can?8t?5bind?5a?5listen?5socket?5in?5po@ 10058bd8     vmpi:vmpi.obj
 0002:00005c0c       ??_C@_0DC@CFADAIKC@?$CFs?5found?4?5Spawning?5a?5local?5worke@ 10058c0c     vmpi:vmpi.obj
 0002:00005c40       ??_C@_0BM@IKHMFOIB@MPI_Init_Master?3?5argc?5?$DM?$DN?50?$CB?$AA@ 10058c40     vmpi:vmpi.obj
 0002:00005c5c       ??_C@_0CH@MFGNMPPJ@?$CFs?3?5waiting?5for?5?$CFd?5processes?5to?5@ 10058c5c     vmpi:vmpi.obj
 0002:00005c84       ??_C@_0DP@GNFGJBIH@VMPI?5started?5as?5master?0?5but?5no?5d@ 10058c84     vmpi:vmpi.obj
 0002:00005cc4       ??_C@_0CM@IHHEGDEG@Unable?5to?5parse?5or?5resolve?5maste@ 10058cc4     vmpi:vmpi.obj
 0002:00005cf0       ??_C@_0CN@OIJEGAIC@VMPI_DistributeWork_DisconnectHa@ 10058cf0     vmpi:vmpi_distribute_work.obj
 0002:00005d20       ??_C@_0L@DFPOLHPH@Found?5?$CFs?4?6?$AA@ 10058d20     vmpi:vmpi_distribute_work.obj
 0002:00005d2c       ??_C@_0CF@EBGHHGCB@PreDistributeWorkSync?3?5master?5re@ 10058d2c     vmpi:vmpi_distribute_work.obj
 0002:00005d54       ??_C@_0CL@LOJDIDH@PreDistributeWorkSync?3?5waiting?5f@ 10058d54     vmpi:vmpi_distribute_work.obj
 0002:00005d80       ??_C@_0CH@BLDOHGJC@?6DistributeWork_Cancel?5saves?5the@ 10058d80     vmpi:vmpi_distribute_work.obj
 0002:00005da8       ??_C@_0EO@GAPOIDBI@DistributeWork?3?5got?5an?5invalid?5w@ 10058da8     vmpi:vmpi_distribute_work.obj
 0002:00005df8       ??_C@_0EK@ONNEKHJB@State?5incorrect?5on?5master?5for?5DW@ 10058df8     vmpi:vmpi_distribute_work.obj
 0002:00005e48       ??_C@_0EF@OEDHHOJG@Got?5an?5invalid?5DistributeWork?5pa@ 10058e48     vmpi:vmpi_distribute_work.obj
 0002:00005e90       ??_C@_0EC@CKDBNAPL@?9?9?9?9?9?9?9?9?9?9?9?9?9?9?9?9?9?9?9?9?9?9?9?9?9?9?9?9?9?9?9?9@ 10058e90     vmpi:vmpi_distribute_work.obj
 0002:00005ed4       ??_C@_01JLIPDDHJ@?3?$AA@   10058ed4     vmpi:vmpi_distribute_work.obj
 0002:00005ed8       ??_C@_0N@INPINKNE@?$CF?$CF?$CFds?5?$CFI64u?6?$AA@ 10058ed8     vmpi:vmpi_distribute_work.obj
 0002:00005ee8       ??_C@_0BE@OLAOOJBI@?6WU?5count?5by?5proc?3?6?$AA@ 10058ee8     vmpi:vmpi_distribute_work.obj
 0002:00005efc       ??_C@_0CD@KFLDKDBH@Duplicated?5WUs?5?5?5?3?5?$CFI64u?5?$CI?$CF?41f?$CF?$CF@ 10058efc     vmpi:vmpi_distribute_work.obj
 0002:00005f20       ??_C@_0DB@LHBABMEC@Total?5Bytes?5Recv?5?3?5?$CFdk?5?$CI?$CF?42fk?1se@ 10058f20     vmpi:vmpi_distribute_work.obj
 0002:00005f54       ??_C@_0DB@PDKFEMFO@Total?5Bytes?5Sent?5?3?5?$CFdk?5?$CI?$CF?42fk?1se@ 10058f54     vmpi:vmpi_distribute_work.obj
 0002:00005f88       ??_C@_0BJ@BJEOLAKC@Total?5Time?5?5?5?5?5?5?5?3?5?$CF?42f?6?$AA@ 10058f88     vmpi:vmpi_distribute_work.obj
 0002:00005fa8       ??_C@_0EC@BLGMKAKL@?6?6?9?9?9?9?9?9?9?9?9?9?9?9?9?9?9?9?9?9?9?9?9?9?9?9?9?9?9?9?9?9@ 10058fa8     vmpi:vmpi_distribute_work.obj
 0002:00005ff0       __real@41f0000000000000    10058ff0     vmpi:vmpi_distribute_work.obj
 0002:00005ff8       ??_C@_0BI@KBFKDHMP@Worker?5thread?5exiting?4?6?$AA@ 10058ff8     vmpi:vmpi_distribute_work.obj
 0002:00006010       ??_C@_0CH@JLKDGDIJ@VMPI_DistributeWork?5call?5?$CFd?5fini@ 10059010     vmpi:vmpi_distribute_work.obj
 0002:00006038       ??_C@_0N@BDHDEPEA@?$CFd?3?5WU?5?$CF5d?5?5?$AA@ 10059038     vmpi:vmpi_distribute_work.obj
 0002:00006048       ??_C@_0BC@MGIMJDPF@?$ANThreads?5status?3?5?$AA@ 10059048     vmpi:vmpi_distribute_work.obj
 0002:0000605c       ??_C@_0CJ@KAJJABLA@RunThreads_Start?5finished?5succes@ 1005905c     vmpi:vmpi_distribute_work.obj
 0002:00006088       ??_C@_0CG@NGEJJPBA@VMPI_DistributeWork?5call?5?$CFd?5star@ 10059088     vmpi:vmpi_distribute_work.obj
 0002:000060b0       ??_C@_0CM@KCBODGJI@DistributeWork?3?5called?5more?5than@ 100590b0     vmpi:vmpi_distribute_work.obj
 0002:000060dc       ??_C@_0BF@NEINGGAM@Multicast?5recv?3?5?$CFdk?6?$AA@ 100590dc     vmpi:vmpi_filesystem.obj
 0002:000060f4       ??_C@_0BF@NKNCGIMN@Multicast?5send?3?5?$CFdk?6?$AA@ 100590f4     vmpi:vmpi_filesystem.obj
 0002:00006114       ??_7CBaseVMPIFileSystem@@6BIBaseFileSystem@@@ 10059114     vmpi:vmpi_filesystem.obj
 0002:0000615c       ??_7CBaseVMPIFileSystem@@6BIAppSystem@@@ 1005915c     vmpi:vmpi_filesystem.obj
 0002:00006308       ??_C@_0BD@IDFJBKB@VBaseFileSystem011?$AA@ 10059308     vmpi:vmpi_filesystem.obj
 0002:00006320       __real@408f400000000000    10059320     vmpi:iphelpers.obj
 0002:0000632c       ??_7CIPSocket@@6B@         1005932c     vmpi:iphelpers.obj
 0002:0000635c       ??_C@_0CP@HADKMFND@CIPSocket?3?3SendChunksTo?3?5too?5man@ 1005935c     vmpi:iphelpers.obj
 0002:0000638c       ??_C@_05JPPLNOIE@?$CFs?$DN?$CFs?$AA@ 1005938c     vmpi:filesystem_init.obj
 0002:00006394       ??_C@_03HFAIOBFI@?$CFs?$DN?$AA@ 10059394     vmpi:filesystem_init.obj
 0002:00006398       ??_C@_0BI@HONGKJJH@?$CFs?$CFclocalization?$CFc?$CFs_?$CFs?$AA@ 10059398     vmpi:filesystem_init.obj
 0002:000063b0       ??_C@_06KGBLPGBA@?2game?2?$AA@ 100593b0     vmpi:filesystem_init.obj
 0002:000063b8       ??_C@_05ONEOBAM@?$CFs_?$CFs?$AA@ 100593b8     vmpi:filesystem_init.obj
 0002:000063c0       ??_C@_07FIIABPFG@GAMEBIN?$AA@ 100593c0     vmpi:filesystem_init.obj
 0002:000063c8       ??_C@_07FCGPJGAE@?$CFs?$CFcbin?$AA@ 100593c8     vmpi:filesystem_init.obj
 0002:000063d0       ??_C@_0N@GOJIOGBD@User?5Token?53?$AA@ 100593d0     vmpi:filesystem_init.obj
 0002:000063e0       ??_C@_0N@HHIDNHFC@User?5Token?52?$AA@ 100593e0     vmpi:filesystem_init.obj
 0002:000063f0       ??_C@_0BP@EFOCGGID@Software?2Valve?2Source?2Settings?$AA@ 100593f0     vmpi:filesystem_init.obj
 0002:00006410       ??_C@_03FIBGOAPP@MOD?$AA@  10059410     vmpi:filesystem_init.obj
 0002:00006414       ??_C@_0P@OBDLCKKL@?$CFs_tempcontent?$AA@ 10059414     vmpi:filesystem_init.obj
 0002:00006424       ??_C@_0N@MOHILAIK@?9tempcontent?$AA@ 10059424     vmpi:filesystem_init.obj
 0002:00006434       ??_C@_05MOIKDAG@?$CFs_lv?$AA@ 10059434     vmpi:filesystem_init.obj
 0002:0000643c       ??_C@_04MJNAPEEI@game?$AA@ 1005943c     vmpi:filesystem_init.obj
 0002:00006448       ??_C@_0EB@JBHGIPO@FileSystem_AddLoadedSearchPath?5?9@ 10059448     vmpi:filesystem_init.obj
 0002:0000648c       ??_C@_0BE@MHMPCCEN@SteamUserPassphrase?$AA@ 1005948c     vmpi:filesystem_init.obj
 0002:000064a0       ??_C@_0BN@ILMJFDLH@Missing?5SteamAppId?5in?5?$CFs?2?$CFs?4?$AA@ 100594a0     vmpi:filesystem_init.obj
 0002:000064c0       ??_C@_0N@DDAKDDIF@gameinfo?4txt?$AA@ 100594c0     vmpi:filesystem_init.obj
 0002:000064d0       ??_C@_0L@ECGBBIEJ@SteamAppId?$AA@ 100594d0     vmpi:filesystem_init.obj
 0002:000064dc       ??_C@_0N@MHLNGBBM@?1?4?4?1platform?$AA@ 100594dc     vmpi:filesystem_init.obj
 0002:000064ec       ??_C@_08CBHCFJJK@platform?$AA@ 100594ec     vmpi:filesystem_init.obj
 0002:000064f8       ??_C@_04OJGJKDCG@?2bin?$AA@ 100594f8     vmpi:filesystem_init.obj
 0002:00006500       ??_C@_0M@HIDIPGMM@?$CFs?$CFc?4?4?$CFcbin?$AA@ 10059500     vmpi:filesystem_init.obj
 0002:0000650c       ??_C@_08BBHFPNLA@VProject?$AA@ 1005950c     vmpi:filesystem_init.obj
 0002:00006518       ??_C@_0M@BPBMEHMA@vconfig?4exe?$AA@ 10059518     vmpi:filesystem_init.obj
 0002:00006524       ??_C@_09FEGFDDAO@orangebox?$AA@ 10059524     vmpi:filesystem_init.obj
 0002:00006530       ??_C@_0DG@DHDKLFGP@Can?8t?5find?5steam?4dll?5relative?5to@ 10059530     vmpi:filesystem_init.obj
 0002:00006568       ??_C@_05LKJAIBFI@?$CFs?$DL?$CFs?$AA@ 10059568     vmpi:filesystem_init.obj
 0002:00006570       ??_C@_0DH@CHNFKOPG@Can?8t?5find?5steam?4dll?5relative?5to@ 10059570     vmpi:filesystem_init.obj
 0002:000065a8       ??_C@_0N@KIPMNOMO@steamapp?4cfg?$AA@ 100595a8     vmpi:filesystem_init.obj
 0002:000065b8       ??_C@_09OPNECJBP@steam?4dll?$AA@ 100595b8     vmpi:filesystem_init.obj
 0002:000065c4       ??_C@_0CE@ICDPACDF@FileSystem_GetExecutableDir?5fail@ 100595c4     vmpi:filesystem_init.obj
 0002:000065e8       ??_C@_0DK@HCONFMCF@SetSteamInstallPath?3?5FileSystem_@ 100595e8     vmpi:filesystem_init.obj
 0002:00006624       ??_C@_0BA@PDPKJDAD@EXECUTABLE_PATH?$AA@ 10059624     vmpi:filesystem_init.obj
 0002:00006634       ??_C@_0BJ@EDPLIIJG@?$CFs?$CFcfilesystem_steam?4dll?$AA@ 10059634     vmpi:filesystem_init.obj
 0002:00006650       ??_C@_0M@LHJIEJJB@?9steamlocal?$AA@ 10059650     vmpi:filesystem_init.obj
 0002:0000665c       ??_C@_0BJ@PBHGGHGE@?$CFs?$CFcfilesystem_stdio?4dll?$AA@ 1005965c     vmpi:filesystem_init.obj
 0002:00006678       ??_C@_06HPIJBGJD@?1game?1?$AA@ 10059678     vmpi:filesystem_init.obj
 0002:00006680       ??_C@_09EOPDDICB@?1content?1?$AA@ 10059680     vmpi:filesystem_init.obj
 0002:00006690       ??_C@_0OI@HCHEELJO@Unable?5to?5find?5?$CFs?4?5Solutions?3?6?61@ 10059690     vmpi:filesystem_init.obj
 0002:00006778       ??_C@_0EA@HIENCNPL@Warning?3?5falling?5back?5to?5auto?5de@ 10059778     vmpi:filesystem_init.obj
 0002:000067b8       ??_C@_0GD@JOJOEGKB@Setup?5file?5?8?$CFs?8?5doesn?8t?5exist?5in@ 100597b8     vmpi:filesystem_init.obj
 0002:0000681c       ??_C@_0DB@DMFGMLBG@bOnlyUseDirectoryName?$DN1?5and?5pDir@ 1005981c     vmpi:filesystem_init.obj
 0002:00006850       ??_C@_04LNEJFJGI@path?$AA@ 10059850     vmpi:filesystem_init.obj
 0002:00006858       ??_C@_0N@JBMCJGB@SteamAppUser?$AA@ 10059858     vmpi:filesystem_init.obj
 0002:00006868       ??_C@_0M@OGFGHLLN@SearchPaths?$AA@ 10059868     vmpi:filesystem_init.obj
 0002:00006874       ??_C@_0BK@LENANHBB@?$CFs?5is?5not?5a?5valid?5format?4?$AA@ 10059874     vmpi:filesystem_init.obj
 0002:00006890       ??_C@_0L@FPFLHALM@FileSystem?$AA@ 10059890     vmpi:filesystem_init.obj
 0002:0000689c       ??_C@_0P@BAICOJOC@?$CFs?5is?5missing?4?$AA@ 1005989c     vmpi:filesystem_init.obj
 0002:000068ac       ??_C@_0DK@HDHHNFK@FileSystem_LoadSearchPaths?3?5Inva@ 100598ac     vmpi:filesystem_init.obj
 0002:000068e8       ??_C@_0BD@BIHGFCAJ@DEFAULT_WRITE_PATH?$AA@ 100598e8     vmpi:filesystem_init.obj
 0002:000068fc       ??_C@_03FFONCNID@mod?$AA@  100598fc     vmpi:filesystem_init.obj
 0002:00006900       ??_C@_07KFNNKDNC@gamebin?$AA@ 10059900     vmpi:filesystem_init.obj
 0002:00006908       ??_C@_0BA@LLOKIJCD@executable_path?$AA@ 10059908     vmpi:filesystem_init.obj
 0002:00006918       ??_C@_06NKJBFAKB@?4?4?$CFc?$CFs?$AA@ 10059918     vmpi:filesystem_init.obj
 0002:00006920       ??_C@_0BK@FOIMLNGE@?$HMall_source_engine_paths?$HM?$AA@ 10059920     vmpi:filesystem_init.obj
 0002:0000693c       ??_C@_0BA@MDDINGGJ@?$HMgameinfo_path?$HM?$AA@ 1005993c     vmpi:filesystem_init.obj
 0002:0000694c       ??_C@_0BO@DKGHAMPB@FileSystem_GetBaseDir?5failed?4?$AA@ 1005994c     vmpi:filesystem_init.obj
 0002:0000696c       ??_C@_0CA@LJBFCIPK@Can?8t?5find?5steam?5app?5user?5info?4?$AA@ 1005996c     vmpi:filesystem_init.obj
 0002:0000698c       ??_C@_0O@JKIHLNMO@AutoLoginUser?$AA@ 1005998c     vmpi:filesystem_init.obj
 0002:0000699c       ??_C@_0BI@FPAAOPPO@config?2SteamAppData?4vdf?$AA@ 1005999c     vmpi:filesystem_init.obj
 0002:000069b4       ??_C@_0O@GIMNLJAG@steaminfo?4txt?$AA@ 100599b4     vmpi:filesystem_init.obj
 0002:000069c4       ??_C@_0L@INNOAPAJ@ToolsAppId?$AA@ 100599c4     vmpi:filesystem_init.obj
 0002:000069d0       ??_C@_0BN@OJPKFLKO@?$CFs?5IFileSystem?3?3Init?5failed?4?$AA@ 100599d0     vmpi:filesystem_init.obj
 0002:000069f0       ??_C@_0CA@KIDODKHJ@?$CFs?5IFileSystem?3?3Connect?5failed?4?$AA@ 100599f0     vmpi:filesystem_init.obj
 0002:00006a10       ??_C@_0P@HNMHCAOM@Can?8t?5load?5?$CFs?4?$AA@ 10059a10     vmpi:filesystem_init.obj
 0002:00006a20       ??_C@_0DB@IJEHBEGI@Unable?5to?5mount?5Steam?5content?5in@ 10059a20     vmpi:filesystem_init.obj
 0002:00006a58       __real@3fd5555555555555    10059a58     vmpi:vmpi_filesystem_master.obj
 0002:00006a64       ??_7IBaseFileSystem@@6B@   10059a64     vmpi:vmpi_filesystem_master.obj
 0002:00006aac       ??_7CVMPIFile_PassThru@@6B@ 10059aac     vmpi:vmpi_filesystem_master.obj
 0002:00006acc       ??_7CVMPIFile_Memory@@6B@  10059acc     vmpi:vmpi_filesystem_master.obj
 0002:00006ae8       ??_C@_0FC@BLPEEGJN@?6This?5machine?8s?5ability?5to?5multi@ 10059ae8     vmpi:vmpi_filesystem_master.obj
 0002:00006b3c       ??_C@_0DK@HFKGIGEM@?6MulticastThread?3?5WSASendTo?5with@ 10059b3c     vmpi:vmpi_filesystem_master.obj
 0002:00006b78       ??_C@_0CB@PHEMMPKL@nWantedBytes?5?$DO?5sizeof?$CI?5allData?5?$CJ@ 10059b78     vmpi:vmpi_filesystem_master.obj
 0002:00006ba0       __real@412e848000000000    10059ba0     vmpi:vmpi_filesystem_master.obj
 0002:00006ba8       __real@3fe6666666666666    10059ba8     vmpi:vmpi_filesystem_master.obj
 0002:00006bb0       ??_C@_05HBMFIKCP@1?41?43?$AA@ 10059bb0     vmpi:vmpi_filesystem_master.obj
 0002:00006bb8       ??_C@_0EJ@MKMAMFEE@CMasterMulticastThread?3?3Decremen@ 10059bb8     vmpi:vmpi_filesystem_master.obj
 0002:00006c04       ??_C@_0BH@NJHJIGMP@Client?5?$CFd?5got?5file?5?$CFs?6?$AA@ 10059c04     vmpi:vmpi_filesystem_master.obj
 0002:00006c20       ??_C@_0EP@CMPLKMPN@CMasterMulticastThread?3?3OnChunkR@ 10059c20     vmpi:vmpi_filesystem_master.obj
 0002:00006c70       ??_C@_0EL@LGKOBOOJ@CMasterMulticastThread?3?3OnChunkR@ 10059c70     vmpi:vmpi_filesystem_master.obj
 0002:00006cc0       ??_C@_0EH@EOKHPOBP@CMasterMulticastThread?3?3CreateVi@ 10059cc0     vmpi:vmpi_filesystem_master.obj
 0002:00006d08       ??_C@_0DN@HPDELAIJ@?6Client?5?$CFs?5timed?5out?5on?5file?5?$CFs?5@ 10059d08     vmpi:vmpi_filesystem_master.obj
 0002:00006d48       __real@41a00000            10059d48     vmpi:vmpi_filesystem_master.obj
 0002:00006d54       ??_7CMasterVMPIFileSystem@@6BIBaseFileSystem@@@ 10059d54     vmpi:vmpi_filesystem_master.obj
 0002:00006d9c       ??_7CMasterVMPIFileSystem@@6BIAppSystem@@@ 10059d9c     vmpi:vmpi_filesystem_master.obj
 0002:00006f4c       ??_C@_0DA@DHEGAGIA@Open?$CI?5?$CFs?0?5?$CFs?5?$CJ?5?9?5file?5access?5has@ 10059f4c     vmpi:vmpi_filesystem_master.obj
 0002:00006f7c       ??_C@_0BK@CPDMHKNK@Client?5?$CFd?5requested?5?8?$CFs?8?6?$AA@ 10059f7c     vmpi:vmpi_filesystem_master.obj
 0002:00006f98       ??_C@_0DE@JPLDKEAD@CMasterMulticastThread?3?3Init?5?9?5C@ 10059f98     vmpi:vmpi_filesystem_master.obj
 0002:00006fd0       ??_C@_0EK@JBECLLAM@CMasterMulticastThread?3?3Init?5?9?5s@ 10059fd0     vmpi:vmpi_filesystem_master.obj
 0002:0000701c       ??_C@_0DO@FAFGEKFI@CMasterMulticastThread?3?3Init?5?9?5b@ 1005a01c     vmpi:vmpi_filesystem_master.obj
 0002:0000705c       ??_C@_0DA@DDJOLPDL@CMasterMulticastThread?3?3Init?5?9?5s@ 1005a05c     vmpi:vmpi_filesystem_master.obj
 0002:00007090       ??_7CTCPConnectSocket_Connector@@6B@ 1005a090     vmpi:ThreadedTCPSocket.obj
 0002:000070a0       ??_7CTCPConnectSocket_Listener@@6B@ 1005a0a0     vmpi:ThreadedTCPSocket.obj
 0002:000070b0       ??_C@_0IJ@ICNHAHAP@CTCPConnectSocket_Listener?3?3Crea@ 1005a0b0     vmpi:ThreadedTCPSocket.obj
 0002:0000713c       ??_C@_0CO@MMKJAAMC@Invalid?5packet?5size?5in?5RecvThrea@ 1005a13c     vmpi:ThreadedTCPSocket.obj
 0002:0000716c       ??_C@_0DM@LAAINAJH@Invalid?5?$CD?5bytes?5received?5?$CI?$CFd?$CJ?5in@ 1005a16c     vmpi:ThreadedTCPSocket.obj
 0002:000071a8       ??_C@_0BF@IBBHAGLD@Connection?5timed?5out?$AA@ 1005a1a8     vmpi:ThreadedTCPSocket.obj
 0002:000071c0       ??_C@_0DH@PJAIKPGM@Unknown?5return?5value?5?$CI?$CFlu?$CJ?5from?5@ 1005a1c0     vmpi:ThreadedTCPSocket.obj
 0002:000071fc       ??_7CThreadedTCPSocket@@6B@ 1005a1fc     vmpi:ThreadedTCPSocket.obj
 0002:00007214       ??_C@_0DP@DCGEGGKK@Invalid?5?$CD?5bytes?5transferred?5?$CI?$CFd?$CJ@ 1005a214     vmpi:ThreadedTCPSocket.obj
 0002:00007254       ??_C@_07EPADIKCK@TCPRecv?$AA@ 1005a254     vmpi:ThreadedTCPSocket.obj
 0002:0000725c       ??_C@_07CEPEABK@TCPSend?$AA@ 1005a25c     vmpi:ThreadedTCPSocket.obj
 0002:00007268       __real@3fb99999a0000000    1005a268     vmpi:vmpi_distribute_tracker.obj
 0002:00007270       ??_C@_0CM@JBGNMPJ@?5completed?5?$CIby?5worker?5?$CFs?$CJ?5?$CF?41f?5s@ 1005a270     vmpi:vmpi_distribute_tracker.obj
 0002:0000729c       ??_C@_0CM@FOFPPBGK@?5?5?5?5?5?5sent?5?$CIto?5worker?5?$CFs?$CJ?5?$CF?41f?5s@ 1005a29c     vmpi:vmpi_distribute_tracker.obj
 0002:000072c8       ??_C@_0CM@DONPNCKA@?5?5?5started?5?$CIby?5worker?5?$CFs?$CJ?5?$CF?41f?5s@ 1005a2c8     vmpi:vmpi_distribute_tracker.obj
 0002:000072f4       ??_C@_0BB@KDEIMBDN@?5?5?5?5?$CKno?5events?$CK?6?$AA@ 1005a2f4     vmpi:vmpi_distribute_tracker.obj
 0002:00007308       ??_C@_0BA@MMJCGDOM@?5?5work?5unit?5?$CFd?6?$AA@ 1005a308     vmpi:vmpi_distribute_tracker.obj
 0002:00007318       ??_C@_0P@FDHACCIG@?9?9?9?5Events?5?9?9?9?$AA@ 1005a318     vmpi:vmpi_distribute_tracker.obj
 0002:00007328       ??_C@_0BJ@GCADDFFJ@?$CD?5active?5work?5units?3?5?$CFd?6?$AA@ 1005a328     vmpi:vmpi_distribute_tracker.obj
 0002:00007344       ??_C@_0BC@MMFIBEAB@?$CD?5work?5units?3?5?$CFd?6?$AA@ 1005a344     vmpi:vmpi_distribute_tracker.obj
 0002:00007358       ??_C@_0FD@GOLHMIBH@?6Inviting?5debug?5workers?5with?5pas@ 1005a358     vmpi:vmpi_distribute_tracker.obj
 0002:000073ac       ??_C@_0BG@EEFGKJKO@c?3?2vmpi_tracker_0?4txt?$AA@ 1005a3ac     vmpi:vmpi_distribute_tracker.obj
 0002:000073c4       ??_C@_0CC@OCBIPHND@Failed?5to?5write?5?$CFs?5successfully?4@ 1005a3c4     vmpi:vmpi_distribute_tracker.obj
 0002:000073e8       ??_C@_0BI@PFGCIAJD@Wrote?5?$CFs?5successfully?4?6?$AA@ 1005a3e8     vmpi:vmpi_distribute_tracker.obj
 0002:00007400       ??_C@_0DH@JHCKKECN@?$CK?$CK?5Please?5delete?5c?3?2vmpi_tracker@ 1005a400     vmpi:vmpi_distribute_tracker.obj
 0002:00007438       ??_C@_0BH@NADDGPGB@c?3?2vmpi_tracker_?$CFd?4txt?$AA@ 1005a438     vmpi:vmpi_distribute_tracker.obj
 0002:00007450       ??_C@_0MM@IEOKJLON@?6?6?9?9?9?9?9?9?9?9?9?9?9?9?9?9?9?9?9?9?9?9?9?9?61?4?5Writ@ 1005a450     vmpi:vmpi_distribute_tracker.obj
 0002:0000751c       ??_C@_0N@GHFLBLMD@VMPI?5Tracker?$AA@ 1005a51c     vmpi:vmpi_distribute_tracker.obj
 0002:0000752c       ??_C@_0N@EIEBBHMH@VMPI_Tracker?$AA@ 1005a52c     vmpi:vmpi_distribute_tracker.obj
 0002:00007540       ??_7CDistributor_DefaultWorker@@6B@ 1005a540     vmpi:vmpi_distribute_work_default.obj
 0002:00007558       ??_7CDistributor_DefaultMaster@@6B@ 1005a558     vmpi:vmpi_distribute_work_default.obj
 0002:00007570       ??_C@_0DG@IMAGOILP@DistributeWork?3?5invalid?5work?5uni@ 1005a570     vmpi:vmpi_distribute_work_default.obj
 0002:000075a8       ??_C@_0FO@KJECCPG@?6?6?9mpi_NoScheduler?5found?3?5Warnin@ 1005a5a8     vmpi:vmpi_distribute_work_default.obj
 0002:00007608       ??_C@_0BB@EHKKDOHE@?9mpi_NoScheduler?$AA@ 1005a608     vmpi:vmpi_distribute_work_default.obj
 0002:0000761c       ??_C@_01FHEEJDEE@A?$AA@    1005a61c     vmpi:vmpi_distribute_work_default.obj
 0002:00007624       ??_7IShuffleRequester@@6B@ 1005a624     vmpi:vmpi_distribute_work_sdk.obj
 0002:0000762c       ??_7CDistributor_SDKWorker@@6BIShuffleRequester@@@ 1005a62c     vmpi:vmpi_distribute_work_sdk.obj
 0002:00007634       ??_7CDistributor_SDKWorker@@6BIWorkUnitDistributorWorker@@@ 1005a634     vmpi:vmpi_distribute_work_sdk.obj
 0002:00007648       ??_C@_0BH@HJKPNIMB@?6Shuffle?5CRC?5mismatch?6?$AA@ 1005a648     vmpi:vmpi_distribute_work_sdk.obj
 0002:00007664       ??_7CDistributor_SDKMaster@@6BIShuffleRequester@@@ 1005a664     vmpi:vmpi_distribute_work_sdk.obj
 0002:0000766c       ??_7CDistributor_SDKMaster@@6BIWorkUnitDistributorMaster@@@ 1005a66c     vmpi:vmpi_distribute_work_sdk.obj
 0002:00007688       ??_C@_0EI@OKHLCEBK@CShuffledWorkUnitWalker?3?5assumpt@ 1005a688     vmpi:vmpi_distribute_work_sdk.obj
 0002:000076d0       ??_C@_0CO@NFCBGEJO@?$CFs?5found?4?5No?5worker?5threads?5will@ 1005a6d0     vmpi:vmpi_distribute_work_sdk.obj
 0002:00007700       ??_C@_0DL@JBOMKMK@CreateVirtualFile?5not?5supported?5@ 1005a700     vmpi:vmpi_filesystem_worker.obj
 0002:0000773c       ??_C@_0DF@BNLJBEJL@GetFileTime?5not?5supported?5in?5VMP@ 1005a73c     vmpi:vmpi_filesystem_worker.obj
 0002:00007778       ??_C@_0FA@KLDGBLPK@CWorkerMulticastListener?3?3Listen@ 1005a778     vmpi:vmpi_filesystem_worker.obj
 0002:000077c8       ??_C@_0BI@NMLHOGDH@ZLibDecompress?5failed?4?6?$AA@ 1005a7c8     vmpi:vmpi_filesystem_worker.obj
 0002:000077e0       ??_C@_07BFBFNIKK@?$AN?$CF?979s?6?$AA@ 1005a7e0     vmpi:vmpi_filesystem_worker.obj
 0002:000077e8       ??_C@_0BG@DBAHPNA@Got?5?$CFs?5?$CI?$CFdk?$CJ?5in?5?$CF?42fs?$AA@ 1005a7e8     vmpi:vmpi_filesystem_worker.obj
 0002:00007800       ??_C@_0BP@EPIBAGLM@?$ANRecv?5?$CFs?5?$CI?$CFd?$CF?$CF?$CJ?5?$FLchunk?5?$CFd?1?$CFd?$FN?5?$AA@ 1005a800     vmpi:vmpi_filesystem_worker.obj
 0002:00007820       ??_C@_0IH@GHOPLMCB@ListenFor?$CI?$CJ?3?5invalid?5payload?5len@ 1005a820     vmpi:vmpi_filesystem_worker.obj
 0002:000078a8       ??_C@_0KK@GCIHONPD@ListenFor?$CI?$CJ?3?5invalid?5compressed?5@ 1005a8a8     vmpi:vmpi_filesystem_worker.obj
 0002:00007954       ??_C@_0DF@NLNDGADG@ListenFor?$CI?$CJ?3?5invalid?5chunk?5index@ 1005a954     vmpi:vmpi_filesystem_worker.obj
 0002:0000798c       ??_C@_0BN@MKDNBPAF@FindWorkerFile?$CI?5?$CFs?5?$CJ?5failed?6?$AA@ 1005a98c     vmpi:vmpi_filesystem_worker.obj
 0002:000079b0       ??_C@_0FB@EJDEOKGJ@CWorkerMulticastListener?3?3Listen@ 1005a9b0     vmpi:vmpi_filesystem_worker.obj
 0002:00007a04       ??_C@_0DI@NMOGGDNI@CreateMulticastListenSocket?5?$CI?$CFd?4@ 1005aa04     vmpi:vmpi_filesystem_worker.obj
 0002:00007a3c       ??_C@_0BB@CMHFJMHH@?$ANRecv?5?$CFs?5?$CI0?$CF?$CF?$CJ?5?5?$AA@ 1005aa3c     vmpi:vmpi_filesystem_worker.obj
 0002:00007a50       ??_C@_05CLKOKHPD@?$FL?4?4?4?$FN?$AA@ 1005aa50     vmpi:vmpi_filesystem_worker.obj
 0002:00007a5c       ??_7CWorkerVMPIFileSystem@@6BIBaseFileSystem@@@ 1005aa5c     vmpi:vmpi_filesystem_worker.obj
 0002:00007aa4       ??_7CWorkerVMPIFileSystem@@6BIAppSystem@@@ 1005aaa4     vmpi:vmpi_filesystem_worker.obj
 0002:00007c58       _deflate_copyright         1005ac58     vmpi:deflate.obj
 0002:00008358       __dist_code                1005b358     vmpi:trees.obj
 0002:00008558       __length_code              1005b558     vmpi:trees.obj
 0002:00008798       _inflate_copyright         1005b798     vmpi:inftrees.obj
 0002:000089c0       ?s_nMaskTable@CBitBuffer@@2QBIB 1005b9c0     tier1:newbitbuf.obj
 0002:00008a98       __FPinit                   1005ba98     LIBCMT:_fpinit_.obj
 0002:00008af4       ??_7bad_alloc@std@@6B@     1005baf4     LIBCMT:new.obj
 0002:00008afc       ??_C@_0P@GHFPNOJB@bad?5allocation?$AA@ 1005bafc     LIBCMT:new.obj
 0002:00008b10       ??_7type_info@@6B@         1005bb10     LIBCMT:typinfo.obj
 0002:00008b14       ??_C@_03LLEJOLGL@?4?1?2?$AA@ 1005bb14     LIBCMT:stati32.obj
 0002:00008b18       ??_C@_02EAOCEIGI@?$DP?$CK?$AA@ 1005bb18     LIBCMT:stati32.obj
 0002:00008b1c       ??_C@_0P@MIGLKIOC@CorExitProcess?$AA@ 1005bb1c     LIBCMT:crt0dat.obj
 0002:00008b2c       ??_C@_1BI@BGOHAHKC@?$AAm?$AAs?$AAc?$AAo?$AAr?$AAe?$AAe?$AA?4?$AAd?$AAl?$AAl?$AA?$AA@ 1005bb2c     LIBCMT:crt0dat.obj
 0002:00008b48       ??_C@_0EA@FCLIIPNN@Visual?5C?$CL?$CL?5CRT?3?5Not?5enough?5memor@ 1005bb48     LIBCMT:strerror.obj
 0002:00008b88       __pRawDllMain              1005bb88     LIBCMT:dllcrt0.obj
 0002:00008b88       __pDefaultRawDllMain       1005bb88     LIBCMT:dllcrt0.obj
 0002:00008b90       __OP_FMODjmptab            1005bb90     LIBCMT:_87fmod_.obj
 0002:00008c48       ??_C@_03IIINPABG@tan?$AA@  1005bc48     LIBCMT:_libm_error_.obj
 0002:00008c4c       ??_C@_03LALBNOCG@cos?$AA@  1005bc4c     LIBCMT:_libm_error_.obj
 0002:00008c50       ??_C@_03BLEJJJBH@sin?$AA@  1005bc50     LIBCMT:_libm_error_.obj
 0002:00008c54       ??_C@_04EHEDPDJG@modf?$AA@ 1005bc54     LIBCMT:_libm_error_.obj
 0002:00008c5c       ??_C@_05PBJFFIGL@floor?$AA@ 1005bc5c     LIBCMT:_libm_error_.obj
 0002:00008c64       ??_C@_04GFPJNGEK@ceil?$AA@ 1005bc64     LIBCMT:_libm_error_.obj
 0002:00008c6c       ??_C@_04MLLJIGOK@atan?$AA@ 1005bc6c     LIBCMT:_libm_error_.obj
 0002:00008c74       ??_C@_05EOHGHCHD@exp10?$AA@ 1005bc74     LIBCMT:_libm_error_.obj
 0002:00008c7c       ??_C@_04PDIFKINK@acos?$AA@ 1005bc7c     LIBCMT:_libm_error_.obj
 0002:00008c84       ??_C@_04FIHNOPOL@asin?$AA@ 1005bc84     LIBCMT:_libm_error_.obj
 0002:00008c8c       ??_C@_03MGHMBJCF@log?$AA@  1005bc8c     LIBCMT:_libm_error_.obj
 0002:00008c90       ??_C@_05HGHHAHAP@log10?$AA@ 1005bc90     LIBCMT:_libm_error_.obj
 0002:00008c98       ??_C@_03KHJOGHMM@exp?$AA@  1005bc98     LIBCMT:_libm_error_.obj
 0002:00008c9c       ??_C@_03JGHBODFD@pow?$AA@  1005bc9c     LIBCMT:_libm_error_.obj
 0002:00008ca0       ??_C@_05KLBDPFGC@e?$CL000?$AA@ 1005bca0     LIBCMT:cvt.obj
 0002:00008ca8       ??_C@_1BO@BKOMIGKJ@?$AAr?$AAu?$AAn?$AAt?$AAi?$AAm?$AAe?$AA?5?$AAe?$AAr?$AAr?$AAo?$AAr?$AA?5?$AA?$AA@ 1005bca8     LIBCMT:crt0msg.obj
 0002:00008cc8       ??_C@_15JNBOKNOG@?$AA?$AN?$AA?6?$AA?$AA@ 1005bcc8     LIBCMT:crt0msg.obj
 0002:00008cd0       ??_C@_1BM@JBBEPPHI@?$AAT?$AAL?$AAO?$AAS?$AAS?$AA?5?$AAe?$AAr?$AAr?$AAo?$AAr?$AA?$AN?$AA?6?$AA?$AA@ 1005bcd0     LIBCMT:crt0msg.obj
 0002:00008cec       ??_C@_1BK@KMOMNAAI@?$AAS?$AAI?$AAN?$AAG?$AA?5?$AAe?$AAr?$AAr?$AAo?$AAr?$AA?$AN?$AA?6?$AA?$AA@ 1005bcec     LIBCMT:crt0msg.obj
 0002:00008d08       ??_C@_1BO@BFCDCGC@?$AAD?$AAO?$AAM?$AAA?$AAI?$AAN?$AA?5?$AAe?$AAr?$AAr?$AAo?$AAr?$AA?$AN?$AA?6?$AA?$AA@ 1005bd08     LIBCMT:crt0msg.obj
 0002:00008d28       ??_C@_1BOO@KGEDBGAJ@?$AAR?$AA6?$AA0?$AA3?$AA3?$AA?$AN?$AA?6?$AA?9?$AA?5?$AAA?$AAt?$AAt?$AAe?$AAm?$AAp?$AAt?$AA?5?$AAt?$AAo?$AA?5?$AAu?$AAs?$AAe?$AA?5?$AAM?$AAS?$AAI?$AAL?$AA?5?$AAc?$AAo?$AAd@ 1005bd28     LIBCMT:crt0msg.obj
 0002:00008f18       ??_C@_1GG@GOPILAJP@?$AAR?$AA6?$AA0?$AA3?$AA2?$AA?$AN?$AA?6?$AA?9?$AA?5?$AAn?$AAo?$AAt?$AA?5?$AAe?$AAn?$AAo?$AAu?$AAg?$AAh?$AA?5?$AAs?$AAp?$AAa?$AAc?$AAe?$AA?5?$AAf?$AAo?$AAr?$AA?5?$AAl?$AAo@ 1005bf18     LIBCMT:crt0msg.obj
 0002:00008f80       ??_C@_1MG@ENCOOIDF@?$AAR?$AA6?$AA0?$AA3?$AA1?$AA?$AN?$AA?6?$AA?9?$AA?5?$AAA?$AAt?$AAt?$AAe?$AAm?$AAp?$AAt?$AA?5?$AAt?$AAo?$AA?5?$AAi?$AAn?$AAi?$AAt?$AAi?$AAa?$AAl?$AAi?$AAz?$AAe?$AA?5?$AAt@ 1005bf80     LIBCMT:crt0msg.obj
 0002:00009048       ??_C@_1DO@BMFCDCD@?$AAR?$AA6?$AA0?$AA3?$AA0?$AA?$AN?$AA?6?$AA?9?$AA?5?$AAC?$AAR?$AAT?$AA?5?$AAn?$AAo?$AAt?$AA?5?$AAi?$AAn?$AAi?$AAt?$AAi?$AAa?$AAl?$AAi?$AAz?$AAe?$AAd?$AA?$AN?$AA?6?$AA?$AA@ 1005c048     LIBCMT:crt0msg.obj
 0002:00009088       ??_C@_1EK@HHFLMAOL@?$AAR?$AA6?$AA0?$AA2?$AA8?$AA?$AN?$AA?6?$AA?9?$AA?5?$AAu?$AAn?$AAa?$AAb?$AAl?$AAe?$AA?5?$AAt?$AAo?$AA?5?$AAi?$AAn?$AAi?$AAt?$AAi?$AAa?$AAl?$AAi?$AAz?$AAe?$AA?5?$AAh?$AAe@ 1005c088     LIBCMT:crt0msg.obj
 0002:000090d8       ??_C@_1GK@MFGOKLAG@?$AAR?$AA6?$AA0?$AA2?$AA7?$AA?$AN?$AA?6?$AA?9?$AA?5?$AAn?$AAo?$AAt?$AA?5?$AAe?$AAn?$AAo?$AAu?$AAg?$AAh?$AA?5?$AAs?$AAp?$AAa?$AAc?$AAe?$AA?5?$AAf?$AAo?$AAr?$AA?5?$AAl?$AAo@ 1005c0d8     LIBCMT:crt0msg.obj
 0002:00009148       ??_C@_1GK@MCAAGJMO@?$AAR?$AA6?$AA0?$AA2?$AA6?$AA?$AN?$AA?6?$AA?9?$AA?5?$AAn?$AAo?$AAt?$AA?5?$AAe?$AAn?$AAo?$AAu?$AAg?$AAh?$AA?5?$AAs?$AAp?$AAa?$AAc?$AAe?$AA?5?$AAf?$AAo?$AAr?$AA?5?$AAs?$AAt@ 1005c148     LIBCMT:crt0msg.obj
 0002:000091b8       ??_C@_1EM@MAADIHMB@?$AAR?$AA6?$AA0?$AA2?$AA5?$AA?$AN?$AA?6?$AA?9?$AA?5?$AAp?$AAu?$AAr?$AAe?$AA?5?$AAv?$AAi?$AAr?$AAt?$AAu?$AAa?$AAl?$AA?5?$AAf?$AAu?$AAn?$AAc?$AAt?$AAi?$AAo?$AAn?$AA?5?$AAc@ 1005c1b8     LIBCMT:crt0msg.obj
 0002:00009208       ??_C@_1GK@FHCKBEFA@?$AAR?$AA6?$AA0?$AA2?$AA4?$AA?$AN?$AA?6?$AA?9?$AA?5?$AAn?$AAo?$AAt?$AA?5?$AAe?$AAn?$AAo?$AAu?$AAg?$AAh?$AA?5?$AAs?$AAp?$AAa?$AAc?$AAe?$AA?5?$AAf?$AAo?$AAr?$AA?5?$AA_?$AAo@ 1005c208     LIBCMT:crt0msg.obj
 0002:00009278       ??_C@_1FC@ECHBIFBC@?$AAR?$AA6?$AA0?$AA1?$AA9?$AA?$AN?$AA?6?$AA?9?$AA?5?$AAu?$AAn?$AAa?$AAb?$AAl?$AAe?$AA?5?$AAt?$AAo?$AA?5?$AAo?$AAp?$AAe?$AAn?$AA?5?$AAc?$AAo?$AAn?$AAs?$AAo?$AAl?$AAe?$AA?5@ 1005c278     LIBCMT:crt0msg.obj
 0002:000092d0       ??_C@_1EC@JIBHAOPH@?$AAR?$AA6?$AA0?$AA1?$AA8?$AA?$AN?$AA?6?$AA?9?$AA?5?$AAu?$AAn?$AAe?$AAx?$AAp?$AAe?$AAc?$AAt?$AAe?$AAd?$AA?5?$AAh?$AAe?$AAa?$AAp?$AA?5?$AAe?$AAr?$AAr?$AAo?$AAr?$AA?$AN?$AA?6@ 1005c2d0     LIBCMT:crt0msg.obj
 0002:00009318       ??_C@_1FK@BEOGODMC@?$AAR?$AA6?$AA0?$AA1?$AA7?$AA?$AN?$AA?6?$AA?9?$AA?5?$AAu?$AAn?$AAe?$AAx?$AAp?$AAe?$AAc?$AAt?$AAe?$AAd?$AA?5?$AAm?$AAu?$AAl?$AAt?$AAi?$AAt?$AAh?$AAr?$AAe?$AAa?$AAd?$AA?5@ 1005c318     LIBCMT:crt0msg.obj
 0002:00009378       ??_C@_1FI@LOGNIKDM@?$AAR?$AA6?$AA0?$AA1?$AA6?$AA?$AN?$AA?6?$AA?9?$AA?5?$AAn?$AAo?$AAt?$AA?5?$AAe?$AAn?$AAo?$AAu?$AAg?$AAh?$AA?5?$AAs?$AAp?$AAa?$AAc?$AAe?$AA?5?$AAf?$AAo?$AAr?$AA?5?$AAt?$AAh@ 1005c378     LIBCMT:crt0msg.obj
 0002:000093d0       ??_C@_1EG@BEHAGFJD@?$AAR?$AA6?$AA0?$AA1?$AA0?$AA?$AN?$AA?6?$AA?9?$AA?5?$AAa?$AAb?$AAo?$AAr?$AAt?$AA?$CI?$AA?$CJ?$AA?5?$AAh?$AAa?$AAs?$AA?5?$AAb?$AAe?$AAe?$AAn?$AA?5?$AAc?$AAa?$AAl?$AAl?$AAe?$AAd@ 1005c3d0     LIBCMT:crt0msg.obj
 0002:00009418       ??_C@_1FI@HONFMGBI@?$AAR?$AA6?$AA0?$AA0?$AA9?$AA?$AN?$AA?6?$AA?9?$AA?5?$AAn?$AAo?$AAt?$AA?5?$AAe?$AAn?$AAo?$AAu?$AAg?$AAh?$AA?5?$AAs?$AAp?$AAa?$AAc?$AAe?$AA?5?$AAf?$AAo?$AAr?$AA?5?$AAe?$AAn@ 1005c418     LIBCMT:crt0msg.obj
 0002:00009470       ??_C@_1FE@LLNEDJMD@?$AAR?$AA6?$AA0?$AA0?$AA8?$AA?$AN?$AA?6?$AA?9?$AA?5?$AAn?$AAo?$AAt?$AA?5?$AAe?$AAn?$AAo?$AAu?$AAg?$AAh?$AA?5?$AAs?$AAp?$AAa?$AAc?$AAe?$AA?5?$AAf?$AAo?$AAr?$AA?5?$AAa?$AAr@ 1005c470     LIBCMT:crt0msg.obj
 0002:000094c8       ??_C@_1FK@PGACCAFB@?$AAR?$AA6?$AA0?$AA0?$AA2?$AA?$AN?$AA?6?$AA?9?$AA?5?$AAf?$AAl?$AAo?$AAa?$AAt?$AAi?$AAn?$AAg?$AA?5?$AAp?$AAo?$AAi?$AAn?$AAt?$AA?5?$AAs?$AAu?$AAp?$AAp?$AAo?$AAr?$AAt?$AA?5@ 1005c4c8     LIBCMT:crt0msg.obj
 0002:000095d8       ??_C@_1EK@MBDPDCGA@?$AAM?$AAi?$AAc?$AAr?$AAo?$AAs?$AAo?$AAf?$AAt?$AA?5?$AAV?$AAi?$AAs?$AAu?$AAa?$AAl?$AA?5?$AAC?$AA?$CL?$AA?$CL?$AA?5?$AAR?$AAu?$AAn?$AAt?$AAi?$AAm?$AAe?$AA?5?$AAL?$AAi?$AAb@ 1005c5d8     LIBCMT:crt0msg.obj
 0002:00009624       ??_C@_15IABLJNFO@?$AA?6?$AA?6?$AA?$AA@ 1005c624     LIBCMT:crt0msg.obj
 0002:0000962c       ??_C@_17LGKOMLJ@?$AA?4?$AA?4?$AA?4?$AA?$AA@ 1005c62c     LIBCMT:crt0msg.obj
 0002:00009634       ??_C@_1CO@EAEJAADC@?$AA?$DM?$AAp?$AAr?$AAo?$AAg?$AAr?$AAa?$AAm?$AA?5?$AAn?$AAa?$AAm?$AAe?$AA?5?$AAu?$AAn?$AAk?$AAn?$AAo?$AAw?$AAn?$AA?$DO?$AA?$AA@ 1005c634     LIBCMT:crt0msg.obj
 0002:00009664       ??_C@_1DE@JNGNBFGO@?$AAR?$AAu?$AAn?$AAt?$AAi?$AAm?$AAe?$AA?5?$AAE?$AAr?$AAr?$AAo?$AAr?$AA?$CB?$AA?6?$AA?6?$AAP?$AAr?$AAo?$AAg?$AAr?$AAa?$AAm?$AA?3?$AA?5?$AA?$AA@ 1005c664     LIBCMT:crt0msg.obj
 0002:00009698       ??_C@_1BC@GDGBMEMK@?$AAH?$AAH?$AA?3?$AAm?$AAm?$AA?3?$AAs?$AAs?$AA?$AA@ 1005c698     LIBCMT:nlsdata2.obj
 0002:000096ac       ??_C@_1CI@KNAKOEBC@?$AAd?$AAd?$AAd?$AAd?$AA?0?$AA?5?$AAM?$AAM?$AAM?$AAM?$AA?5?$AAd?$AAd?$AA?0?$AA?5?$AAy?$AAy?$AAy?$AAy?$AA?$AA@ 1005c6ac     LIBCMT:nlsdata2.obj
 0002:000096d4       ??_C@_1BC@IEBCMHCM@?$AAM?$AAM?$AA?1?$AAd?$AAd?$AA?1?$AAy?$AAy?$AA?$AA@ 1005c6d4     LIBCMT:nlsdata2.obj
 0002:000096e8       ??_C@_15CLMNNGEL@?$AAP?$AAM?$AA?$AA@ 1005c6e8     LIBCMT:nlsdata2.obj
 0002:000096f0       ??_C@_15ODEHAHHF@?$AAA?$AAM?$AA?$AA@ 1005c6f0     LIBCMT:nlsdata2.obj
 0002:000096f8       ??_C@_1BC@FEMKIFH@?$AAD?$AAe?$AAc?$AAe?$AAm?$AAb?$AAe?$AAr?$AA?$AA@ 1005c6f8     LIBCMT:nlsdata2.obj
 0002:0000970c       ??_C@_1BC@BGLIFPF@?$AAN?$AAo?$AAv?$AAe?$AAm?$AAb?$AAe?$AAr?$AA?$AA@ 1005c70c     LIBCMT:nlsdata2.obj
 0002:00009720       ??_C@_1BA@EPANDLNG@?$AAO?$AAc?$AAt?$AAo?$AAb?$AAe?$AAr?$AA?$AA@ 1005c720     LIBCMT:nlsdata2.obj
 0002:00009730       ??_C@_1BE@DKAAMBJL@?$AAS?$AAe?$AAp?$AAt?$AAe?$AAm?$AAb?$AAe?$AAr?$AA?$AA@ 1005c730     LIBCMT:nlsdata2.obj
 0002:00009744       ??_C@_1O@PAHLKOAC@?$AAA?$AAu?$AAg?$AAu?$AAs?$AAt?$AA?$AA@ 1005c744     LIBCMT:nlsdata2.obj
 0002:00009754       ??_C@_19BIFMLPCD@?$AAJ?$AAu?$AAl?$AAy?$AA?$AA@ 1005c754     LIBCMT:nlsdata2.obj
 0002:00009760       ??_C@_19EPFLPGAP@?$AAJ?$AAu?$AAn?$AAe?$AA?$AA@ 1005c760     LIBCMT:nlsdata2.obj
 0002:0000976c       ??_C@_1M@GJNLMHFD@?$AAA?$AAp?$AAr?$AAi?$AAl?$AA?$AA@ 1005c76c     LIBCMT:nlsdata2.obj
 0002:00009778       ??_C@_1M@IKEENEDF@?$AAM?$AAa?$AAr?$AAc?$AAh?$AA?$AA@ 1005c778     LIBCMT:nlsdata2.obj
 0002:00009784       ??_C@_1BC@JGDDFFAM@?$AAF?$AAe?$AAb?$AAr?$AAu?$AAa?$AAr?$AAy?$AA?$AA@ 1005c784     LIBCMT:nlsdata2.obj
 0002:00009798       ??_C@_1BA@EFMEIEBA@?$AAJ?$AAa?$AAn?$AAu?$AAa?$AAr?$AAy?$AA?$AA@ 1005c798     LIBCMT:nlsdata2.obj
 0002:000097a8       ??_C@_17EGKACKIF@?$AAD?$AAe?$AAc?$AA?$AA@ 1005c7a8     LIBCMT:nlsdata2.obj
 0002:000097b0       ??_C@_17BBDMLCIG@?$AAN?$AAo?$AAv?$AA?$AA@ 1005c7b0     LIBCMT:nlsdata2.obj
 0002:000097b8       ??_C@_17FNLKOI@?$AAO?$AAc?$AAt?$AA?$AA@ 1005c7b8     LIBCMT:nlsdata2.obj
 0002:000097c0       ??_C@_17HCHCOKMG@?$AAS?$AAe?$AAp?$AA?$AA@ 1005c7c0     LIBCMT:nlsdata2.obj
 0002:000097c8       ??_C@_17ICPELBCN@?$AAA?$AAu?$AAg?$AA?$AA@ 1005c7c8     LIBCMT:nlsdata2.obj
 0002:000097d0       ??_C@_17IJPCKHK@?$AAJ?$AAu?$AAl?$AA?$AA@ 1005c7d0     LIBCMT:nlsdata2.obj
 0002:000097d8       ??_C@_17KCJGOCPB@?$AAJ?$AAu?$AAn?$AA?$AA@ 1005c7d8     LIBCMT:nlsdata2.obj
 0002:000097e0       ??_C@_17PNNKMEED@?$AAM?$AAa?$AAy?$AA?$AA@ 1005c7e0     LIBCMT:nlsdata2.obj
 0002:000097e8       ??_C@_17LFPOIHDD@?$AAA?$AAp?$AAr?$AA?$AA@ 1005c7e8     LIBCMT:nlsdata2.obj
 0002:000097f0       ??_C@_17CKNLEDEC@?$AAM?$AAa?$AAr?$AA?$AA@ 1005c7f0     LIBCMT:nlsdata2.obj
 0002:000097f8       ??_C@_17LMDJEKJN@?$AAF?$AAe?$AAb?$AA?$AA@ 1005c7f8     LIBCMT:nlsdata2.obj
 0002:00009800       ??_C@_17DKNBKCHM@?$AAJ?$AAa?$AAn?$AA?$AA@ 1005c800     LIBCMT:nlsdata2.obj
 0002:00009808       ??_C@_1BC@ENMNNPAJ@?$AAS?$AAa?$AAt?$AAu?$AAr?$AAd?$AAa?$AAy?$AA?$AA@ 1005c808     LIBCMT:nlsdata2.obj
 0002:0000981c       ??_C@_1O@PDICJHAG@?$AAF?$AAr?$AAi?$AAd?$AAa?$AAy?$AA?$AA@ 1005c81c     LIBCMT:nlsdata2.obj
 0002:0000982c       ??_C@_1BC@HHMNLIHE@?$AAT?$AAh?$AAu?$AAr?$AAs?$AAd?$AAa?$AAy?$AA?$AA@ 1005c82c     LIBCMT:nlsdata2.obj
 0002:00009840       ??_C@_1BE@EBOGMDOH@?$AAW?$AAe?$AAd?$AAn?$AAe?$AAs?$AAd?$AAa?$AAy?$AA?$AA@ 1005c840     LIBCMT:nlsdata2.obj
 0002:00009854       ??_C@_1BA@ENFBFFEK@?$AAT?$AAu?$AAe?$AAs?$AAd?$AAa?$AAy?$AA?$AA@ 1005c854     LIBCMT:nlsdata2.obj
 0002:00009864       ??_C@_1O@MMNBFLIA@?$AAM?$AAo?$AAn?$AAd?$AAa?$AAy?$AA?$AA@ 1005c864     LIBCMT:nlsdata2.obj
 0002:00009874       ??_C@_1O@IHNHDHPB@?$AAS?$AAu?$AAn?$AAd?$AAa?$AAy?$AA?$AA@ 1005c874     LIBCMT:nlsdata2.obj
 0002:00009884       ??_C@_17GGIBDPIH@?$AAS?$AAa?$AAt?$AA?$AA@ 1005c884     LIBCMT:nlsdata2.obj
 0002:0000988c       ??_C@_17HFOLPPLP@?$AAF?$AAr?$AAi?$AA?$AA@ 1005c88c     LIBCMT:nlsdata2.obj
 0002:00009894       ??_C@_17PDPHAADD@?$AAT?$AAh?$AAu?$AA?$AA@ 1005c894     LIBCMT:nlsdata2.obj
 0002:0000989c       ??_C@_17CJEDCEPE@?$AAW?$AAe?$AAd?$AA?$AA@ 1005c89c     LIBCMT:nlsdata2.obj
 0002:000098a4       ??_C@_17BMKGEGOJ@?$AAT?$AAu?$AAe?$AA?$AA@ 1005c8a4     LIBCMT:nlsdata2.obj
 0002:000098ac       ??_C@_17KBOMKBF@?$AAM?$AAo?$AAn?$AA?$AA@ 1005c8ac     LIBCMT:nlsdata2.obj
 0002:000098b4       ??_C@_17MBGCMIPB@?$AAS?$AAu?$AAn?$AA?$AA@ 1005c8b4     LIBCMT:nlsdata2.obj
 0002:000098bc       ??_C@_08JCCMCCIL@HH?3mm?3ss?$AA@ 1005c8bc     LIBCMT:nlsdata2.obj
 0002:000098c8       ??_C@_0BE@CKGJFCPC@dddd?0?5MMMM?5dd?0?5yyyy?$AA@ 1005c8c8     LIBCMT:nlsdata2.obj
 0002:000098dc       ??_C@_08BPBNCDIB@MM?1dd?1yy?$AA@ 1005c8dc     LIBCMT:nlsdata2.obj
 0002:000098e8       ??_C@_02CJNFDJBF@PM?$AA@   1005c8e8     LIBCMT:nlsdata2.obj
 0002:000098ec       ??_C@_02DEDBPAFC@AM?$AA@   1005c8ec     LIBCMT:nlsdata2.obj
 0002:000098f0       ??_C@_08EDHMEBNP@December?$AA@ 1005c8f0     LIBCMT:nlsdata2.obj
 0002:000098fc       ??_C@_08HCHEGEOA@November?$AA@ 1005c8fc     LIBCMT:nlsdata2.obj
 0002:00009908       ??_C@_07JJNFCEND@October?$AA@ 1005c908     LIBCMT:nlsdata2.obj
 0002:00009910       ??_C@_09BHHEALKD@September?$AA@ 1005c910     LIBCMT:nlsdata2.obj
 0002:0000991c       ??_C@_06LBBHFDDG@August?$AA@ 1005c91c     LIBCMT:nlsdata2.obj
 0002:00009924       ??_C@_04MIEPOIFP@July?$AA@ 1005c924     LIBCMT:nlsdata2.obj
 0002:0000992c       ??_C@_04CNLMGBGM@June?$AA@ 1005c92c     LIBCMT:nlsdata2.obj
 0002:00009934       ??_C@_05DMJDNLEJ@April?$AA@ 1005c934     LIBCMT:nlsdata2.obj
 0002:0000993c       ??_C@_05HPCKOFNC@March?$AA@ 1005c93c     LIBCMT:nlsdata2.obj
 0002:00009944       ??_C@_08GNJGEPFN@February?$AA@ 1005c944     LIBCMT:nlsdata2.obj
 0002:00009950       ??_C@_07CGJPFGJA@January?$AA@ 1005c950     LIBCMT:nlsdata2.obj
 0002:00009958       ??_C@_03MKABNOCG@Dec?$AA@  1005c958     LIBCMT:nlsdata2.obj
 0002:0000995c       ??_C@_03JPJOFNIA@Nov?$AA@  1005c95c     LIBCMT:nlsdata2.obj
 0002:00009960       ??_C@_03BMAOKBAD@Oct?$AA@  1005c960     LIBCMT:nlsdata2.obj
 0002:00009964       ??_C@_03GGCAPAJC@Sep?$AA@  1005c964     LIBCMT:nlsdata2.obj
 0002:00009968       ??_C@_03IFJFEIGA@Aug?$AA@  1005c968     LIBCMT:nlsdata2.obj
 0002:0000996c       ??_C@_03LBGABGKK@Jul?$AA@  1005c96c     LIBCMT:nlsdata2.obj
 0002:00009970       ??_C@_03IDFGHECI@Jun?$AA@  1005c970     LIBCMT:nlsdata2.obj
 0002:00009974       ??_C@_03CNMDKL@May?$AA@    1005c974     LIBCMT:nlsdata2.obj
 0002:00009978       ??_C@_03LEOLGMJP@Apr?$AA@  1005c978     LIBCMT:nlsdata2.obj
 0002:0000997c       ??_C@_03ODNJBKGA@Mar?$AA@  1005c97c     LIBCMT:nlsdata2.obj
 0002:00009980       ??_C@_03HJBDCHOM@Feb?$AA@  1005c980     LIBCMT:nlsdata2.obj
 0002:00009984       ??_C@_03JIHJHPIE@Jan?$AA@  1005c984     LIBCMT:nlsdata2.obj
 0002:00009988       ??_C@_08INBOOONO@Saturday?$AA@ 1005c988     LIBCMT:nlsdata2.obj
 0002:00009994       ??_C@_06JECMNKMI@Friday?$AA@ 1005c994     LIBCMT:nlsdata2.obj
 0002:0000999c       ??_C@_08HACCIKIA@Thursday?$AA@ 1005c99c     LIBCMT:nlsdata2.obj
 0002:000099a8       ??_C@_09DLIGFAKA@Wednesday?$AA@ 1005c9a8     LIBCMT:nlsdata2.obj
 0002:000099b4       ??_C@_07BAAGCFCM@Tuesday?$AA@ 1005c9b4     LIBCMT:nlsdata2.obj
 0002:000099bc       ??_C@_06JLEDEDGH@Monday?$AA@ 1005c9bc     LIBCMT:nlsdata2.obj
 0002:000099c4       ??_C@_06OOPIFAJ@Sunday?$AA@ 1005c9c4     LIBCMT:nlsdata2.obj
 0002:000099cc       ??_C@_03FEFJNEK@Sat?$AA@   1005c9cc     LIBCMT:nlsdata2.obj
 0002:000099d0       ??_C@_03IDIOELNC@Fri?$AA@  1005c9d0     LIBCMT:nlsdata2.obj
 0002:000099d4       ??_C@_03IOFIKPDN@Thu?$AA@  1005c9d4     LIBCMT:nlsdata2.obj
 0002:000099d8       ??_C@_03MHOMLAJA@Wed?$AA@  1005c9d8     LIBCMT:nlsdata2.obj
 0002:000099dc       ??_C@_03NAGEINEP@Tue?$AA@  1005c9dc     LIBCMT:nlsdata2.obj
 0002:000099e0       ??_C@_03PDAGKDH@Mon?$AA@   1005c9e0     LIBCMT:nlsdata2.obj
 0002:000099e4       ??_C@_03KOEHGMDN@Sun?$AA@  1005c9e4     LIBCMT:nlsdata2.obj
 0002:000099e8       ??_C@_1BK@DBDEIDLH@?$AAK?$AAE?$AAR?$AAN?$AAE?$AAL?$AA3?$AA2?$AA?4?$AAD?$AAL?$AAL?$AA?$AA@ 1005c9e8     LIBCMT:tidtable.obj
 0002:00009a04       ??_C@_07PEJMOBNF@FlsFree?$AA@ 1005ca04     LIBCMT:tidtable.obj
 0002:00009a0c       ??_C@_0M@JCPCPOEF@FlsSetValue?$AA@ 1005ca0c     LIBCMT:tidtable.obj
 0002:00009a18       ??_C@_0M@GDNOONDI@FlsGetValue?$AA@ 1005ca18     LIBCMT:tidtable.obj
 0002:00009a24       ??_C@_08KNHFBNJ@FlsAlloc?$AA@ 1005ca24     LIBCMT:tidtable.obj
 0002:00009a34       ??_7exception@std@@6B@     1005ca34     LIBCMT:stdexcpt.obj
 0002:00009a3c       ??_C@_0BC@EOODALEL@Unknown?5exception?$AA@ 1005ca3c     LIBCMT:stdexcpt.obj
 0002:00009a70       ??_C@_1O@CEDCILHN@?$AA?$CI?$AAn?$AAu?$AAl?$AAl?$AA?$CJ?$AA?$AA@ 1005ca70     LIBCMT:output.obj
 0002:00009a80       ??_C@_06OJHGLDPL@?$CInull?$CJ?$AA@ 1005ca80     LIBCMT:output.obj
 0002:00009a88       ___lookuptable             1005ca88     LIBCMT:output.obj
 0002:00009b04       ??_C@_04PNGHFIJN@?4com?$AA@ 1005cb04     LIBCMT:stat.obj
 0002:00009b0c       ??_C@_04NEEFLLOK@?4bat?$AA@ 1005cb0c     LIBCMT:stat.obj
 0002:00009b14       ??_C@_04CPCBDHLK@?4cmd?$AA@ 1005cb14     LIBCMT:stat.obj
 0002:00009b1c       ??_C@_04JLMDILM@?4exe?$AA@ 1005cb1c     LIBCMT:stat.obj
 0002:00009ba8       ??_C@_01NEMOKFLO@?$DN?$AA@ 1005cba8     LIBCMT:setlocal.obj
 0002:00009bac       ??_C@_0BG@KLEAJEFJ@Illegal?5byte?5sequence?$AA@ 1005cbac     LIBCMT:syserr.obj
 0002:00009bc4       ??_C@_0BE@ICMCHPHH@Directory?5not?5empty?$AA@ 1005cbc4     LIBCMT:syserr.obj
 0002:00009bd8       ??_C@_0BJ@IHEHINLI@Function?5not?5implemented?$AA@ 1005cbd8     LIBCMT:syserr.obj
 0002:00009bf4       ??_C@_0BD@CLHBCGPB@No?5locks?5available?$AA@ 1005cbf4     LIBCMT:syserr.obj
 0002:00009c08       ??_C@_0BC@BEDIHIDK@Filename?5too?5long?$AA@ 1005cc08     LIBCMT:syserr.obj
 0002:00009c1c       ??_C@_0BK@JAEBMJJM@Resource?5deadlock?5avoided?$AA@ 1005cc1c     LIBCMT:syserr.obj
 0002:00009c38       ??_C@_0BB@FCBJFCAJ@Result?5too?5large?$AA@ 1005cc38     LIBCMT:syserr.obj
 0002:00009c4c       ??_C@_0N@MMJPGLJK@Domain?5error?$AA@ 1005cc4c     LIBCMT:syserr.obj
 0002:00009c5c       ??_C@_0M@LHEPIIOM@Broken?5pipe?$AA@ 1005cc5c     LIBCMT:syserr.obj
 0002:00009c68       ??_C@_0P@PKCJJLLM@Too?5many?5links?$AA@ 1005cc68     LIBCMT:syserr.obj
 0002:00009c78       ??_C@_0BG@DDBFNKBH@Read?9only?5file?5system?$AA@ 1005cc78     LIBCMT:syserr.obj
 0002:00009c90       ??_C@_0N@FEHLOILP@Invalid?5seek?$AA@ 1005cc90     LIBCMT:syserr.obj
 0002:00009ca0       ??_C@_0BI@FEALHKLD@No?5space?5left?5on?5device?$AA@ 1005cca0     LIBCMT:syserr.obj
 0002:00009cb8       ??_C@_0P@LFMMIPAE@File?5too?5large?$AA@ 1005ccb8     LIBCMT:syserr.obj
 0002:00009cc8       ??_C@_0CE@ONOKNLPF@Inappropriate?5I?1O?5control?5operat@ 1005ccc8     LIBCMT:syserr.obj
 0002:00009cec       ??_C@_0BE@INBJMKGG@Too?5many?5open?5files?$AA@ 1005ccec     LIBCMT:syserr.obj
 0002:00009d00       ??_C@_0BO@IIFBODJE@Too?5many?5open?5files?5in?5system?$AA@ 1005cd00     LIBCMT:syserr.obj
 0002:00009d20       ??_C@_0BB@HMGGCEBG@Invalid?5argument?$AA@ 1005cd20     LIBCMT:syserr.obj
 0002:00009d34       ??_C@_0P@NDHGCGKE@Is?5a?5directory?$AA@ 1005cd34     LIBCMT:syserr.obj
 0002:00009d44       ??_C@_0BA@CJBACOOL@Not?5a?5directory?$AA@ 1005cd44     LIBCMT:syserr.obj
 0002:00009d54       ??_C@_0P@NLEIANHE@No?5such?5device?$AA@ 1005cd54     LIBCMT:syserr.obj
 0002:00009d64       ??_C@_0O@OAMDNOCP@Improper?5link?$AA@ 1005cd64     LIBCMT:syserr.obj
 0002:00009d74       ??_C@_0M@NAAJNNGH@File?5exists?$AA@ 1005cd74     LIBCMT:syserr.obj
 0002:00009d80       ??_C@_0BA@BIBLIOEK@Resource?5device?$AA@ 1005cd80     LIBCMT:syserr.obj
 0002:00009d90       ??_C@_0O@NIPGCINC@Unknown?5error?$AA@ 1005cd90     LIBCMT:syserr.obj
 0002:00009da0       ??_C@_0M@LOEHLCJD@Bad?5address?$AA@ 1005cda0     LIBCMT:syserr.obj
 0002:00009dac       ??_C@_0BC@HFNFNKAI@Permission?5denied?$AA@ 1005cdac     LIBCMT:syserr.obj
 0002:00009dc0       ??_C@_0BB@IMDKMPFB@Not?5enough?5space?$AA@ 1005cdc0     LIBCMT:syserr.obj
 0002:00009dd4       ??_C@_0CB@EPFKGNAK@Resource?5temporarily?5unavailable@ 1005cdd4     LIBCMT:syserr.obj
 0002:00009df8       ??_C@_0BD@LOHELEP@No?5child?5processes?$AA@ 1005cdf8     LIBCMT:syserr.obj
 0002:00009e0c       ??_C@_0BE@NFGDDCEF@Bad?5file?5descriptor?$AA@ 1005ce0c     LIBCMT:syserr.obj
 0002:00009e20       ??_C@_0BC@HKPNECK@Exec?5format?5error?$AA@ 1005ce20     LIBCMT:syserr.obj
 0002:00009e34       ??_C@_0BC@MFFGCDFL@Arg?5list?5too?5long?$AA@ 1005ce34     LIBCMT:syserr.obj
 0002:00009e48       ??_C@_0BK@DPKMCKJ@No?5such?5device?5or?5address?$AA@ 1005ce48     LIBCMT:syserr.obj
 0002:00009e64       ??_C@_0BD@KKNFOBBD@Input?1output?5error?$AA@ 1005ce64     LIBCMT:syserr.obj
 0002:00009e78       ??_C@_0BK@FJBOAFDK@Interrupted?5function?5call?$AA@ 1005ce78     LIBCMT:syserr.obj
 0002:00009e94       ??_C@_0BA@FKIAIBGA@No?5such?5process?$AA@ 1005ce94     LIBCMT:syserr.obj
 0002:00009ea4       ??_C@_0BK@FMDHKPNF@No?5such?5file?5or?5directory?$AA@ 1005cea4     LIBCMT:syserr.obj
 0002:00009ec0       ??_C@_0BI@BJFCGOHL@Operation?5not?5permitted?$AA@ 1005cec0     LIBCMT:syserr.obj
 0002:00009ed8       ??_C@_08INEPGKHH@No?5error?$AA@ 1005ced8     LIBCMT:syserr.obj
 0002:00009ee4       ??_C@_02CLFPBFFP@TZ?$AA@   1005cee4     LIBCMT:tzset.obj
 0002:00009ee8       ___dnames                  1005cee8     LIBCMT:timeset.obj
 0002:00009f00       ___mnames                  1005cf00     LIBCMT:timeset.obj
 0002:00009f28       __XcptActTab               1005cf28     LIBCMT:winxfltr.obj
 0002:00009fb8       __First_FPE_Indx           1005cfb8     LIBCMT:winxfltr.obj
 0002:00009fbc       __Num_FPE                  1005cfbc     LIBCMT:winxfltr.obj
 0002:00009fc0       __XcptActTabSize           1005cfc0     LIBCMT:winxfltr.obj
 0002:00009fc4       __XcptActTabCount          1005cfc4     LIBCMT:winxfltr.obj
 0002:0000b7f0       __indefinite               1005e7f0     LIBCMT:_87disp_.obj
 0002:0000b7fa       __piby2                    1005e7fa     LIBCMT:_87disp_.obj
 0002:0000b828       __DEFAULT_CW_in_mem        1005e828     LIBCMT:_common_.obj
 0002:0000b82a       __pi_by_2_to_61            1005e82a     LIBCMT:_common_.obj
 0002:000109c0       __infinity                 100639c0     LIBCMT:_87tran_.obj
 0002:000109ca       __minfinity                100639ca     LIBCMT:_87tran_.obj
 0002:000109d4       __logemax                  100639d4     LIBCMT:_87tran_.obj
 0002:000109fa       __OP_EXPjmptab             100639fa     LIBCMT:_87tran_.obj
 0002:00010a1c       ??_C@_0L@KDOEJCKC@_nextafter?$AA@ 10063a1c     LIBCMT:_fpexcept_.obj
 0002:00010a28       ??_C@_05JGDBENOH@_logb?$AA@ 10063a28     LIBCMT:_fpexcept_.obj
 0002:00010a30       ??_C@_03ONILCKOB@_yn?$AA@  10063a30     LIBCMT:_fpexcept_.obj
 0002:00010a34       ??_C@_03NAKIGLHK@_y1?$AA@  10063a34     LIBCMT:_fpexcept_.obj
 0002:00010a38       ??_C@_03MJLDFKDL@_y0?$AA@  10063a38     LIBCMT:_fpexcept_.obj
 0002:00010a3c       ??_C@_05GKKHEGJL@frexp?$AA@ 10063a3c     LIBCMT:_fpexcept_.obj
 0002:00010a44       ??_C@_04KEPJIHGP@fmod?$AA@ 10063a44     LIBCMT:_fpexcept_.obj
 0002:00010a4c       ??_C@_06MEIMCGCF@_hypot?$AA@ 10063a4c     LIBCMT:_fpexcept_.obj
 0002:00010a54       ??_C@_05KBKMEMPO@_cabs?$AA@ 10063a54     LIBCMT:_fpexcept_.obj
 0002:00010a5c       ??_C@_05CEJMAHNP@ldexp?$AA@ 10063a5c     LIBCMT:_fpexcept_.obj
 0002:00010a64       ??_C@_04ODHECPBC@fabs?$AA@ 10063a64     LIBCMT:_fpexcept_.obj
 0002:00010a6c       ??_C@_04EIAKFFMI@sqrt?$AA@ 10063a6c     LIBCMT:_fpexcept_.obj
 0002:00010a74       ??_C@_05KNGEOGJB@atan2?$AA@ 10063a74     LIBCMT:_fpexcept_.obj
 0002:00010a7c       ??_C@_04FJHINJAO@tanh?$AA@ 10063a7c     LIBCMT:_fpexcept_.obj
 0002:00010a84       ??_C@_04HPJJNFIM@cosh?$AA@ 10063a84     LIBCMT:_fpexcept_.obj
 0002:00010a8c       ??_C@_04COOMCNPB@sinh?$AA@ 10063a8c     LIBCMT:_fpexcept_.obj
 0002:00010a94       ??_C@_0BI@DFKBFLJE@GetProcessWindowStation?$AA@ 10063a94     LIBCMT:crtmboxw.obj
 0002:00010aac       ??_C@_0BK@DEKFELLI@GetUserObjectInformationW?$AA@ 10063aac     LIBCMT:crtmboxw.obj
 0002:00010ac8       ??_C@_0BD@HHGDFDBJ@GetLastActivePopup?$AA@ 10063ac8     LIBCMT:crtmboxw.obj
 0002:00010adc       ??_C@_0BA@HNOPNCHB@GetActiveWindow?$AA@ 10063adc     LIBCMT:crtmboxw.obj
 0002:00010aec       ??_C@_0M@DLDCCGNP@MessageBoxW?$AA@ 10063aec     LIBCMT:crtmboxw.obj
 0002:00010af8       ??_C@_1BG@GOEBHBDC@?$AAU?$AAS?$AAE?$AAR?$AA3?$AA2?$AA?4?$AAD?$AAL?$AAL?$AA?$AA@ 10063af8     LIBCMT:crtmboxw.obj
 0002:00010b10       ___newctype                10063b10     LIBCMT:ctype.obj
 0002:00010e10       __wctype                   10063e10     LIBCMT:ctype.obj
 0002:00011018       ___newclmap                10064018     LIBCMT:ctype.obj
 0002:00011198       ___newcumap                10064198     LIBCMT:ctype.obj
 0002:00011320       ??_C@_0BK@CFCOFLF@?5Complete?5Object?5Locator?8?$AA@ 10064320     LIBCMT:undname.obj
 0002:0001133c       ??_C@_0BN@MECKDCOJ@?5Class?5Hierarchy?5Descriptor?8?$AA@ 1006433c     LIBCMT:undname.obj
 0002:0001135c       ??_C@_0BD@LGICGFMM@?5Base?5Class?5Array?8?$AA@ 1006435c     LIBCMT:undname.obj
 0002:00011370       ??_C@_0BM@LDKODKLH@?5Base?5Class?5Descriptor?5at?5?$CI?$AA@ 10064370     LIBCMT:undname.obj
 0002:0001138c       ??_C@_0BC@DAFEJGAK@?5Type?5Descriptor?8?$AA@ 1006438c     LIBCMT:undname.obj
 0002:000113a0       ??_C@_0BM@PMGGMLDN@?$GAlocal?5static?5thread?5guard?8?$AA@ 100643a0     LIBCMT:undname.obj
 0002:000113bc       ??_C@_0CL@FGIJHLCE@?$GAmanaged?5vector?5copy?5constructor@ 100643bc     LIBCMT:undname.obj
 0002:000113e8       ??_C@_0CJ@GJELGAMM@?$GAvector?5vbase?5copy?5constructor?5i@ 100643e8     LIBCMT:undname.obj
 0002:00011414       ??_C@_0CD@CGAJBKEJ@?$GAvector?5copy?5constructor?5iterato@ 10064414     LIBCMT:undname.obj
 0002:00011438       ??_C@_0CB@PDBIFEP@?$GAdynamic?5atexit?5destructor?5for?5?8@ 10064438     LIBCMT:undname.obj
 0002:0001145c       ??_C@_0BL@CLIPGLGB@?$GAdynamic?5initializer?5for?5?8?$AA@ 1006445c     LIBCMT:undname.obj
 0002:00011478       ??_C@_0CM@FCBBDIGB@?$GAeh?5vector?5vbase?5copy?5constructo@ 10064478     LIBCMT:undname.obj
 0002:000114a4       ??_C@_0CG@HLDDJMAG@?$GAeh?5vector?5copy?5constructor?5iter@ 100644a4     LIBCMT:undname.obj
 0002:000114cc       ??_C@_0CF@IMGKMJNO@?$GAmanaged?5vector?5destructor?5itera@ 100644cc     LIBCMT:undname.obj
 0002:000114f4       ??_C@_0CG@CFDHKGGD@?$GAmanaged?5vector?5constructor?5iter@ 100644f4     LIBCMT:undname.obj
 0002:0001151c       ??_C@_0BN@CKNJLHMB@?$GAplacement?5delete?$FL?$FN?5closure?8?$AA@ 1006451c     LIBCMT:undname.obj
 0002:0001153c       ??_C@_0BL@CNOONJFP@?$GAplacement?5delete?5closure?8?$AA@ 1006453c     LIBCMT:undname.obj
 0002:00011558       ??_C@_0P@HJKNJFNN@?$GAomni?5callsig?8?$AA@ 10064558     LIBCMT:undname.obj
 0002:00011568       ??_C@_09LBNFPBCA@?5delete?$FL?$FN?$AA@ 10064568     LIBCMT:undname.obj
 0002:00011574       ??_C@_06FHBGPFGH@?5new?$FL?$FN?$AA@ 10064574     LIBCMT:undname.obj
 0002:0001157c       ??_C@_0CE@IIHCMGGL@?$GAlocal?5vftable?5constructor?5closu@ 1006457c     LIBCMT:undname.obj
 0002:000115a0       ??_C@_0BA@KKLDJDLB@?$GAlocal?5vftable?8?$AA@ 100645a0     LIBCMT:undname.obj
 0002:000115b0       ??_C@_05KHLCHHI@?$GARTTI?$AA@ 100645b0     LIBCMT:undname.obj
 0002:000115b8       ??_C@_03KLGMFNMG@?$GAEH?$AA@ 100645b8     LIBCMT:undname.obj
 0002:000115bc       ??_C@_0BA@KBCDOMBN@?$GAudt?5returning?8?$AA@ 100645bc     LIBCMT:undname.obj
 0002:000115cc       ??_C@_0BL@LLKPOHJI@?$GAcopy?5constructor?5closure?8?$AA@ 100645cc     LIBCMT:undname.obj
 0002:000115e8       ??_C@_0CH@OOJPLCPH@?$GAeh?5vector?5vbase?5constructor?5ite@ 100645e8     LIBCMT:undname.obj
 0002:00011610       ??_C@_0CA@GCEOPDGL@?$GAeh?5vector?5destructor?5iterator?8?$AA@ 10064610     LIBCMT:undname.obj
 0002:00011630       ??_C@_0CB@JONCMFFK@?$GAeh?5vector?5constructor?5iterator?8@ 10064630     LIBCMT:undname.obj
 0002:00011654       ??_C@_0BL@NILFHHPC@?$GAvirtual?5displacement?5map?8?$AA@ 10064654     LIBCMT:undname.obj
 0002:00011670       ??_C@_0CE@IKBNEHA@?$GAvector?5vbase?5constructor?5iterat@ 10064670     LIBCMT:undname.obj
 0002:00011694       ??_C@_0BN@LFPFMEDL@?$GAvector?5destructor?5iterator?8?$AA@ 10064694     LIBCMT:undname.obj
 0002:000116b4       ??_C@_0BO@PFGOCPJJ@?$GAvector?5constructor?5iterator?8?$AA@ 100646b4     LIBCMT:undname.obj
 0002:000116d4       ??_C@_0BN@IMDCHIKM@?$GAscalar?5deleting?5destructor?8?$AA@ 100646d4     LIBCMT:undname.obj
 0002:000116f4       ??_C@_0BO@OBMKPJIG@?$GAdefault?5constructor?5closure?8?$AA@ 100646f4     LIBCMT:undname.obj
 0002:00011714       ??_C@_0BN@DEGPLNFK@?$GAvector?5deleting?5destructor?8?$AA@ 10064714     LIBCMT:undname.obj
 0002:00011734       ??_C@_0BD@JDLKDPAB@?$GAvbase?5destructor?8?$AA@ 10064734     LIBCMT:undname.obj
 0002:00011748       ??_C@_08OBABFOLI@?$GAstring?8?$AA@ 10064748     LIBCMT:undname.obj
 0002:00011754       ??_C@_0BF@KDPPACIK@?$GAlocal?5static?5guard?8?$AA@ 10064754     LIBCMT:undname.obj
 0002:0001176c       ??_C@_08LLFFHHDJ@?$GAtypeof?8?$AA@ 1006476c     LIBCMT:undname.obj
 0002:00011778       ??_C@_07FEEIOKP@?$GAvcall?8?$AA@ 10064778     LIBCMT:undname.obj
 0002:00011780       ??_C@_09BLBHBJP@?$GAvbtable?8?$AA@ 10064780     LIBCMT:undname.obj
 0002:0001178c       ??_C@_09IFPLHPGF@?$GAvftable?8?$AA@ 1006478c     LIBCMT:undname.obj
 0002:00011798       ??_C@_02MHEGNOJ@?$FO?$DN?$AA@ 10064798     LIBCMT:undname.obj
 0002:0001179c       ??_C@_02DHLNPPGH@?$HM?$DN?$AA@ 1006479c     LIBCMT:undname.obj
 0002:000117a0       ??_C@_02FGJGFEAB@?$CG?$DN?$AA@ 100647a0     LIBCMT:undname.obj
 0002:000117a4       ??_C@_03CDNPDDLA@?$DM?$DM?$DN?$AA@ 100647a4     LIBCMT:undname.obj
 0002:000117a8       ??_C@_03IKFCCPFF@?$DO?$DO?$DN?$AA@ 100647a8     LIBCMT:undname.obj
 0002:000117ac       ??_C@_02FENAOKFI@?$CF?$DN?$AA@ 100647ac     LIBCMT:undname.obj
 0002:000117b0       ??_C@_02FJEHGPIO@?1?$DN?$AA@ 100647b0     LIBCMT:undname.obj
 0002:000117b4       ??_C@_02FKMDLLOA@?9?$DN?$AA@ 100647b4     LIBCMT:undname.obj
 0002:000117b8       ??_C@_02FOEOMHFC@?$CL?$DN?$AA@ 100647b8     LIBCMT:undname.obj
 0002:000117bc       ??_C@_02FPIMKNGF@?$CK?$DN?$AA@ 100647bc     LIBCMT:undname.obj
 0002:000117c0       ??_C@_02NONPIBCD@?$HM?$HM?$AA@ 100647c0     LIBCMT:undname.obj
 0002:000117c4       ??_C@_02PPKAJPJL@?$CG?$CG?$AA@ 100647c4     LIBCMT:undname.obj
 0002:000117c8       ??_C@_01DNKMNLPK@?$HM?$AA@ 100647c8     LIBCMT:undname.obj
 0002:000117cc       ??_C@_01JKBOJNNK@?$FO?$AA@ 100647cc     LIBCMT:undname.obj
 0002:000117d0       ??_C@_01PJKLJHI@?$HO?$AA@  100647d0     LIBCMT:undname.obj
 0002:000117d4       ??_C@_02HCKGKOFO@?$CI?$CJ?$AA@ 100647d4     LIBCMT:undname.obj
 0002:000117d8       ??_C@_01IHBHIGKO@?0?$AA@   100647d8     LIBCMT:undname.obj
 0002:000117dc       ??_C@_02EEKDKGMJ@?$DO?$DN?$AA@ 100647dc     LIBCMT:undname.obj
 0002:000117e0       ??_C@_01PPODPGHN@?$DO?$AA@ 100647e0     LIBCMT:undname.obj
 0002:000117e4       ??_C@_02EHCHHCKH@?$DM?$DN?$AA@ 100647e4     LIBCMT:undname.obj
 0002:000117e8       ??_C@_01MNNFJEPP@?$DM?$AA@ 100647e8     LIBCMT:undname.obj
 0002:000117ec       ??_C@_01FGNFDNOH@?$CF?$AA@ 100647ec     LIBCMT:undname.obj
 0002:000117f0       ??_C@_03MNHNFDLC@?9?$DO?$CK?$AA@ 100647f0     LIBCMT:undname.obj
 0002:000117f4       ??_C@_01HNPIGOCE@?$CG?$AA@ 100647f4     LIBCMT:undname.obj
 0002:000117f8       ??_C@_01MIFGBAGJ@?$CL?$AA@ 100647f8     LIBCMT:undname.obj
 0002:000117fc       ??_C@_02BAABKJLB@?9?9?$AA@ 100647fc     LIBCMT:undname.obj
 0002:00011800       ??_C@_02ECNGHCIF@?$CL?$CL?$AA@ 10064800     LIBCMT:undname.obj
 0002:00011804       ??_C@_02HBOOOICD@?9?$DO?$AA@ 10064804     LIBCMT:undname.obj
 0002:00011808       ??_C@_08LHJFAFGD@operator?$AA@ 10064808     LIBCMT:undname.obj
 0002:00011814       ??_C@_02GPECMEKF@?$FL?$FN?$AA@ 10064814     LIBCMT:undname.obj
 0002:00011818       ??_C@_02FDNJECIE@?$CB?$DN?$AA@ 10064818     LIBCMT:undname.obj
 0002:0001181c       ??_C@_02EGOFBIJA@?$DN?$DN?$AA@ 1006481c     LIBCMT:undname.obj
 0002:00011820       ??_C@_01DCLJPIOD@?$CB?$AA@ 10064820     LIBCMT:undname.obj
 0002:00011824       ??_C@_02FODMEDOG@?$DM?$DM?$AA@ 10064824     LIBCMT:undname.obj
 0002:00011828       ??_C@_02GPIOPFAK@?$DO?$DO?$AA@ 10064828     LIBCMT:undname.obj
 0002:0001182c       ??_C@_07FPCDHGMM@?5delete?$AA@ 1006482c     LIBCMT:undname.obj
 0002:00011834       ??_C@_04NIHEBCM@?5new?$AA@ 10064834     LIBCMT:undname.obj
 0002:0001183c       ??_C@_0M@GFIIJFMG@__unaligned?$AA@ 1006483c     LIBCMT:undname.obj
 0002:00011848       ??_C@_0L@PILCLIHE@__restrict?$AA@ 10064848     LIBCMT:undname.obj
 0002:00011854       ??_C@_07JOMMBBKO@__ptr64?$AA@ 10064854     LIBCMT:undname.obj
 0002:0001185c       ??_C@_06GHPCKEAG@__eabi?$AA@ 1006485c     LIBCMT:undname.obj
 0002:00011864       ??_C@_09HIJEGCPM@__clrcall?$AA@ 10064864     LIBCMT:undname.obj
 0002:00011870       ??_C@_0L@JMKHOMEK@__fastcall?$AA@ 10064870     LIBCMT:undname.obj
 0002:0001187c       ??_C@_0L@NPHFGOKO@__thiscall?$AA@ 1006487c     LIBCMT:undname.obj
 0002:00011888       ??_C@_09IFJBGAPI@__stdcall?$AA@ 10064888     LIBCMT:undname.obj
 0002:00011894       ??_C@_08GHMPAG@__pascal?$AA@ 10064894     LIBCMT:undname.obj
 0002:000118a0       ??_C@_07KOLFKCDI@__cdecl?$AA@ 100648a0     LIBCMT:undname.obj
 0002:000118a8       ??_C@_08EHJDFFNH@__based?$CI?$AA@ 100648a8     LIBCMT:undname.obj
 0002:00011a40       ___lookuptable_s           10064a40     LIBCMT:outputs.obj
 0002:00011a9c       ??_C@_0L@NKOGAPMJ@SystemRoot?$AA@ 10064a9c     LIBCMT:cenvarg.obj
 0002:00011aa8       ??_C@_06IMKFLFPG@1?$CDQNAN?$AA@ 10064aa8     LIBCMT:_x10fout_.obj
 0002:00011ab0       ??_C@_05DNEBIAHO@1?$CDINF?$AA@ 10064ab0     LIBCMT:_x10fout_.obj
 0002:00011ab8       ??_C@_05PHHOCPM@1?$CDIND?$AA@ 10064ab8     LIBCMT:_x10fout_.obj
 0002:00011ac0       ??_C@_06PGGFOGJG@1?$CDSNAN?$AA@ 10064ac0     LIBCMT:_x10fout_.obj
 0002:00011ac8       ??_C@_1BA@BALFACEM@?$AAC?$AAO?$AAN?$AAO?$AAU?$AAT?$AA$?$AA?$AA@ 10064ac8     LIBCMT:initcon.obj
 0002:00011e18       ??_C@_1O@PNMIMBDD@?$AAC?$AAO?$AAN?$AAI?$AAN?$AA$?$AA?$AA@ 10064e18     LIBCMT:initconin.obj
 0002:00011e74       ??_R4ISQLDBCommand@@6B@    10064e74     mpi_stats.obj
 0002:00011e88       ??_R3ISQLDBCommand@@8      10064e88     mpi_stats.obj
 0002:00011e98       ??_R2ISQLDBCommand@@8      10064e98     mpi_stats.obj
 0002:00011ea0       ??_R1A@?0A@EA@ISQLDBCommand@@8 10064ea0     mpi_stats.obj
 0002:00011ebc       ??_R3CSQLDBCommandBase@@8  10064ebc     mpi_stats.obj
 0002:00011ecc       ??_R2CSQLDBCommandBase@@8  10064ecc     mpi_stats.obj
 0002:00011ed8       ??_R1A@?0A@EA@CSQLDBCommandBase@@8 10064ed8     mpi_stats.obj
 0002:00011ef4       ??_R4CSQLDBCommand_TextMessage@@6B@ 10064ef4     mpi_stats.obj
 0002:00011f08       ??_R3CSQLDBCommand_TextMessage@@8 10064f08     mpi_stats.obj
 0002:00011f18       ??_R2CSQLDBCommand_TextMessage@@8 10064f18     mpi_stats.obj
 0002:00011f28       ??_R1A@?0A@EA@CSQLDBCommand_TextMessage@@8 10064f28     mpi_stats.obj
 0002:00011f44       ??_R4CSQLDBCommand_WorkerStats@@6B@ 10064f44     mpi_stats.obj
 0002:00011f58       ??_R3CSQLDBCommand_WorkerStats@@8 10064f58     mpi_stats.obj
 0002:00011f68       ??_R2CSQLDBCommand_WorkerStats@@8 10064f68     mpi_stats.obj
 0002:00011f78       ??_R1A@?0A@EA@CSQLDBCommand_WorkerStats@@8 10064f78     mpi_stats.obj
 0002:00011f94       ??_R4CSQLDBCommand_JobMasterEnd@@6B@ 10064f94     mpi_stats.obj
 0002:00011fa8       ??_R3CSQLDBCommand_JobMasterEnd@@8 10064fa8     mpi_stats.obj
 0002:00011fb8       ??_R2CSQLDBCommand_JobMasterEnd@@8 10064fb8     mpi_stats.obj
 0002:00011fc8       ??_R1A@?0A@EA@CSQLDBCommand_JobMasterEnd@@8 10064fc8     mpi_stats.obj
 0002:00011fe4       ??_R4CSQLDBCommand_GraphEntry@@6B@ 10064fe4     mpi_stats.obj
 0002:00011ff8       ??_R3CSQLDBCommand_GraphEntry@@8 10064ff8     mpi_stats.obj
 0002:00012008       ??_R2CSQLDBCommand_GraphEntry@@8 10065008     mpi_stats.obj
 0002:00012018       ??_R1A@?0A@EA@CSQLDBCommand_GraphEntry@@8 10065018     mpi_stats.obj
 0002:00012034       ??_R3IWorkUnitDistributorCallbacks@@8 10065034     mpivis.obj
 0002:00012044       ??_R2IWorkUnitDistributorCallbacks@@8 10065044     mpivis.obj
 0002:0001204c       ??_R1A@?0A@EA@IWorkUnitDistributorCallbacks@@8 1006504c     mpivis.obj
 0002:00012068       ??_R4CVisDistributeWorkCallbacks@@6B@ 10065068     mpivis.obj
 0002:0001207c       ??_R3CVisDistributeWorkCallbacks@@8 1006507c     mpivis.obj
 0002:0001208c       ??_R2CVisDistributeWorkCallbacks@@8 1006508c     mpivis.obj
 0002:00012098       ??_R1A@?0A@EA@CVisDistributeWorkCallbacks@@8 10065098     mpivis.obj
 0002:000120b4       ??_R4CMySqlDatabase@@6B@   100650b4     MySqlDatabase.obj
 0002:000120c8       ??_R3CMySqlDatabase@@8     100650c8     MySqlDatabase.obj
 0002:000120d8       ??_R2CMySqlDatabase@@8     100650d8     MySqlDatabase.obj
 0002:000120e0       ??_R1A@?0A@EA@CMySqlDatabase@@8 100650e0     MySqlDatabase.obj
 0002:000120fc       ??_R4IScratchPad3D@@6B@    100650fc     scratchpad3d.obj
 0002:00012110       ??_R3IScratchPad3D@@8      10065110     scratchpad3d.obj
 0002:00012120       ??_R2IScratchPad3D@@8      10065120     scratchpad3d.obj
 0002:00012128       ??_R1A@?0A@EA@IScratchPad3D@@8 10065128     scratchpad3d.obj
 0002:00012144       ??_R4CBaseCommand@CScratchPad3D@@6B@ 10065144     scratchpad3d.obj
 0002:00012158       ??_R3CBaseCommand@CScratchPad3D@@8 10065158     scratchpad3d.obj
 0002:00012168       ??_R2CBaseCommand@CScratchPad3D@@8 10065168     scratchpad3d.obj
 0002:00012170       ??_R1A@?0A@EA@CBaseCommand@CScratchPad3D@@8 10065170     scratchpad3d.obj
 0002:0001218c       ??_R4CCommand_Point@CScratchPad3D@@6B@ 1006518c     scratchpad3d.obj
 0002:000121a0       ??_R3CCommand_Point@CScratchPad3D@@8 100651a0     scratchpad3d.obj
 0002:000121b0       ??_R2CCommand_Point@CScratchPad3D@@8 100651b0     scratchpad3d.obj
 0002:000121bc       ??_R1A@?0A@EA@CCommand_Point@CScratchPad3D@@8 100651bc     scratchpad3d.obj
 0002:000121d8       ??_R4CCommand_Line@CScratchPad3D@@6B@ 100651d8     scratchpad3d.obj
 0002:000121ec       ??_R3CCommand_Line@CScratchPad3D@@8 100651ec     scratchpad3d.obj
 0002:000121fc       ??_R2CCommand_Line@CScratchPad3D@@8 100651fc     scratchpad3d.obj
 0002:00012208       ??_R1A@?0A@EA@CCommand_Line@CScratchPad3D@@8 10065208     scratchpad3d.obj
 0002:00012224       ??_R4CCommand_Matrix@CScratchPad3D@@6B@ 10065224     scratchpad3d.obj
 0002:00012238       ??_R3CCommand_Matrix@CScratchPad3D@@8 10065238     scratchpad3d.obj
 0002:00012248       ??_R2CCommand_Matrix@CScratchPad3D@@8 10065248     scratchpad3d.obj
 0002:00012254       ??_R1A@?0A@EA@CCommand_Matrix@CScratchPad3D@@8 10065254     scratchpad3d.obj
 0002:00012270       ??_R4CCommand_RenderState@CScratchPad3D@@6B@ 10065270     scratchpad3d.obj
 0002:00012284       ??_R3CCommand_RenderState@CScratchPad3D@@8 10065284     scratchpad3d.obj
 0002:00012294       ??_R2CCommand_RenderState@CScratchPad3D@@8 10065294     scratchpad3d.obj
 0002:000122a0       ??_R1A@?0A@EA@CCommand_RenderState@CScratchPad3D@@8 100652a0     scratchpad3d.obj
 0002:000122bc       ??_R4CCommand_Polygon@CScratchPad3D@@6B@ 100652bc     scratchpad3d.obj
 0002:000122d0       ??_R3CCommand_Polygon@CScratchPad3D@@8 100652d0     scratchpad3d.obj
 0002:000122e0       ??_R2CCommand_Polygon@CScratchPad3D@@8 100652e0     scratchpad3d.obj
 0002:000122ec       ??_R1A@?0A@EA@CCommand_Polygon@CScratchPad3D@@8 100652ec     scratchpad3d.obj
 0002:00012308       ??_R4CCommand_Text@CScratchPad3D@@6B@ 10065308     scratchpad3d.obj
 0002:0001231c       ??_R3CCommand_Text@CScratchPad3D@@8 1006531c     scratchpad3d.obj
 0002:0001232c       ??_R2CCommand_Text@CScratchPad3D@@8 1006532c     scratchpad3d.obj
 0002:00012338       ??_R1A@?0A@EA@CCommand_Text@CScratchPad3D@@8 10065338     scratchpad3d.obj
 0002:00012354       ??_R4CScratchPad3D@@6B@    10065354     scratchpad3d.obj
 0002:00012368       ??_R3CScratchPad3D@@8      10065368     scratchpad3d.obj
 0002:00012378       ??_R2CScratchPad3D@@8      10065378     scratchpad3d.obj
 0002:00012384       ??_R1A@?0A@EA@CScratchPad3D@@8 10065384     scratchpad3d.obj
 0002:000123a0       ??_R3IScriptLib@@8         100653a0     scriplib.obj
 0002:000123b0       ??_R2IScriptLib@@8         100653b0     scriplib.obj
 0002:000123b8       ??_R1A@?0A@EA@IScriptLib@@8 100653b8     scriplib.obj
 0002:000123d4       ??_R4CScriptLib@@6B@       100653d4     scriplib.obj
 0002:000123e8       ??_R3CScriptLib@@8         100653e8     scriplib.obj
 0002:000123f8       ??_R2CScriptLib@@8         100653f8     scriplib.obj
 0002:00012404       ??_R1A@?0A@EA@CScriptLib@@8 10065404     scriplib.obj
 0002:00012420       ??_R3ILaunchableDLL@@8     10065420     vvis.obj
 0002:00012430       ??_R2ILaunchableDLL@@8     10065430     vvis.obj
 0002:00012438       ??_R1A@?0A@EA@ILaunchableDLL@@8 10065438     vvis.obj
 0002:00012454       ??_R4CVVisDLL@@6B@         10065454     vvis.obj
 0002:00012468       ??_R3CVVisDLL@@8           10065468     vvis.obj
 0002:00012478       ??_R2CVVisDLL@@8           10065478     vvis.obj
 0002:00012484       ??_R1A@?0A@EA@CVVisDLL@@8  10065484     vvis.obj
 0002:000124a0       ??_R3IWriteStream@@8       100654a0     zip_utils.obj
 0002:000124b0       ??_R2IWriteStream@@8       100654b0     zip_utils.obj
 0002:000124b8       ??_R1A@?0A@EA@IWriteStream@@8 100654b8     zip_utils.obj
 0002:000124d4       ??_R4CFileStream@@6B@      100654d4     zip_utils.obj
 0002:000124e8       ??_R3CFileStream@@8        100654e8     zip_utils.obj
 0002:000124f8       ??_R2CFileStream@@8        100654f8     zip_utils.obj
 0002:00012504       ??_R1A@?0A@EA@CFileStream@@8 10065504     zip_utils.obj
 0002:00012520       ??_R3IZip@@8               10065520     zip_utils.obj
 0002:00012530       ??_R2IZip@@8               10065530     zip_utils.obj
 0002:00012538       ??_R1A@?0A@EA@IZip@@8      10065538     zip_utils.obj
 0002:00012554       ??_R4CBufferStream@@6B@    10065554     zip_utils.obj
 0002:00012568       ??_R3CBufferStream@@8      10065568     zip_utils.obj
 0002:00012578       ??_R2CBufferStream@@8      10065578     zip_utils.obj
 0002:00012584       ??_R1A@?0A@EA@CBufferStream@@8 10065584     zip_utils.obj
 0002:000125a0       ??_R4CZip@@6B@             100655a0     zip_utils.obj
 0002:000125b4       ??_R3CZip@@8               100655b4     zip_utils.obj
 0002:000125c4       ??_R2CZip@@8               100655c4     zip_utils.obj
 0002:000125d0       ??_R1A@?0A@EA@CZip@@8      100655d0     zip_utils.obj
 0002:000125ec       ??_R4CUtlCharConversion@@6B@ 100655ec     tier1:utlbuffer.obj
 0002:00012600       ??_R3CUtlCharConversion@@8 10065600     tier1:utlbuffer.obj
 0002:00012610       ??_R2CUtlCharConversion@@8 10065610     tier1:utlbuffer.obj
 0002:00012618       ??_R1A@?0A@EA@CUtlCharConversion@@8 10065618     tier1:utlbuffer.obj
 0002:00012634       ??_R4CUtlNoEscConversion@@6B@ 10065634     tier1:utlbuffer.obj
 0002:00012648       ??_R3CUtlNoEscConversion@@8 10065648     tier1:utlbuffer.obj
 0002:00012658       ??_R2CUtlNoEscConversion@@8 10065658     tier1:utlbuffer.obj
 0002:00012664       ??_R1A@?0A@EA@CUtlNoEscConversion@@8 10065664     tier1:utlbuffer.obj
 0002:00012680       ??_R4CUtlCStringConversion@@6B@ 10065680     tier1:utlbuffer.obj
 0002:00012694       ??_R3CUtlCStringConversion@@8 10065694     tier1:utlbuffer.obj
 0002:000126a4       ??_R2CUtlCStringConversion@@8 100656a4     tier1:utlbuffer.obj
 0002:000126b0       ??_R1A@?0A@EA@CUtlCStringConversion@@8 100656b0     tier1:utlbuffer.obj
 0002:000126cc       ??_R3IHandlerCreator@@8    100656cc     vmpi:vmpi.obj
 0002:000126dc       ??_R2IHandlerCreator@@8    100656dc     vmpi:vmpi.obj
 0002:000126e4       ??_R1A@?0A@EA@IHandlerCreator@@8 100656e4     vmpi:vmpi.obj
 0002:00012700       ??_R4CVMPIConnectionCreator@@6B@ 10065700     vmpi:vmpi.obj
 0002:00012714       ??_R3CVMPIConnectionCreator@@8 10065714     vmpi:vmpi.obj
 0002:00012724       ??_R2CVMPIConnectionCreator@@8 10065724     vmpi:vmpi.obj
 0002:00012730       ??_R1A@?0A@EA@CVMPIConnectionCreator@@8 10065730     vmpi:vmpi.obj
 0002:0001274c       ??_R3ITCPSocketHandler@@8  1006574c     vmpi:vmpi.obj
 0002:0001275c       ??_R2ITCPSocketHandler@@8  1006575c     vmpi:vmpi.obj
 0002:00012764       ??_R1A@?0A@EA@ITCPSocketHandler@@8 10065764     vmpi:vmpi.obj
 0002:00012780       ??_R4CVMPIConnection@@6B@  10065780     vmpi:vmpi.obj
 0002:00012794       ??_R3CVMPIConnection@@8    10065794     vmpi:vmpi.obj
 0002:000127a4       ??_R2CVMPIConnection@@8    100657a4     vmpi:vmpi.obj
 0002:000127b0       ??_R1A@?0A@EA@CVMPIConnection@@8 100657b0     vmpi:vmpi.obj
 0002:000127cc       ??_R4CBaseVMPIFileSystem@@6BIAppSystem@@@ 100657cc     vmpi:vmpi_filesystem.obj
 0002:000127e0       ??_R3CBaseVMPIFileSystem@@8 100657e0     vmpi:vmpi_filesystem.obj
 0002:000127f0       ??_R2CBaseVMPIFileSystem@@8 100657f0     vmpi:vmpi_filesystem.obj
 0002:0001280c       ??_R1A@?0A@EA@CBaseVMPIFileSystem@@8 1006580c     vmpi:vmpi_filesystem.obj
 0002:00012828       ??_R1A@?0A@EA@CFileSystemPassThru@@8 10065828     vmpi:vmpi_filesystem.obj
 0002:00012844       ??_R3CFileSystemPassThru@@8 10065844     vmpi:vmpi_filesystem.obj
 0002:00012854       ??_R2CFileSystemPassThru@@8 10065854     vmpi:vmpi_filesystem.obj
 0002:0001286c       ??_R1A@?0A@EA@?$CInternalFileSystemPassThru@VIFileSystem@@@@8 1006586c     vmpi:vmpi_filesystem.obj
 0002:00012888       ??_R3?$CInternalFileSystemPassThru@VIFileSystem@@@@8 10065888     vmpi:vmpi_filesystem.obj
 0002:00012898       ??_R2?$CInternalFileSystemPassThru@VIFileSystem@@@@8 10065898     vmpi:vmpi_filesystem.obj
 0002:000128ac       ??_R1A@?0A@EA@IFileSystem@@8 100658ac     vmpi:vmpi_filesystem.obj
 0002:000128c8       ??_R3IFileSystem@@8        100658c8     vmpi:vmpi_filesystem.obj
 0002:000128d8       ??_R2IFileSystem@@8        100658d8     vmpi:vmpi_filesystem.obj
 0002:000128e8       ??_R1A@?0A@EA@IAppSystem@@8 100658e8     vmpi:vmpi_filesystem.obj
 0002:00012904       ??_R3IAppSystem@@8         10065904     vmpi:vmpi_filesystem.obj
 0002:00012914       ??_R2IAppSystem@@8         10065914     vmpi:vmpi_filesystem.obj
 0002:0001291c       ??_R13?0A@EA@IBaseFileSystem@@8 1006591c     vmpi:vmpi_filesystem.obj
 0002:00012938       ??_R3IBaseFileSystem@@8    10065938     vmpi:vmpi_filesystem.obj
 0002:00012948       ??_R2IBaseFileSystem@@8    10065948     vmpi:vmpi_filesystem.obj
 0002:00012950       ??_R1A@?0A@EA@IBaseFileSystem@@8 10065950     vmpi:vmpi_filesystem.obj
 0002:0001296c       ??_R4CBaseVMPIFileSystem@@6BIBaseFileSystem@@@ 1006596c     vmpi:vmpi_filesystem.obj
 0002:00012980       ??_R3ISocket@@8            10065980     vmpi:iphelpers.obj
 0002:00012990       ??_R2ISocket@@8            10065990     vmpi:iphelpers.obj
 0002:00012998       ??_R1A@?0A@EA@ISocket@@8   10065998     vmpi:iphelpers.obj
 0002:000129b4       ??_R4CIPSocket@@6B@        100659b4     vmpi:iphelpers.obj
 0002:000129c8       ??_R3CIPSocket@@8          100659c8     vmpi:iphelpers.obj
 0002:000129d8       ??_R2CIPSocket@@8          100659d8     vmpi:iphelpers.obj
 0002:000129e4       ??_R1A@?0A@EA@CIPSocket@@8 100659e4     vmpi:iphelpers.obj
 0002:00012a00       ??_R3IVMPIFile@@8          10065a00     vmpi:vmpi_filesystem_master.obj
 0002:00012a10       ??_R2IVMPIFile@@8          10065a10     vmpi:vmpi_filesystem_master.obj
 0002:00012a18       ??_R1A@?0A@EA@IVMPIFile@@8 10065a18     vmpi:vmpi_filesystem_master.obj
 0002:00012a34       ??_R4IBaseFileSystem@@6B@  10065a34     vmpi:vmpi_filesystem_master.obj
 0002:00012a48       ??_R4CVMPIFile_PassThru@@6B@ 10065a48     vmpi:vmpi_filesystem_master.obj
 0002:00012a5c       ??_R3CVMPIFile_PassThru@@8 10065a5c     vmpi:vmpi_filesystem_master.obj
 0002:00012a6c       ??_R2CVMPIFile_PassThru@@8 10065a6c     vmpi:vmpi_filesystem_master.obj
 0002:00012a78       ??_R1A@?0A@EA@CVMPIFile_PassThru@@8 10065a78     vmpi:vmpi_filesystem_master.obj
 0002:00012a94       ??_R4CVMPIFile_Memory@@6B@ 10065a94     vmpi:vmpi_filesystem_master.obj
 0002:00012aa8       ??_R3CVMPIFile_Memory@@8   10065aa8     vmpi:vmpi_filesystem_master.obj
 0002:00012ab8       ??_R2CVMPIFile_Memory@@8   10065ab8     vmpi:vmpi_filesystem_master.obj
 0002:00012ac4       ??_R1A@?0A@EA@CVMPIFile_Memory@@8 10065ac4     vmpi:vmpi_filesystem_master.obj
 0002:00012ae0       ??_R4CMasterVMPIFileSystem@@6BIAppSystem@@@ 10065ae0     vmpi:vmpi_filesystem_master.obj
 0002:00012af4       ??_R3CMasterVMPIFileSystem@@8 10065af4     vmpi:vmpi_filesystem_master.obj
 0002:00012b04       ??_R2CMasterVMPIFileSystem@@8 10065b04     vmpi:vmpi_filesystem_master.obj
 0002:00012b24       ??_R1A@?0A@EA@CMasterVMPIFileSystem@@8 10065b24     vmpi:vmpi_filesystem_master.obj
 0002:00012b40       ??_R4CMasterVMPIFileSystem@@6BIBaseFileSystem@@@ 10065b40     vmpi:vmpi_filesystem_master.obj
 0002:00012b54       ??_R3ITCPConnectSocket@@8  10065b54     vmpi:ThreadedTCPSocket.obj
 0002:00012b64       ??_R2ITCPConnectSocket@@8  10065b64     vmpi:ThreadedTCPSocket.obj
 0002:00012b6c       ??_R1A@?0A@EA@ITCPConnectSocket@@8 10065b6c     vmpi:ThreadedTCPSocket.obj
 0002:00012b88       ??_R4CTCPConnectSocket_Connector@@6B@ 10065b88     vmpi:ThreadedTCPSocket.obj
 0002:00012b9c       ??_R3CTCPConnectSocket_Connector@@8 10065b9c     vmpi:ThreadedTCPSocket.obj
 0002:00012bac       ??_R2CTCPConnectSocket_Connector@@8 10065bac     vmpi:ThreadedTCPSocket.obj
 0002:00012bb8       ??_R1A@?0A@EA@CTCPConnectSocket_Connector@@8 10065bb8     vmpi:ThreadedTCPSocket.obj
 0002:00012bd4       ??_R3IThreadedTCPSocket@@8 10065bd4     vmpi:ThreadedTCPSocket.obj
 0002:00012be4       ??_R2IThreadedTCPSocket@@8 10065be4     vmpi:ThreadedTCPSocket.obj
 0002:00012bec       ??_R1A@?0A@EA@IThreadedTCPSocket@@8 10065bec     vmpi:ThreadedTCPSocket.obj
 0002:00012c08       ??_R4CTCPConnectSocket_Listener@@6B@ 10065c08     vmpi:ThreadedTCPSocket.obj
 0002:00012c1c       ??_R3CTCPConnectSocket_Listener@@8 10065c1c     vmpi:ThreadedTCPSocket.obj
 0002:00012c2c       ??_R2CTCPConnectSocket_Listener@@8 10065c2c     vmpi:ThreadedTCPSocket.obj
 0002:00012c38       ??_R1A@?0A@EA@CTCPConnectSocket_Listener@@8 10065c38     vmpi:ThreadedTCPSocket.obj
 0002:00012c54       ??_R4CThreadedTCPSocket@@6B@ 10065c54     vmpi:ThreadedTCPSocket.obj
 0002:00012c68       ??_R3CThreadedTCPSocket@@8 10065c68     vmpi:ThreadedTCPSocket.obj
 0002:00012c78       ??_R2CThreadedTCPSocket@@8 10065c78     vmpi:ThreadedTCPSocket.obj
 0002:00012c84       ??_R1A@?0A@EA@CThreadedTCPSocket@@8 10065c84     vmpi:ThreadedTCPSocket.obj
 0002:00012ca0       ??_R3IWorkUnitDistributorMaster@@8 10065ca0     vmpi:vmpi_distribute_work_default.obj
 0002:00012cb0       ??_R2IWorkUnitDistributorMaster@@8 10065cb0     vmpi:vmpi_distribute_work_default.obj
 0002:00012cb8       ??_R1A@?0A@EA@IWorkUnitDistributorMaster@@8 10065cb8     vmpi:vmpi_distribute_work_default.obj
 0002:00012cd4       ??_R3IWorkUnitDistributorWorker@@8 10065cd4     vmpi:vmpi_distribute_work_default.obj
 0002:00012ce4       ??_R2IWorkUnitDistributorWorker@@8 10065ce4     vmpi:vmpi_distribute_work_default.obj
 0002:00012cec       ??_R1A@?0A@EA@IWorkUnitDistributorWorker@@8 10065cec     vmpi:vmpi_distribute_work_default.obj
 0002:00012d08       ??_R4CDistributor_DefaultWorker@@6B@ 10065d08     vmpi:vmpi_distribute_work_default.obj
 0002:00012d1c       ??_R3CDistributor_DefaultWorker@@8 10065d1c     vmpi:vmpi_distribute_work_default.obj
 0002:00012d2c       ??_R2CDistributor_DefaultWorker@@8 10065d2c     vmpi:vmpi_distribute_work_default.obj
 0002:00012d38       ??_R1A@?0A@EA@CDistributor_DefaultWorker@@8 10065d38     vmpi:vmpi_distribute_work_default.obj
 0002:00012d54       ??_R4CDistributor_DefaultMaster@@6B@ 10065d54     vmpi:vmpi_distribute_work_default.obj
 0002:00012d68       ??_R3CDistributor_DefaultMaster@@8 10065d68     vmpi:vmpi_distribute_work_default.obj
 0002:00012d78       ??_R2CDistributor_DefaultMaster@@8 10065d78     vmpi:vmpi_distribute_work_default.obj
 0002:00012d84       ??_R1A@?0A@EA@CDistributor_DefaultMaster@@8 10065d84     vmpi:vmpi_distribute_work_default.obj
 0002:00012da0       ??_R4IShuffleRequester@@6B@ 10065da0     vmpi:vmpi_distribute_work_sdk.obj
 0002:00012db4       ??_R3IShuffleRequester@@8  10065db4     vmpi:vmpi_distribute_work_sdk.obj
 0002:00012dc4       ??_R2IShuffleRequester@@8  10065dc4     vmpi:vmpi_distribute_work_sdk.obj
 0002:00012dcc       ??_R1A@?0A@EA@IShuffleRequester@@8 10065dcc     vmpi:vmpi_distribute_work_sdk.obj
 0002:00012de8       ??_R4CDistributor_SDKWorker@@6BIWorkUnitDistributorWorker@@@ 10065de8     vmpi:vmpi_distribute_work_sdk.obj
 0002:00012dfc       ??_R3CDistributor_SDKWorker@@8 10065dfc     vmpi:vmpi_distribute_work_sdk.obj
 0002:00012e0c       ??_R2CDistributor_SDKWorker@@8 10065e0c     vmpi:vmpi_distribute_work_sdk.obj
 0002:00012e1c       ??_R1A@?0A@EA@CDistributor_SDKWorker@@8 10065e1c     vmpi:vmpi_distribute_work_sdk.obj
 0002:00012e38       ??_R13?0A@EA@IShuffleRequester@@8 10065e38     vmpi:vmpi_distribute_work_sdk.obj
 0002:00012e54       ??_R4CDistributor_SDKWorker@@6BIShuffleRequester@@@ 10065e54     vmpi:vmpi_distribute_work_sdk.obj
 0002:00012e68       ??_R4CDistributor_SDKMaster@@6BIWorkUnitDistributorMaster@@@ 10065e68     vmpi:vmpi_distribute_work_sdk.obj
 0002:00012e7c       ??_R3CDistributor_SDKMaster@@8 10065e7c     vmpi:vmpi_distribute_work_sdk.obj
 0002:00012e8c       ??_R2CDistributor_SDKMaster@@8 10065e8c     vmpi:vmpi_distribute_work_sdk.obj
 0002:00012e9c       ??_R1A@?0A@EA@CDistributor_SDKMaster@@8 10065e9c     vmpi:vmpi_distribute_work_sdk.obj
 0002:00012eb8       ??_R4CDistributor_SDKMaster@@6BIShuffleRequester@@@ 10065eb8     vmpi:vmpi_distribute_work_sdk.obj
 0002:00012ecc       ??_R4CWorkerVMPIFileSystem@@6BIAppSystem@@@ 10065ecc     vmpi:vmpi_filesystem_worker.obj
 0002:00012ee0       ??_R3CWorkerVMPIFileSystem@@8 10065ee0     vmpi:vmpi_filesystem_worker.obj
 0002:00012ef0       ??_R2CWorkerVMPIFileSystem@@8 10065ef0     vmpi:vmpi_filesystem_worker.obj
 0002:00012f10       ??_R1A@?0A@EA@CWorkerVMPIFileSystem@@8 10065f10     vmpi:vmpi_filesystem_worker.obj
 0002:00012f2c       ??_R4CWorkerVMPIFileSystem@@6BIBaseFileSystem@@@ 10065f2c     vmpi:vmpi_filesystem_worker.obj
 0002:00012f40       ??_R4bad_alloc@std@@6B@    10065f40     LIBCMT:new.obj
 0002:00012f54       ??_R3bad_alloc@std@@8      10065f54     LIBCMT:new.obj
 0002:00012f64       ??_R2bad_alloc@std@@8      10065f64     LIBCMT:new.obj
 0002:00012f70       ??_R1A@?0A@EA@bad_alloc@std@@8 10065f70     LIBCMT:new.obj
 0002:00012f8c       ??_R1A@?0A@EA@exception@std@@8 10065f8c     LIBCMT:new.obj
 0002:00012fa8       ??_R3exception@std@@8      10065fa8     LIBCMT:new.obj
 0002:00012fb8       ??_R2exception@std@@8      10065fb8     LIBCMT:new.obj
 0002:00012fc0       ??_R4type_info@@6B@        10065fc0     LIBCMT:typinfo.obj
 0002:00012fd4       ??_R3type_info@@8          10065fd4     LIBCMT:typinfo.obj
 0002:00012fe4       ??_R2type_info@@8          10065fe4     LIBCMT:typinfo.obj
 0002:00012fec       ??_R1A@?0A@EA@type_info@@8 10065fec     LIBCMT:typinfo.obj
 0002:00013008       ??_R4exception@std@@6B@    10066008     LIBCMT:stdexcpt.obj
 0002:0001301c       ___rtc_iaa                 1006601c     LIBCMT:_initsect_.obj
 0002:00013020       ___rtc_izz                 10066020     LIBCMT:_initsect_.obj
 0002:00013024       ___rtc_taa                 10066024     LIBCMT:_initsect_.obj
 0002:00013028       ___rtc_tzz                 10066028     LIBCMT:_initsect_.obj
 0002:00013030       __TI2?AVbad_alloc@std@@    10066030     LIBCMT:new.obj
 0002:00013040       __CTA2?AVbad_alloc@std@@   10066040     LIBCMT:new.obj
 0002:0001304c       __CT??_R0?AVbad_alloc@std@@@8??0bad_alloc@std@@QAE@ABV01@@Z12 1006604c     LIBCMT:new.obj
 0002:00013068       __CT??_R0?AVexception@std@@@8??0exception@std@@QAE@ABV01@@Z12 10066068     LIBCMT:new.obj
 0002:0001370c       __IMPORT_DESCRIPTOR_KERNEL32 1006670c     kernel32:KERNEL32.dll
 0002:00013720       __IMPORT_DESCRIPTOR_tier0  10066720     tier0:tier0.dll
 0002:00013734       __IMPORT_DESCRIPTOR_vstdlib 10066734     vstdlib:vstdlib.dll
 0002:00013748       __IMPORT_DESCRIPTOR_WS2_32 10066748     ws2_32:WS2_32.dll
 0002:0001375c       __IMPORT_DESCRIPTOR_USER32 1006675c     user32:USER32.dll
 0002:00013770       __IMPORT_DESCRIPTOR_GDI32  10066770     gdi32:GDI32.dll
 0002:00013784       __IMPORT_DESCRIPTOR_ADVAPI32 10066784     advapi32:ADVAPI32.dll
 0002:00013798       __NULL_IMPORT_DESCRIPTOR   10066798     kernel32:KERNEL32.dll
 0003:00000000       ?m_DataMap@dheader_t@@2Udatamap_t@@A 10068000     bsplib.obj
 0003:00000018       ?m_DataMap@lump_t@@2Udatamap_t@@A 10068018     bsplib.obj
 0003:00000030       ?m_DataMap@dflagslump_t@@2Udatamap_t@@A 10068030     bsplib.obj
 0003:00000048       ?m_DataMap@dplane_t@@2Udatamap_t@@A 10068048     bsplib.obj
 0003:00000060       ?m_DataMap@dleaf_version_0_t@@2Udatamap_t@@A 10068060     bsplib.obj
 0003:00000078       ?m_DataMap@dleaf_t@@2Udatamap_t@@A 10068078     bsplib.obj
 0003:00000090       ?m_DataMap@CompressedLightCube@@2Udatamap_t@@A 10068090     bsplib.obj
 0003:000000a8       ?m_DataMap@dleafambientindex_t@@2Udatamap_t@@A 100680a8     bsplib.obj
 0003:000000c0       ?m_DataMap@dleafambientlighting_t@@2Udatamap_t@@A 100680c0     bsplib.obj
 0003:000000d8       ?m_DataMap@dvertex_t@@2Udatamap_t@@A 100680d8     bsplib.obj
 0003:000000f0       ?m_DataMap@dnode_t@@2Udatamap_t@@A 100680f0     bsplib.obj
 0003:00000108       ?m_DataMap@texinfo_s@@2Udatamap_t@@A 10068108     bsplib.obj
 0003:00000120       ?m_DataMap@dtexdata_t@@2Udatamap_t@@A 10068120     bsplib.obj
 0003:00000138       ?m_DataMap@ddispinfo_t@@2Udatamap_t@@A 10068138     bsplib.obj
 0003:00000150       ?m_DataMap@CDispNeighbor@@2Udatamap_t@@A 10068150     bsplib.obj
 0003:00000168       ?m_DataMap@CDispCornerNeighbors@@2Udatamap_t@@A 10068168     bsplib.obj
 0003:00000180       ?m_DataMap@CDispSubNeighbor@@2Udatamap_t@@A 10068180     bsplib.obj
 0003:00000198       ?m_DataMap@CDispVert@@2Udatamap_t@@A 10068198     bsplib.obj
 0003:000001b0       ?m_DataMap@CDispTri@@2Udatamap_t@@A 100681b0     bsplib.obj
 0003:000001c8       ?m_DataMap@CFaceMacroTextureInfo@@2Udatamap_t@@A 100681c8     bsplib.obj
 0003:000001e0       ?m_DataMap@dprimitive_t@@2Udatamap_t@@A 100681e0     bsplib.obj
 0003:000001f8       ?m_DataMap@dprimvert_t@@2Udatamap_t@@A 100681f8     bsplib.obj
 0003:00000210       ?m_DataMap@dface_t@@2Udatamap_t@@A 10068210     bsplib.obj
 0003:00000228       ?m_DataMap@dfaceid_t@@2Udatamap_t@@A 10068228     bsplib.obj
 0003:00000240       ?m_DataMap@dbrush_t@@2Udatamap_t@@A 10068240     bsplib.obj
 0003:00000258       ?m_DataMap@dbrushside_t@@2Udatamap_t@@A 10068258     bsplib.obj
 0003:00000270       ?m_DataMap@dedge_t@@2Udatamap_t@@A 10068270     bsplib.obj
 0003:00000288       ?m_DataMap@dmodel_t@@2Udatamap_t@@A 10068288     bsplib.obj
 0003:000002a0       ?m_DataMap@dphysmodel_t@@2Udatamap_t@@A 100682a0     bsplib.obj
 0003:000002b8       ?m_DataMap@dphysdisp_t@@2Udatamap_t@@A 100682b8     bsplib.obj
 0003:000002d0       ?m_DataMap@darea_t@@2Udatamap_t@@A 100682d0     bsplib.obj
 0003:000002e8       ?m_DataMap@dareaportal_t@@2Udatamap_t@@A 100682e8     bsplib.obj
 0003:00000300       ?m_DataMap@dworldlight_t@@2Udatamap_t@@A 10068300     bsplib.obj
 0003:00000318       ?m_DataMap@dleafwaterdata_t@@2Udatamap_t@@A 10068318     bsplib.obj
 0003:00000330       ?m_DataMap@doccluderdata_t@@2Udatamap_t@@A 10068330     bsplib.obj
 0003:00000348       ?m_DataMap@doccluderpolydata_t@@2Udatamap_t@@A 10068348     bsplib.obj
 0003:00000360       ?m_DataMap@dcubemapsample_t@@2Udatamap_t@@A 10068360     bsplib.obj
 0003:00000378       ?m_DataMap@doverlay_t@@2Udatamap_t@@A 10068378     bsplib.obj
 0003:00000390       ?m_DataMap@dwateroverlay_t@@2Udatamap_t@@A 10068390     bsplib.obj
 0003:000003a8       ?m_DataMap@doverlayfade_t@@2Udatamap_t@@A 100683a8     bsplib.obj
 0003:000003c0       ?m_DataMap@dgamelumpheader_t@@2Udatamap_t@@A 100683c0     bsplib.obj
 0003:000003d8       ?m_DataMap@dgamelump_t@@2Udatamap_t@@A 100683d8     bsplib.obj
 0003:000003f0       ?m_DataMap@StaticPropDictLump_t@@2Udatamap_t@@A 100683f0     bsplib.obj
 0003:00000408       ?m_DataMap@StaticPropLump_t@@2Udatamap_t@@A 10068408     bsplib.obj
 0003:00000420       ?m_DataMap@StaticPropLumpV4_t@@2Udatamap_t@@A 10068420     bsplib.obj
 0003:00000438       ?m_DataMap@StaticPropLumpV5_t@@2Udatamap_t@@A 10068438     bsplib.obj
 0003:00000450       ?m_DataMap@StaticPropLeafLump_t@@2Udatamap_t@@A 10068450     bsplib.obj
 0003:00000468       ?m_DataMap@DetailObjectDictLump_t@@2Udatamap_t@@A 10068468     bsplib.obj
 0003:00000480       ?m_DataMap@DetailObjectLump_t@@2Udatamap_t@@A 10068480     bsplib.obj
 0003:00000498       ?m_DataMap@DetailSpriteDictLump_t@@2Udatamap_t@@A 10068498     bsplib.obj
 0003:000004b0       ?m_DataMap@DetailPropLightstylesLump_t@@2Udatamap_t@@A 100684b0     bsplib.obj
 0003:000004c8       ?m_DataMap@MeshHeader_t@HardwareVerts@@2Udatamap_t@@A 100684c8     bsplib.obj
 0003:000004e0       ?m_DataMap@FileHeader_t@HardwareVerts@@2Udatamap_t@@A 100684e0     bsplib.obj
 0003:000005ec       ?dvis@@3PAUdvis_t@@A       100685ec     bsplib.obj
 0003:000005f0       ?pdlightdata@@3PAV?$CUtlVector@EV?$CUtlMemory@EH@@@@A 100685f0     bsplib.obj
 0003:000005f4       ?pNumworldlights@@3PAHA    100685f4     bsplib.obj
 0003:000005f8       ?dworldlights@@3PAUdworldlight_t@@A 100685f8     bsplib.obj
 0003:000005fc       ?m_DataMap@swapcollideheader_t@@2Udatamap_t@@A 100685fc     bsplib.obj
 0003:00000614       ?m_DataMap@swapcompactsurfaceheader_t@@2Udatamap_t@@A 10068614     bsplib.obj
 0003:0000062c       ?m_DataMap@swapmoppsurfaceheader_t@@2Udatamap_t@@A 1006862c     bsplib.obj
 0003:0000065c       ?texinfo@@3V?$CUtlVector@Utexinfo_s@@V?$CUtlMemory@Utexinfo_s@@H@@@@A 1006865c     bsplib.obj
 0003:00000670       ?g_OccluderData@@3V?$CUtlVector@Udoccluderdata_t@@V?$CUtlMemory@Udoccluderdata_t@@H@@@@A 10068670     bsplib.obj
 0003:00000684       ?g_OccluderPolyData@@3V?$CUtlVector@Udoccluderpolydata_t@@V?$CUtlMemory@Udoccluderpolydata_t@@H@@@@A 10068684     bsplib.obj
 0003:00000698       ?g_OccluderVertexIndices@@3V?$CUtlVector@HV?$CUtlMemory@HH@@@@A 10068698     bsplib.obj
 0003:000006ac       ?g_GameLumps@@3VCGameLump@@A 100686ac     bsplib.obj
 0003:00004970       ?g_CleanupFunctions@@3V?$CUtlLinkedList@P6AXXZG$0A@GV?$CUtlMemory@U?$UtlLinkedListElem_t@P6AXXZG@@G@@@@A 1006c970     cmdlib.obj
 0003:0000498c       ?g_ExtraSpewHooks@@3V?$CUtlLinkedList@P6AXPBD@ZG$0A@GV?$CUtlMemory@U?$UtlLinkedListElem_t@P6AXPBD@ZG@@G@@@@A 1006c98c     cmdlib.obj
 0003:000049f8       ?g_TraceClusterStart@@3HA  1006c9f8     flow.obj
 0003:000049fc       ?g_TraceClusterStop@@3HA   1006c9fc     flow.obj
 0003:00004a18       ?g_PerfThreadID@@3KA       1006ca18     mpi_stats.obj
 0003:00004a24       ?g_SpewText@@3V?$CUtlVector@DV?$CUtlMemory@DH@@@@A 1006ca24     mpi_stats.obj
 0003:00004a38       ??_R0?AVISQLDBCommand@@@8  1006ca38     mpi_stats.obj
 0003:00004a54       ??_R0?AVCSQLDBCommandBase@@@8 1006ca54     mpi_stats.obj
 0003:00004a74       ??_R0?AVCSQLDBCommand_TextMessage@@@8 1006ca74     mpi_stats.obj
 0003:00004a9c       ??_R0?AVCSQLDBCommand_WorkerStats@@@8 1006ca9c     mpi_stats.obj
 0003:00004ac4       ??_R0?AVCSQLDBCommand_JobMasterEnd@@@8 1006cac4     mpi_stats.obj
 0003:00004af0       ??_R0?AVCSQLDBCommand_GraphEntry@@@8 1006caf0     mpi_stats.obj
 0003:00004b18       ??_R0?AVIWorkUnitDistributorCallbacks@@@8 1006cb18     mpivis.obj
 0003:00004b44       ??_R0?AVCVisDistributeWorkCallbacks@@@8 1006cb44     mpivis.obj
 0003:00004b78       ?g_VisDistributeWorkCallbacks@@3VCVisDistributeWorkCallbacks@@A 1006cb78     mpivis.obj
 0003:00004b84       ??_R0?AVCMySqlDatabase@@@8 1006cb84     MySqlDatabase.obj
 0003:00004bb0       ??_R0?AVIScratchPad3D@@@8  1006cbb0     scratchpad3d.obj
 0003:00004bcc       ??_R0?AVCBaseCommand@CScratchPad3D@@@8 1006cbcc     scratchpad3d.obj
 0003:00004bf8       ??_R0?AVCCommand_Point@CScratchPad3D@@@8 1006cbf8     scratchpad3d.obj
 0003:00004c24       ??_R0?AVCCommand_Line@CScratchPad3D@@@8 1006cc24     scratchpad3d.obj
 0003:00004c50       ??_R0?AVCCommand_Matrix@CScratchPad3D@@@8 1006cc50     scratchpad3d.obj
 0003:00004c7c       ??_R0?AVCCommand_RenderState@CScratchPad3D@@@8 1006cc7c     scratchpad3d.obj
 0003:00004cb0       ??_R0?AVCCommand_Polygon@CScratchPad3D@@@8 1006ccb0     scratchpad3d.obj
 0003:00004ce0       ??_R0?AVCCommand_Text@CScratchPad3D@@@8 1006cce0     scratchpad3d.obj
 0003:00004d0c       ??_R0?AVCScratchPad3D@@@8  1006cd0c     scratchpad3d.obj
 0003:00004d48       ?g_pfnCallback@@3P6AXPBD0H@ZA 1006cd48     scriplib.obj
 0003:00004d4c       ?scriptlib@@3PAVIScriptLib@@A 1006cd4c     scriplib.obj
 0003:00004d5c       ??_R0?AVIScriptLib@@@8     1006cd5c     scriplib.obj
 0003:00004d78       ??_R0?AVCScriptLib@@@8     1006cd78     scriplib.obj
 0003:00004d94       ?numthreads@@3HA           1006cd94     threads.obj
 0003:00004da8       ?g_VisRadius@@3NA          1006cda8     vvis.obj
 0003:00004dbc       ??_R0?AVILaunchableDLL@@@8 1006cdbc     vvis.obj
 0003:00004ddc       ??_R0?AVCVVisDLL@@@8       1006cddc     vvis.obj
 0003:00004dfc       ?m_DataMap@ZIP_EndOfCentralDirRecord@@2Udatamap_t@@A 1006cdfc     zip_utils.obj
 0003:00004e14       ?m_DataMap@ZIP_FileHeader@@2Udatamap_t@@A 1006ce14     zip_utils.obj
 0003:00004e2c       ?m_DataMap@ZIP_LocalFileHeader@@2Udatamap_t@@A 1006ce2c     zip_utils.obj
 0003:00004e44       ?m_DataMap@ZIP_PreloadHeader@@2Udatamap_t@@A 1006ce44     zip_utils.obj
 0003:00004e5c       ?m_DataMap@ZIP_PreloadDirectoryEntry@@2Udatamap_t@@A 1006ce5c     zip_utils.obj
 0003:00004e98       ??_R0?AVIWriteStream@@@8   1006ce98     zip_utils.obj
 0003:00004eb4       ??_R0?AVCFileStream@@@8    1006ceb4     zip_utils.obj
 0003:00004ed0       ??_R0?AVIZip@@@8           1006ced0     zip_utils.obj
 0003:00004ee4       ??_R0?AVCBufferStream@@@8  1006cee4     zip_utils.obj
 0003:00005894       ??_R0?AVCZip@@@8           1006d894     zip_utils.obj
 0003:000058a8       ?pfSqrt@@3P6AMM@ZA         1006d8a8     mathlib:mathlib_base.obj
 0003:000058ac       ?pfRSqrt@@3P6AMM@ZA        1006d8ac     mathlib:mathlib_base.obj
 0003:000058b0       ?pfRSqrtFast@@3P6AMM@ZA    1006d8b0     mathlib:mathlib_base.obj
 0003:000058b4       ?pfVectorNormalize@@3P6IMAAVVector@@@ZA 1006d8b4     mathlib:mathlib_base.obj
 0003:000058b8       ?pfVectorNormalizeFast@@3P6IXAAVVector@@@ZA 1006d8b8     mathlib:mathlib_base.obj
 0003:000058bc       ?pfInvRSquared@@3P6AMPBM@ZA 1006d8bc     mathlib:mathlib_base.obj
 0003:000058c0       ?pfFastSinCos@@3P6AXMPAM0@ZA 1006d8c0     mathlib:mathlib_base.obj
 0003:000058c4       ?pfFastCos@@3P6AMM@ZA      1006d8c4     mathlib:mathlib_base.obj
 0003:000058d0       ?vec3_invalid@@3VVector@@B 1006d8d0     mathlib:mathlib_base.obj
 0003:00005900       ?power2_n@@3PAMA           1006d900     mathlib:color_conversion.obj
 0003:00005d98       ??_R0?AVCUtlCharConversion@@@8 1006dd98     tier1:utlbuffer.obj
 0003:00005dbc       ??_R0?AVCUtlNoEscConversion@@@8 1006ddbc     tier1:utlbuffer.obj
 0003:00005de0       ??_R0?AVCUtlCStringConversion@@@8 1006dde0     tier1:utlbuffer.obj
 0003:00005e20       ?g_KeyValuesErrorStack@@3VCKeyValuesErrorStack@@A 1006de20     tier1:KeyValues.obj
 0003:00005f2c       ?s_bAllowStaticSymbolTable@CUtlSymbol@@1_NA 1006df2c     tier1:utlsymbol.obj
 0003:00006360       ?g_nMaxWorkerCount@@3HA    1006e360     vmpi:vmpi.obj
 0003:00006364       ?g_bSetThreadPriorities@@3_NA 1006e364     vmpi:vmpi.obj
 0003:00006518       ?g_VMPIFileSystemMode@@3W4VMPIFileSystemMode@@A 1006e518     vmpi:vmpi.obj
 0003:00006528       ?g_PersistentPackets@@3V?$CUtlLinkedList@PAV?$CUtlVector@DV?$CUtlMemory@DH@@@@G$0A@GV?$CUtlMemory@U?$UtlLinkedListElem_t@PAV?$CUtlVector@DV?$CUtlMemory@DH@@@@G@@G@@@@A 1006e528     vmpi:vmpi.obj
 0003:00006544       ?g_VMPIMessages@@3V?$CUtlLinkedList@PAVCTCPPacket@@H$0A@HV?$CUtlMemory@U?$UtlLinkedListElem_t@PAVCTCPPacket@@H@@H@@@@A 1006e544     vmpi:vmpi.obj
 0003:00006568       ?g_ErrorSockets@@3V?$CUtlLinkedList@PAVCVMPIConnection@@H$0A@HV?$CUtlMemory@U?$UtlLinkedListElem_t@PAVCVMPIConnection@@H@@H@@@@A 1006e568     vmpi:vmpi.obj
 0003:0000658c       ?g_DisconnectHandlers@@3V?$CUtlLinkedList@P6AXHPBD@ZH$0A@HV?$CUtlMemory@U?$UtlLinkedListElem_t@P6AXHPBD@ZH@@H@@@@A 1006e58c     vmpi:vmpi.obj
 0003:000065b0       ??_R0?AVIHandlerCreator@@@8 1006e5b0     vmpi:vmpi.obj
 0003:000065d0       ??_R0?AVCVMPIConnectionCreator@@@8 1006e5d0     vmpi:vmpi.obj
 0003:000065f8       ??_R0?AVITCPSocketHandler@@@8 1006e5f8     vmpi:vmpi.obj
 0003:00006618       ??_R0?AVCVMPIConnection@@@8 1006e618     vmpi:vmpi.obj
 0003:00006648       ?g_ThreadWUs@@3PA_KA       1006e648     vmpi:vmpi_distribute_work.obj
 0003:00006678       ??_R0?AVCBaseVMPIFileSystem@@@8 1006e678     vmpi:vmpi_filesystem.obj
 0003:0000669c       ??_R0?AVCFileSystemPassThru@@@8 1006e69c     vmpi:vmpi_filesystem.obj
 0003:000066c0       ??_R0?AV?$CInternalFileSystemPassThru@VIFileSystem@@@@@8 1006e6c0     vmpi:vmpi_filesystem.obj
 0003:000066fc       ??_R0?AVIFileSystem@@@8    1006e6fc     vmpi:vmpi_filesystem.obj
 0003:00006718       ??_R0?AVIAppSystem@@@8     1006e718     vmpi:vmpi_filesystem.obj
 0003:00006734       ??_R0?AVIBaseFileSystem@@@8 1006e734     vmpi:vmpi_filesystem.obj
 0003:0000675c       ??_R0?AVISocket@@@8        1006e75c     vmpi:iphelpers.obj
 0003:00006774       ??_R0?AVCIPSocket@@@8      1006e774     vmpi:iphelpers.obj
 0003:000067a0       ?MULTICAST_TRANSMIT_RATE@@3HA 1006e7a0     vmpi:vmpi_filesystem_master.obj
 0003:000067b4       ??_R0?AVIVMPIFile@@@8      1006e7b4     vmpi:vmpi_filesystem_master.obj
 0003:000067cc       ??_R0?AVCVMPIFile_PassThru@@@8 1006e7cc     vmpi:vmpi_filesystem_master.obj
 0003:000067f0       ??_R0?AVCVMPIFile_Memory@@@8 1006e7f0     vmpi:vmpi_filesystem_master.obj
 0003:00006810       ??_R0?AVCMasterVMPIFileSystem@@@8 1006e810     vmpi:vmpi_filesystem_master.obj
 0003:00006838       ?g_bHandleTimeouts@@3_NA   1006e838     vmpi:ThreadedTCPSocket.obj
 0003:00006839       ?g_bSetTCPSocketThreadPriorities@@3_NA 1006e839     vmpi:ThreadedTCPSocket.obj
 0003:00006844       ??_R0?AVITCPConnectSocket@@@8 1006e844     vmpi:ThreadedTCPSocket.obj
 0003:00006864       ??_R0?AVCTCPConnectSocket_Connector@@@8 1006e864     vmpi:ThreadedTCPSocket.obj
 0003:00006890       ??_R0?AVIThreadedTCPSocket@@@8 1006e890     vmpi:ThreadedTCPSocket.obj
 0003:000068b4       ??_R0?AVCTCPConnectSocket_Listener@@@8 1006e8b4     vmpi:ThreadedTCPSocket.obj
 0003:000068e0       ??_R0?AVCThreadedTCPSocket@@@8 1006e8e0     vmpi:ThreadedTCPSocket.obj
 0003:00006928       ?g_nLastDrawnChanges@@3HA  1006e928     vmpi:vmpi_distribute_tracker.obj
 0003:00006944       ??_R0?AVIWorkUnitDistributorMaster@@@8 1006e944     vmpi:vmpi_distribute_work_default.obj
 0003:00006970       ??_R0?AVIWorkUnitDistributorWorker@@@8 1006e970     vmpi:vmpi_distribute_work_default.obj
 0003:0000699c       ??_R0?AVCDistributor_DefaultWorker@@@8 1006e99c     vmpi:vmpi_distribute_work_default.obj
 0003:000069c8       ??_R0?AVCDistributor_DefaultMaster@@@8 1006e9c8     vmpi:vmpi_distribute_work_default.obj
 0003:000069f4       ??_R0?AVIShuffleRequester@@@8 1006e9f4     vmpi:vmpi_distribute_work_sdk.obj
 0003:00006a14       ??_R0?AVCDistributor_SDKWorker@@@8 1006ea14     vmpi:vmpi_distribute_work_sdk.obj
 0003:00006a3c       ?nWarnings@?9??HandlePacket@CDistributor_SDKWorker@@UAE_NPAVMessageBuffer@@H_N@Z@4HA 1006ea3c     vmpi:vmpi_distribute_work_sdk.obj
 0003:00006a40       ??_R0?AVCDistributor_SDKMaster@@@8 1006ea40     vmpi:vmpi_distribute_work_sdk.obj
 0003:00006a70       ??_R0?AVCWorkerVMPIFileSystem@@@8 1006ea70     vmpi:vmpi_filesystem_worker.obj
 0003:00006a9c       ?g_FileChunkPackets@@3V?$CUtlLinkedList@PAVCFileChunkPacket@@H$0A@HV?$CUtlMemory@U?$UtlLinkedListElem_t@PAVCFileChunkPacket@@H@@H@@@@A 1006ea9c     vmpi:vmpi_filesystem_worker.obj
 0003:00006ac4       ??_C@_05NLJN@1?41?43?$AA@  1006eac4     vmpi:deflate.obj
 0003:00006acc       ??_C@_0BA@FKCH@need?5dictionary?$AA@ 1006eacc     vmpi:inflate.obj
 0003:00006adc       ??_C@_0BF@OBFI@incorrect?5data?5check?$AA@ 1006eadc     vmpi:inflate.obj
 0003:00006af4       ??_C@_0BH@NLIB@incorrect?5header?5check?$AA@ 1006eaf4     vmpi:inflate.obj
 0003:00006b0c       ??_C@_0BE@FAJE@invalid?5window?5size?$AA@ 1006eb0c     vmpi:inflate.obj
 0003:00006b20       ??_C@_0BL@KPEJ@unknown?5compression?5method?$AA@ 1006eb20     vmpi:inflate.obj
 0003:00006b3c       _z_errmsg                  1006eb3c     vmpi:zutil.obj
 0003:00006b64       ??_C@_0BF@HPBB@incompatible?5version?$AA@ 1006eb64     vmpi:zutil.obj
 0003:00006b7c       ??_C@_0N@EHHN@buffer?5error?$AA@ 1006eb7c     vmpi:zutil.obj
 0003:00006b8c       ??_C@_0BE@EMHE@insufficient?5memory?$AA@ 1006eb8c     vmpi:zutil.obj
 0003:00006ba0       ??_C@_0L@EBEB@data?5error?$AA@ 1006eba0     vmpi:zutil.obj
 0003:00006bac       ??_C@_0N@OPOA@stream?5error?$AA@ 1006ebac     vmpi:zutil.obj
 0003:00006bbc       ??_C@_0L@DFEP@file?5error?$AA@ 1006ebbc     vmpi:zutil.obj
 0003:00006bc8       ??_C@_0L@JPFB@stream?5end?$AA@ 1006ebc8     vmpi:zutil.obj
 0003:00006c10       ??_C@_0BK@BNJN@invalid?5bit?5length?5repeat?$AA@ 1006ec10     vmpi:infblock.obj
 0003:00006c2c       ??_C@_0CE@LAKP@too?5many?5length?5or?5distance?5symb@ 1006ec2c     vmpi:infblock.obj
 0003:00006c50       ??_C@_0BN@DBOJ@invalid?5stored?5block?5lengths?$AA@ 1006ec50     vmpi:infblock.obj
 0003:00006c70       ??_C@_0BD@IFBC@invalid?5block?5type?$AA@ 1006ec70     vmpi:infblock.obj
 0003:00006c84       ??_C@_0BM@CHJP@invalid?5literal?1length?5code?$AA@ 1006ec84     vmpi:infcodes.obj
 0003:00006ca0       ??_C@_0BG@EGK@invalid?5distance?5code?$AA@ 1006eca0     vmpi:infcodes.obj
 0003:00007dc0       ??_C@_0CE@MFNM@incomplete?5dynamic?5bit?5lengths?5t@ 1006fdc0     vmpi:inftrees.obj
 0003:00007de4       ??_C@_0CI@BBGL@oversubscribed?5dynamic?5bit?5lengt@ 1006fde4     vmpi:inftrees.obj
 0003:00007e0c       ??_C@_0BP@KPP@incomplete?5literal?1length?5tree?$AA@ 1006fe0c     vmpi:inftrees.obj
 0003:00007e2c       ??_C@_0CD@ODII@oversubscribed?5literal?1length?5tr@ 1006fe2c     vmpi:inftrees.obj
 0003:00007e50       ??_C@_0CB@INA@empty?5distance?5tree?5with?5lengths@ 1006fe50     vmpi:inftrees.obj
 0003:00007e74       ??_C@_0BJ@NKOC@incomplete?5distance?5tree?$AA@ 1006fe74     vmpi:inftrees.obj
 0003:00007e90       ??_C@_0BN@OAAG@oversubscribed?5distance?5tree?$AA@ 1006fe90     vmpi:inftrees.obj
 0003:00007eb0       _inflate_mask              1006feb0     vmpi:infutil.obj
 0003:00007ef8       ?bitsForBitnum@?1??GetBitForBitnum@@YAHH@Z@4PAHA 1006fef8     tier1:bitbuf.obj
 0003:00007f90       __fltused                  1006ff90     LIBCMT:_fpinit_.obj
 0003:00007f94       __ldused                   1006ff94     LIBCMT:_fpinit_.obj
 0003:00007fa0       ??_R0?AVbad_alloc@std@@@8  1006ffa0     LIBCMT:new.obj
 0003:00007fbc       ??_R0?AVexception@std@@@8  1006ffbc     LIBCMT:new.obj
 0003:00007fd8       ??_R0?AVtype_info@@@8      1006ffd8     LIBCMT:typinfo.obj
 0003:00007ff0       __iob                      1006fff0     LIBCMT:_file.obj
 0003:00008400       __half                     10070400     LIBCMT:_pow_.obj
 0003:00008414       __cfltcvt_tab              10070414     LIBCMT:cmiscdat.obj
 0003:00008440       ___initialmbcinfo          10070440     LIBCMT:mbctype.obj
 0003:00008660       __mbctype                  10070660     LIBCMT:mbctype.obj
 0003:00008768       __mbcasemap                10070768     LIBCMT:mbctype.obj
 0003:00008868       ___ptmbcinfo               10070868     LIBCMT:mbctype.obj
 0003:00008960       ___globallocalestatus      10070960     LIBCMT:glstatus.obj
 0003:00008964       ___clocalestr              10070964     LIBCMT:nlsdata2.obj
 0003:00008968       ___lc_time_c               10070968     LIBCMT:nlsdata2.obj
 0003:00008ad0       ___initiallocinfo          10070ad0     LIBCMT:nlsdata2.obj
 0003:00008ba8       ___ptlocinfo               10070ba8     LIBCMT:nlsdata2.obj
 0003:00008bac       ___initiallocalestructinfo 10070bac     LIBCMT:nlsdata2.obj
 0003:00008bb4       ___flsindex                10070bb4     LIBCMT:tidtable.obj
 0003:00008bb8       ___getvalueindex           10070bb8     LIBCMT:tidtable.obj
 0003:00008bbc       ___security_cookie         10070bbc     LIBCMT:gs_cookie.obj
 0003:00008bc0       ___security_cookie_complement 10070bc0     LIBCMT:gs_cookie.obj
 0003:00008bd0       ___abort_behavior          10070bd0     LIBCMT:abort.obj
 0003:00008be0       ___nullstring              10070be0     LIBCMT:output.obj
 0003:00008be4       ___wnullstring             10070be4     LIBCMT:output.obj
 0003:00008be8       ___badioinfo               10070be8     LIBCMT:ioinit.obj
 0003:00008d50       __lookuptrailbytes         10070d50     LIBCMT:read.obj
 0003:00008e58       __sys_errlist              10070e58     LIBCMT:syserr.obj
 0003:00008f08       __sys_nerr                 10070f08     LIBCMT:syserr.obj
 0003:00008f0c       __tmpoff                   10070f0c     LIBCMT:rmtmp.obj
 0003:00008f10       __tempoff                  10070f10     LIBCMT:rmtmp.obj
 0003:00008f30       __timezone                 10070f30     LIBCMT:timeset.obj
 0003:00008f34       __daylight                 10070f34     LIBCMT:timeset.obj
 0003:00008f38       __dstbias                  10070f38     LIBCMT:timeset.obj
 0003:00008fc0       __tzname                   10070fc0     LIBCMT:timeset.obj
 0003:00008fd0       __HUGE                     10070fd0     LIBCMT:_huge_.obj
 0003:00008fe8       __matherr_flag             10070fe8     LIBCMT:_matherr_.obj
 0003:000090d8       __d_inf                    100710d8     LIBCMT:_util_.obj
 0003:000090e0       __d_ind                    100710e0     LIBCMT:_util_.obj
 0003:000090e8       __d_max                    100710e8     LIBCMT:_util_.obj
 0003:000090f0       __d_min                    100710f0     LIBCMT:_util_.obj
 0003:000090f8       __d_mzero                  100710f8     LIBCMT:_util_.obj
 0003:00009120       ___lconv_static_decimal    10071120     LIBCMT:lconv.obj
 0003:00009124       ___lconv_static_W_decimal  10071124     LIBCMT:lconv.obj
 0003:00009128       ___lconv_c                 10071128     LIBCMT:lconv.obj
 0003:00009178       ___lconv                   10071178     LIBCMT:lconv.obj
 0003:0000917c       __pctype                   1007117c     LIBCMT:ctype.obj
 0003:00009180       __pwctype                  10071180     LIBCMT:ctype.obj
 0003:000091b8       __pow10pos                 100711b8     LIBCMT:_constpow_.obj
 0003:00009318       __pow10neg                 10071318     LIBCMT:_constpow_.obj
 0003:00009480       __NLG_Destination          10071480     LIBCMT:exsup.obj
 0003:00009490       __lpdays                   10071490     LIBCMT:days.obj
 0003:000094c4       __days                     100714c4     LIBCMT:days.obj
 0003:00009500       ___mb_cur_max              10071500     LIBCMT:nlsdata1.obj
 0003:00009504       ___decimal_point           10071504     LIBCMT:nlsdata1.obj
 0003:00009508       ___decimal_point_length    10071508     LIBCMT:nlsdata1.obj
 0003:00009510       __p_overlay                10071510     LIBCMT:dospawn.obj
 0003:00009514       __confh                    10071514     LIBCMT:initcon.obj
 0003:00009524       __coninpfh                 10071524     LIBCMT:initconin.obj
 0003:00009540       ?numnodes@@3HA             10071540     bsplib.obj
 0003:00009544       ?g_nClipPortalVerts@@3HA   10071544     bsplib.obj
 0003:00009548       ?g_hBSPFile@@3PAXA         10071548     bsplib.obj
 0003:0000954c       ?numareaportals@@3HA       1007154c     bsplib.obj
 0003:00009550       ?numworldlightsLDR@@3HA    10071550     bsplib.obj
 0003:00009554       ?visdatasize@@3HA          10071554     bsplib.obj
 0003:00009558       ?dleafs@@3PAUdleaf_t@@A    10071558     bsplib.obj
 0003:00209558       ?g_LeafMinDistToWater@@3PAGA 10271558     bsplib.obj
 0003:00229558       ?g_CubemapSamples@@3PAUdcubemapsample_t@@A 10291558     bsplib.obj
 0003:0022d558       ?dedges@@3PAUdedge_t@@A    10295558     bsplib.obj
 0003:00327558       ?g_Lumps@@3U<unnamed-type-g_Lumps>@@A 1038f558     bsplib.obj
 0003:00327798       ?dorigfaces@@3PAUdface_t@@A 1038f798     bsplib.obj
 0003:006a7798       ?dareaportals@@3PAUdareaportal_t@@A 1070f798     bsplib.obj
 0003:006aa798       ?g_primitives@@3PAUdprimitive_t@@A 10712798     bsplib.obj
 0003:006fa798       ?nummodels@@3HA            10762798     bsplib.obj
 0003:006fa79c       ?g_pCompressFunc@@3P6A_NAAVCUtlBuffer@@0@ZA 1076279c     bsplib.obj
 0003:006fa7a0       ?dleaffaces@@3PAGA         107627a0     bsplib.obj
 0003:0071a7a0       ?dbrushsides@@3PAUdbrushside_t@@A 107827a0     bsplib.obj
 0003:0079a7a0       ?numsurfedges@@3HA         108027a0     bsplib.obj
 0003:0079a7a4       ?g_pBSPHeader@@3PAUdheader_t@@A 108027a4     bsplib.obj
 0003:0079a7a8       ?dleafwaterdata@@3PAUdleafwaterdata_t@@A 108027a8     bsplib.obj
 0003:007fa7a8       ?dfaces_hdr@@3PAUdface_t@@A 108627a8     bsplib.obj
 0003:00b7a7a8       ?g_OverlayFades@@3PAUdoverlayfade_t@@A 10be27a8     bsplib.obj
 0003:00b7b7a8       ?numleafbrushes@@3HA       10be37a8     bsplib.obj
 0003:00b7b7ac       ?g_nOverlayCount@@3HA      10be37ac     bsplib.obj
 0003:00b7b7b0       ?numplanes@@3HA            10be37b0     bsplib.obj
 0003:00b7b7b4       ?g_numvertnormals@@3HA     10be37b4     bsplib.obj
 0003:00b7b7b8       ?numleafs@@3HA             10be37b8     bsplib.obj
 0003:00b7b7bc       ?g_pVTFConvertFunc@@3P6A_NPBDAAVCUtlBuffer@@1P6A_N11@Z@ZA 10be37bc     bsplib.obj
 0003:00b7b7c0       ?dsurfedges@@3PAHA         10be37c0     bsplib.obj
 0003:00d6f7c0       ?g_numvertnormalindices@@3HA 10dd77c0     bsplib.obj
 0003:00d6f7c4       ?numleaffaces@@3HA         10dd77c4     bsplib.obj
 0003:00d6f7c8       ?dvisdata@@3PAEA           10dd77c8     bsplib.obj
 0003:01d6f7c8       ?numareas@@3HA             11dd77c8     bsplib.obj
 0003:01d6f7cc       ?numvertexes@@3HA          11dd77cc     bsplib.obj
 0003:01d6f7d0       ?dfaces@@3PAUdface_t@@A    11dd77d0     bsplib.obj
 0003:020ef7d0       ?g_pVHVFixupFunc@@3P6A_NPBD0AAVCUtlBuffer@@1@ZA 121577d0     bsplib.obj
 0003:020ef7d4       ?numorigfaces@@3HA         121577d4     bsplib.obj
 0003:020ef7d8       ?numedges@@3HA             121577d8     bsplib.obj
 0003:020ef7dc       ?numbrushes@@3HA           121577dc     bsplib.obj
 0003:020ef7e0       ?num_entities@@3HA         121577e0     bsplib.obj
 0003:020ef7e4       ?numfaces@@3HA             121577e4     bsplib.obj
 0003:020ef7e8       ?dleafbrushes@@3PAGA       121577e8     bsplib.obj
 0003:0210f7e8       ?g_nWaterOverlayCount@@3HA 121777e8     bsplib.obj
 0003:0210f7ec       ?numfaceids@@3HA           121777ec     bsplib.obj
 0003:0210f7f0       ?dareas@@3PAUdarea_t@@A    121777f0     bsplib.obj
 0003:0210fff0       ?dnodes@@3PAUdnode_t@@A    12177ff0     bsplib.obj
 0003:0230fff0       ?numbrushsides@@3HA        12377ff0     bsplib.obj
 0003:0230fff4       ?numworldlightsHDR@@3HA    12377ff4     bsplib.obj
 0003:0230fff8       ?dbrushes@@3PAUdbrush_t@@A 12377ff8     bsplib.obj
 0003:02327ff8       ?numfaces_hdr@@3HA         1238fff8     bsplib.obj
 0003:02327ffc       ?numtexdata@@3HA           1238fffc     bsplib.obj
 0003:02328000       ?g_primindices@@3PAGA      12390000     bsplib.obj
 0003:02348000       ?g_vertnormalindices@@3PAGA 123b0000     bsplib.obj
 0003:023c5000       ?g_bHDR@@3_NA              1242d000     bsplib.obj
 0003:023c5004       ?g_LevelFlags@@3IA         1242d004     bsplib.obj
 0003:023c5008       ?g_pLeafAmbientIndex@@3PAV?$CUtlVector@Udleafambientindex_t@@V?$CUtlMemory@Udleafambientindex_t@@H@@@@A 1242d008     bsplib.obj
 0003:023c500c       ?g_pLeafAmbientLighting@@3PAV?$CUtlVector@Udleafambientlighting_t@@V?$CUtlMemory@Udleafambientlighting_t@@H@@@@A 1242d00c     bsplib.obj
 0003:023c5010       ?g_numprimitives@@3HA      1242d010     bsplib.obj
 0003:023c5014       ?g_numprimverts@@3HA       1242d014     bsplib.obj
 0003:023c5018       ?g_numprimindices@@3HA     1242d018     bsplib.obj
 0003:023c501c       ?numleafwaterdata@@3HA     1242d01c     bsplib.obj
 0003:023c5020       ?g_nCubemapSamples@@3HA    1242d020     bsplib.obj
 0003:023c5024       ?g_pPhysCollide@@3PAEA     1242d024     bsplib.obj
 0003:023c5028       ?g_PhysCollideSize@@3HA    1242d028     bsplib.obj
 0003:023c502c       ?g_MapRevision@@3HA        1242d02c     bsplib.obj
 0003:023c5030       ?g_pPhysDisp@@3PAEA        1242d030     bsplib.obj
 0003:023c5034       ?g_PhysDispSize@@3HA       1242d034     bsplib.obj
 0003:023c5054       ?g_DataMapHolder@CompressedLightCube_DataDescInit@@3PAUdatamap_t@@A 1242d054     bsplib.obj
 0003:023c5058       ?g_DataMapHolder@CDispCornerNeighbors_DataDescInit@@3PAUdatamap_t@@A 1242d058     bsplib.obj
 0003:023c505c       ?g_DataMapHolder@dbrush_t_DataDescInit@@3PAUdatamap_t@@A 1242d05c     bsplib.obj
 0003:023c5060       ?g_DataMapHolder@dgamelumpheader_t_DataDescInit@@3PAUdatamap_t@@A 1242d060     bsplib.obj
 0003:023c5064       ?g_DataMapHolder@StaticPropLumpV4_t_DataDescInit@@3PAUdatamap_t@@A 1242d064     bsplib.obj
 0003:023c5068       ?g_DataMapHolder@doverlay_t_DataDescInit@@3PAUdatamap_t@@A 1242d068     bsplib.obj
 0003:023c506c       ?g_DataMapHolder@dareaportal_t_DataDescInit@@3PAUdatamap_t@@A 1242d06c     bsplib.obj
 0003:023c5070       ?g_DataMapHolder@dleafambientlighting_t_DataDescInit@@3PAUdatamap_t@@A 1242d070     bsplib.obj
 0003:023c5074       ?g_DataMapHolder@StaticPropDictLump_t_DataDescInit@@3PAUdatamap_t@@A 1242d074     bsplib.obj
 0003:023c5078       ?g_vertnormals@@3PAVVector@@A 1242d078     bsplib.obj
 0003:026b3078       ?g_DataMapHolder@dleafwaterdata_t_DataDescInit@@3PAUdatamap_t@@A 1271b078     bsplib.obj
 0003:026b307c       ?g_DataMapHolder@dnode_t_DataDescInit@@3PAUdatamap_t@@A 1271b07c     bsplib.obj
 0003:026b3080       ?g_DataMapHolder@dflagslump_t_DataDescInit@@3PAUdatamap_t@@A 1271b080     bsplib.obj
 0003:026b3084       ?g_DataMapHolder@dmodel_t_DataDescInit@@3PAUdatamap_t@@A 1271b084     bsplib.obj
 0003:026b3088       ?dworldlightsHDR@@3PAUdworldlight_t@@A 1271b088     bsplib.obj
 0003:02763088       ?g_LeafAmbientLightingHDR@@3V?$CUtlVector@Udleafambientlighting_t@@V?$CUtlMemory@Udleafambientlighting_t@@H@@@@A 127cb088     bsplib.obj
 0003:0276309c       ?g_DataMapHolder@CFaceMacroTextureInfo_DataDescInit@@3PAUdatamap_t@@A 127cb09c     bsplib.obj
 0003:027630a0       ?dtexdata@@3PAUdtexdata_t@@A 127cb0a0     bsplib.obj
 0003:027730a0       ?g_DataMapHolder@dphysdisp_t_DataDescInit@@3PAUdatamap_t@@A 127db0a0     bsplib.obj
 0003:027730a4       ?g_DataMapHolder@DetailObjectLump_t_DataDescInit@@3PAUdatamap_t@@A 127db0a4     bsplib.obj
 0003:027730a8       ?g_DataMapHolder@dleaf_version_0_t_DataDescInit@@3PAUdatamap_t@@A 127db0a8     bsplib.obj
 0003:027730ac       ?g_DataMapHolder@dvertex_t_DataDescInit@@3PAUdatamap_t@@A 127db0ac     bsplib.obj
 0003:027730b0       ?g_DataMapHolder@dworldlight_t_DataDescInit@@3PAUdatamap_t@@A 127db0b0     bsplib.obj
 0003:027730b4       ?g_DataMapHolder@dprimvert_t_DataDescInit@@3PAUdatamap_t@@A 127db0b4     bsplib.obj
 0003:027730b8       ?g_Overlays@@3PAUdoverlay_t@@A 127db0b8     bsplib.obj
 0003:0279f0b8       ?g_DispLightmapSamplePositions@@3V?$CUtlVector@EV?$CUtlMemory@EH@@@@A 128070b8     bsplib.obj
 0003:0279f0cc       ?g_DataMapHolder@dwateroverlay_t_DataDescInit@@3PAUdatamap_t@@A 128070cc     bsplib.obj
 0003:0279f0d0       ?g_DataMapHolder@swapcompactsurfaceheader_t_DataDescInit@@3PAUdatamap_t@@A 128070d0     bsplib.obj
 0003:0279f0d4       ?g_StaticPropNames@@3V?$CUtlVector@VCUtlString@@V?$CUtlMemory@VCUtlString@@H@@@@A 128070d4     bsplib.obj
 0003:0279f0e8       ?dlightdataLDR@@3V?$CUtlVector@EV?$CUtlMemory@EH@@@@A 128070e8     bsplib.obj
 0003:0279f0fc       ?g_LeafAmbientIndexHDR@@3V?$CUtlVector@Udleafambientindex_t@@V?$CUtlMemory@Udleafambientindex_t@@H@@@@A 128070fc     bsplib.obj
 0003:0279f110       ?g_DataMapHolder@ddispinfo_t_DataDescInit@@3PAUdatamap_t@@A 12807110     bsplib.obj
 0003:0279f114       ?g_DataMapHolder@dgamelump_t_DataDescInit@@3PAUdatamap_t@@A 12807114     bsplib.obj
 0003:0279f118       ?g_DataMapHolder@DetailSpriteDictLump_t_DataDescInit@@3PAUdatamap_t@@A 12807118     bsplib.obj
 0003:0279f11c       ?g_DataMapHolder@dheader_t_DataDescInit@@3PAUdatamap_t@@A 1280711c     bsplib.obj
 0003:0279f120       ?g_DataMapHolder@swapcollideheader_t_DataDescInit@@3PAUdatamap_t@@A 12807120     bsplib.obj
 0003:0279f124       ?g_LeafAmbientLightingLDR@@3V?$CUtlVector@Udleafambientlighting_t@@V?$CUtlMemory@Udleafambientlighting_t@@H@@@@A 12807124     bsplib.obj
 0003:0279f138       ?g_DataMapHolder@CDispTri_DataDescInit@@3PAUdatamap_t@@A 12807138     bsplib.obj
 0003:0279f13c       ?g_DataMapHolder@dtexdata_t_DataDescInit@@3PAUdatamap_t@@A 1280713c     bsplib.obj
 0003:0279f140       ?g_DataMapHolder@swapmoppsurfaceheader_t_DataDescInit@@3PAUdatamap_t@@A 12807140     bsplib.obj
 0003:0279f144       ?g_ClusterLeaves@@3V?$CUtlVector@Uclusterlist_t@@V?$CUtlMemory@Uclusterlist_t@@H@@@@A 12807144     bsplib.obj
 0003:0279f158       ?g_DataMapHolder@dcubemapsample_t_DataDescInit@@3PAUdatamap_t@@A 12807158     bsplib.obj
 0003:0279f15c       ?g_dispinfo@@3V?$CUtlVector@Vddispinfo_t@@V?$CUtlMemory@Vddispinfo_t@@H@@@@A 1280715c     bsplib.obj
 0003:0279f170       ?entities@@3PAUentity_t@@A 12807170     bsplib.obj
 0003:027f7170       ?g_TexDataStringData@@3V?$CUtlVector@DV?$CUtlMemory@DH@@@@A 1285f170     bsplib.obj
 0003:027f7184       ?g_DataMapHolder@dphysmodel_t_DataDescInit@@3PAUdatamap_t@@A 1285f184     bsplib.obj
 0003:027f7188       ?dentdata@@3V?$CUtlVector@DV?$CUtlMemory@DH@@@@A 1285f188     bsplib.obj
 0003:027f719c       ?g_DataMapHolder@CDispVert_DataDescInit@@3PAUdatamap_t@@A 1285f19c     bsplib.obj
 0003:027f71a0       ?g_DataMapHolder@darea_t_DataDescInit@@3PAUdatamap_t@@A 1285f1a0     bsplib.obj
 0003:027f71a4       ?g_DataMapHolder@MeshHeader_t_DataDescInit@HardwareVerts@@3PAUdatamap_t@@A 1285f1a4     bsplib.obj
 0003:027f71a8       ?g_DataMapHolder@FileHeader_t_DataDescInit@HardwareVerts@@3PAUdatamap_t@@A 1285f1a8     bsplib.obj
 0003:027f71ac       ?g_TexDataStringTable@@3V?$CUtlVector@HV?$CUtlMemory@HH@@@@A 1285f1ac     bsplib.obj
 0003:027f71c0       ?g_ClipPortalVerts@@3PAVVector@@A 1285f1c0     bsplib.obj
 0003:0296e1c0       ?g_DataMapHolder@dleaf_t_DataDescInit@@3PAUdatamap_t@@A 129d61c0     bsplib.obj
 0003:0296e1c4       ?g_DataMapHolder@lump_t_DataDescInit@@3PAUdatamap_t@@A 129d61c4     bsplib.obj
 0003:0296e1c8       ?g_DataMapHolder@dedge_t_DataDescInit@@3PAUdatamap_t@@A 129d61c8     bsplib.obj
 0003:0296e1cc       ?g_DataMapHolder@doccluderpolydata_t_DataDescInit@@3PAUdatamap_t@@A 129d61cc     bsplib.obj
 0003:0296e1d0       ?g_DataMapHolder@DetailObjectDictLump_t_DataDescInit@@3PAUdatamap_t@@A 129d61d0     bsplib.obj
 0003:0296e1d4       ?g_DataMapHolder@dleafambientindex_t_DataDescInit@@3PAUdatamap_t@@A 129d61d4     bsplib.obj
 0003:0296e1d8       ?g_DataMapHolder@StaticPropLump_t_DataDescInit@@3PAUdatamap_t@@A 129d61d8     bsplib.obj
 0003:0296e1dc       ?g_DataMapHolder@CDispSubNeighbor_DataDescInit@@3PAUdatamap_t@@A 129d61dc     bsplib.obj
 0003:0296e1e0       ?g_DataMapHolder@DetailPropLightstylesLump_t_DataDescInit@@3PAUdatamap_t@@A 129d61e0     bsplib.obj
 0003:0296e1e4       ?g_DispVerts@@3V?$CUtlVector@VCDispVert@@V?$CUtlMemory@VCDispVert@@H@@@@A 129d61e4     bsplib.obj
 0003:0296e1f8       ?g_primverts@@3PAUdprimvert_t@@A 129d61f8     bsplib.obj
 0003:02a2e1f8       ?g_DataMapHolder@dfaceid_t_DataDescInit@@3PAUdatamap_t@@A 12a961f8     bsplib.obj
 0003:02a2e1fc       ?g_StaticPropInstances@@3V?$CUtlVector@HV?$CUtlMemory@HH@@@@A 12a961fc     bsplib.obj
 0003:02a2e210       ?g_DataMapHolder@StaticPropLumpV5_t_DataDescInit@@3PAUdatamap_t@@A 12a96210     bsplib.obj
 0003:02a2e214       ?g_DataMapHolder@CDispNeighbor_DataDescInit@@3PAUdatamap_t@@A 12a96214     bsplib.obj
 0003:02a2e218       ?dplanes@@3PAUdplane_t@@A  12a96218     bsplib.obj
 0003:02b6e218       ?g_FaceMacroTextureInfos@@3V?$CUtlVector@VCFaceMacroTextureInfo@@V?$CUtlMemory@VCFaceMacroTextureInfo@@H@@@@A 12bd6218     bsplib.obj
 0003:02b6e22c       ?g_DataMapHolder@dbrushside_t_DataDescInit@@3PAUdatamap_t@@A 12bd622c     bsplib.obj
 0003:02b6e230       ?g_DataMapHolder@doverlayfade_t_DataDescInit@@3PAUdatamap_t@@A 12bd6230     bsplib.obj
 0003:02b6e234       ?g_DataMapHolder@texinfo_t_DataDescInit@@3PAUdatamap_t@@A 12bd6234     bsplib.obj
 0003:02b6e238       ?g_DataMapHolder@StaticPropLeafLump_t_DataDescInit@@3PAUdatamap_t@@A 12bd6238     bsplib.obj
 0003:02b6e23c       ?dfaceids@@3V?$CUtlVector@Udfaceid_t@@V?$CUtlMemory@Udfaceid_t@@H@@@@A 12bd623c     bsplib.obj
 0003:02b6e250       ?dworldlightsLDR@@3PAUdworldlight_t@@A 12bd6250     bsplib.obj
 0003:02c1e250       ?g_DataMapHolder@dprimitive_t_DataDescInit@@3PAUdatamap_t@@A 12c86250     bsplib.obj
 0003:02c1e254       ?g_DataMapHolder@dplane_t_DataDescInit@@3PAUdatamap_t@@A 12c86254     bsplib.obj
 0003:02c1e258       ?g_LeafAmbientIndexLDR@@3V?$CUtlVector@Udleafambientindex_t@@V?$CUtlMemory@Udleafambientindex_t@@H@@@@A 12c86258     bsplib.obj
 0003:02c1e26c       ?g_DispTris@@3V?$CUtlVector@VCDispTri@@V?$CUtlMemory@VCDispTri@@H@@@@A 12c8626c     bsplib.obj
 0003:02c1e280       ?g_WaterOverlays@@3PAUdwateroverlay_t@@A 12c86280     bsplib.obj
 0003:03d9e280       ?dmodels@@3PAUdmodel_t@@A  13e06280     bsplib.obj
 0003:03daa280       ?g_Swap@@3VCByteswap@@A    13e12280     bsplib.obj
 0003:03daa284       ?g_DataMapHolder@dface_t_DataDescInit@@3PAUdatamap_t@@A 13e12284     bsplib.obj
 0003:03daa288       ?dlightdataHDR@@3V?$CUtlVector@EV?$CUtlMemory@EH@@@@A 13e12288     bsplib.obj
 0003:03daa29c       ?g_DataMapHolder@doccluderdata_t_DataDescInit@@3PAUdatamap_t@@A 13e1229c     bsplib.obj
 0003:03daa2a0       ?dvertexes@@3PAUdvertex_t@@A 13e122a0     bsplib.obj
 0003:03e6a9a0       ?ex_argv@@3PAPADA          13ed29a0     cmdlib.obj
 0003:03e6b9a0       ?g_SpewCS@@3U_RTL_CRITICAL_SECTION@@A 13ed39a0     cmdlib.obj
 0003:03e6b9b8       ?com_token@@3PADA          13ed39b8     cmdlib.obj
 0003:03e6bdb8       ?archivedir@@3PADA         13ed3db8     cmdlib.obj
 0003:03e6c1b8       ?myargc@@3HA               13ed41b8     cmdlib.obj
 0003:03e6c1bc       ?ex_argc@@3HA              13ed41bc     cmdlib.obj
 0003:03e6cbe8       ?myargv@@3PAPADA           13ed4be8     cmdlib.obj
 0003:03e6cbec       ?archive@@3HA              13ed4bec     cmdlib.obj
 0003:03e6cbf0       ?g_pLogFile@@3PAXA         13ed4bf0     cmdlib.obj
 0003:03e6cbf4       ?g_bStopOnExit@@3_NA       13ed4bf4     cmdlib.obj
 0003:03e6cbf5       ?g_bSpewCSInitted@@3_NA    13ed4bf5     cmdlib.obj
 0003:03e6cbf6       ?g_bSuppressPrintfOutput@@3_NA 13ed4bf6     cmdlib.obj
 0003:03e6cbf8       ?g_ExtraSpewHook@@3P6AXPBD@ZA 13ed4bf8     cmdlib.obj
 0003:03e6cbfc       ?verbose@@3HA              13ed4bfc     cmdlib.obj
 0003:03e6cc0c       ?g_ExitStopper@@3VCExitStopper@@A 13ed4c0c     cmdlib.obj
 0003:03e6d248       ?c_portalskip@@3HA         13ed5248     flow.obj
 0003:03e6d24c       ?c_nochop@@3HA             13ed524c     flow.obj
 0003:03e6d250       ?c_fullskip@@3HA           13ed5250     flow.obj
 0003:03e6d254       ?c_mighttest@@3HA          13ed5254     flow.obj
 0003:03e6d258       ?c_vis@@3HA                13ed5258     flow.obj
 0003:03e6d25c       ?active@@3HA               13ed525c     flow.obj
 0003:03e6d260       ?c_vistest@@3HA            13ed5260     flow.obj
 0003:03e6d264       ?c_flood@@3HA              13ed5264     flow.obj
 0003:03e6d268       ?c_leafskip@@3HA           13ed5268     flow.obj
 0003:03e6d26c       ?c_chop@@3HA               13ed526c     flow.obj
 0003:03e6d278       ?g_PortalTrace@@3VCPortalTrace@@A 13ed5278     flow.obj
 0003:03e6d2a8       ?g_BSPFilename@@3PADA      13ed52a8     mpi_stats.obj
 0003:03e6d3a8       ?g_StatsStartTime@@3KA     13ed53a8     mpi_stats.obj
 0003:03e6d3ac       ?g_nWorkersConnected@@3HA  13ed53ac     mpi_stats.obj
 0003:03e6d3b0       ?g_nWorkersDisconnected@@3HA 13ed53b0     mpi_stats.obj
 0003:03e6d3b4       ?g_pDB@@3PAVCMySqlDatabase@@A 13ed53b4     mpi_stats.obj
 0003:03e6d3b8       ?g_pSQL@@3PAVIMySQL@@A     13ed53b8     mpi_stats.obj
 0003:03e6d3bc       ?g_hMySQLDLL@@3PAVCSysModule@@A 13ed53bc     mpi_stats.obj
 0003:03e6d3c0       ?g_bMaster@@3_NA           13ed53c0     mpi_stats.obj
 0003:03e6d3c4       ?g_JobPrimaryID@@3KA       13ed53c4     mpi_stats.obj
 0003:03e6d3c8       ?g_JobWorkerID@@3KA        13ed53c8     mpi_stats.obj
 0003:03e6d3cc       ?g_MachineName@@3PADA      13ed53cc     mpi_stats.obj
 0003:03e6d3dc       ?g_CurrentMessageIndex@@3KA 13ed53dc     mpi_stats.obj
 0003:03e6d3e0       ?g_hPerfThread@@3PAXA      13ed53e0     mpi_stats.obj
 0003:03e6d3e4       ?g_hPerfThreadExitEvent@@3PAXA 13ed53e4     mpi_stats.obj
 0003:03e6d3f0       ?g_SpewTextCS@@3VCCriticalSection@@A 13ed53f0     mpi_stats.obj
 0003:03e6d448       ?g_bBasePortalVisSync@@3_NA 13ed5448     mpivis.obj
 0003:03e6d449       ?g_bPortalFlowSync@@3_NA   13ed5449     mpivis.obj
 0003:03e6d44a       ?g_bGotMCAddr@@3_NA        13ed544a     mpivis.obj
 0003:03e6d44c       ?g_pPortalMCSocket@@3PAVISocket@@A 13ed544c     mpivis.obj
 0003:03e6d450       ?g_hMCThread@@3PAXA        13ed5450     mpivis.obj
 0003:03e6d454       ?g_PortalMCThreadUniqueID@@3KA 13ed5454     mpivis.obj
 0003:03e6d458       ?g_nMulticastPortalsReceived@@3HA 13ed5458     mpivis.obj
 0003:03e6d464       ?g_BasePortalVisResultsFilename@@3V?$CUtlVector@DV?$CUtlMemory@DH@@@@A 13ed5464     mpivis.obj
 0003:03e6d478       ?g_MCThreadExitEvent@@3VCEvent@@A 13ed5478     mpivis.obj
 0003:03e6d47c       ?g_VVISDispatchReg@@3VCDispatchReg@@A 13ed547c     mpivis.obj
 0003:03e6d47d       ?g_DistributeWorkReg@@3VCDispatchReg@@A 13ed547d     mpivis.obj
 0003:03e6d480       ?g_PortalMCAddr@@3VCIPAddr@@A 13ed5480     mpivis.obj
 0003:03e6d488       ?g_CPUTime@@3VCCycleCount@@A 13ed5488     mpivis.obj
 0003:03e6d4c0       ?macrolist@@3PAPAUscript_t@@A 13ed54c0     scriplib.obj
 0003:03e6d5c0       ?script@@3PAUscript_t@@A   13ed55c0     scriplib.obj
 0003:03e6d5c4       ?nummacros@@3HA            13ed55c4     scriplib.obj
 0003:03e6d5c8       ?scriptstack@@3PAUscript_t@@A 13ed55c8     scriplib.obj
 0003:03e83708       ?token@@3PADA              13eeb708     scriplib.obj
 0003:03e83b08       ?scriptline@@3HA           13eebb08     scriplib.obj
 0003:03e83b0c       ?endofscript@@3HA          13eebb0c     scriplib.obj
 0003:03e83b10       ?tokenready@@3HA           13eebb10     scriplib.obj
 0003:03e83b1c       ?g_definevariable@@3V?$CUtlVector@Uvariable_t@@V?$CUtlMemory@Uvariable_t@@H@@@@A 13eebb1c     scriplib.obj
 0003:03e83b30       ?pacifier@@3HA             13eebb30     threads.obj
 0003:03e83b34       ?crit@@3U_RTL_CRITICAL_SECTION@@A 13eebb34     threads.obj
 0003:03e83b4c       ?workcount@@3HA            13eebb4c     threads.obj
 0003:03e83b50       ?g_RunThreadsData@@3PAVCRunThreadsData@@A 13eebb50     threads.obj
 0003:03e83c10       ?workfunction@@3P6AXHH@ZA  13eebc10     threads.obj
 0003:03e83c14       ?dispatch@@3HA             13eebc14     threads.obj
 0003:03e83c18       ?g_ThreadHandles@@3PAPAXA  13eebc18     threads.obj
 0003:03e83c58       ?threaded@@3HA             13eebc58     threads.obj
 0003:03e83c60       ?g_bLowPriorityThreads@@3_NA 13eebc60     threads.obj
 0003:03e83c6c       ?g_CritInit@@3VCCritInit@@A 13eebc6c     threads.obj
 0003:03e83e0c       ?g_SharedDispatchReg@@3VCDispatchReg@@A 13eebe0c     vmpi_tools_shared.obj
 0003:03e83e18       ?c_portalpass@@3HA         13eebe18     vvis.obj
 0003:03e83e1c       ?inbase@@3PADA             13eebe1c     vvis.obj
 0003:03e83e3c       ?c_portaltest@@3HA         13eebe3c     vvis.obj
 0003:03e83e40       ?g_numportals@@3HA         13eebe40     vvis.obj
 0003:03e83e44       ?leafbytes@@3HA            13eebe44     vvis.obj
 0003:03e83e48       ?portalbytes@@3HA          13eebe48     vvis.obj
 0003:03e83e4c       ?uncompressedvis@@3PAEA    13eebe4c     vvis.obj
 0003:03e83e50       ?totalvis@@3HA             13eebe50     vvis.obj
 0003:03e83e54       ?portalclusters@@3HA       13eebe54     vvis.obj
 0003:03e83e58       ?vismap@@3PAEA             13eebe58     vvis.obj
 0003:03e83e5c       ?leaflongs@@3HA            13eebe5c     vvis.obj
 0003:03e83e60       ?leafs@@3PAUleaf_t@@A      13eebe60     vvis.obj
 0003:03e83e64       ?portallongs@@3HA          13eebe64     vvis.obj
 0003:03e83e68       ?c_portalcheck@@3HA        13eebe68     vvis.obj
 0003:03e83e6c       ?fastvis@@3_NA             13eebe6c     vvis.obj
 0003:03e83e6d       ?nosort@@3_NA              13eebe6d     vvis.obj
 0003:03e83e70       ?vismap_end@@3PAEA         13eebe70     vvis.obj
 0003:03e83e74       ?portals@@3PAUportal_t@@A  13eebe74     vvis.obj
 0003:03e83e78       ?originalvismapsize@@3HA   13eebe78     vvis.obj
 0003:03e83e7c       ?vismap_p@@3PAEA           13eebe7c     vvis.obj
 0003:03e83e80       ?sorted_portals@@3PAPAUportal_t@@A 13eebe80     vvis.obj
 0003:03f03e80       ?g_bUseRadius@@3_NA        13f6be80     vvis.obj
 0003:03f03e81       ?g_bLowPriority@@3_NA      13f6be81     vvis.obj
 0003:03f03ea0       ?s_Sentinel@?1??Links@?$CUtlRBTree@VCZipEntry@CZipFile@@HP6A_NABV12@0@ZV?$CUtlMemory@U?$UtlRBTreeNode_t@VCZipEntry@CZipFile@@H@@H@@@@IBEABU?$UtlRBTreeLinks_t@H@@H@Z@4U3@A 13f6bea0     zip_utils.obj
 0003:03f03eb0       ??_B?1??Links@?$CUtlRBTree@VCZipEntry@CZipFile@@HP6A_NABV12@0@ZV?$CUtlMemory@U?$UtlRBTreeNode_t@VCZipEntry@CZipFile@@H@@H@@@@IBEABU?$UtlRBTreeLinks_t@H@@H@Z@51 13f6beb0     zip_utils.obj
 0003:03f03f5c       ?g_DataMapHolder@ZIP_PreloadDirectoryEntry_DataDescInit@@3PAUdatamap_t@@A 13f6bf5c     zip_utils.obj
 0003:03f03f60       ?g_DataMapHolder@ZIP_PreloadHeader_DataDescInit@@3PAUdatamap_t@@A 13f6bf60     zip_utils.obj
 0003:03f03f64       ?g_DataMapHolder@ZIP_FileHeader_DataDescInit@@3PAUdatamap_t@@A 13f6bf64     zip_utils.obj
 0003:03f03f68       ?g_DataMapHolder@ZIP_LocalFileHeader_DataDescInit@@3PAUdatamap_t@@A 13f6bf68     zip_utils.obj
 0003:03f03f6c       ?g_DataMapHolder@ZIP_EndOfCentralDirRecord_DataDescInit@@3PAUdatamap_t@@A 13f6bf6c     zip_utils.obj
 0003:03f03f70       ?SinCosTable@@3PAMA        13f6bf70     mathlib:mathlib_base.obj
 0003:03f04370       ?s_bMathlibInitialized@@3_NA 13f6c370     mathlib:mathlib_base.obj
 0003:03f04380       ?vec3_origin@@3VVector@@B  13f6c380     mathlib:mathlib_base.obj
 0003:03f0438c       ?vec3_angle@@3VQAngle@@B   13f6c38c     mathlib:mathlib_base.obj
 0003:03f047a0       ?lineartolightmap@@3PAEA   13f6c7a0     mathlib:color_conversion.obj
 0003:03f07fa0       ?lineartovertex@@3PAMA     13f6ffa0     mathlib:color_conversion.obj
 0003:03f0c0c8       ?s_StringCharConversion@@3VCUtlCStringConversion@@A 13f740c8     tier1:utlbuffer.obj
 0003:03f0cad8       ?s_NoEscConversion@@3VCUtlNoEscConversion@@A 13f74ad8     tier1:utlbuffer.obj
 0003:03f0d3f0       ?s_pInterfaceRegs@InterfaceReg@@2PAV1@A 13f753f0     tier1:interface.obj
 0003:03f0d800       ?s_pSymbolTable@CUtlSymbol@@1PAVCUtlSymbolTableMT@@A 13f75800     tier1:utlsymbol.obj
 0003:03f0d810       ?s_Sentinel@?1??Links@?$CUtlRBTree@VCStringPoolIndex@CUtlSymbolTable@@GVCLess@2@V?$CUtlMemory@U?$UtlRBTreeNode_t@VCStringPoolIndex@CUtlSymbolTable@@G@@G@@@@IBEABU?$UtlRBTreeLinks_t@G@@G@Z@4U3@A 13f75810     tier1:utlsymbol.obj
 0003:03f0d818       ??_B?1??Links@?$CUtlRBTree@VCStringPoolIndex@CUtlSymbolTable@@GVCLess@2@V?$CUtlMemory@U?$UtlRBTreeNode_t@VCStringPoolIndex@CUtlSymbolTable@@G@@G@@@@IBEABU?$UtlRBTreeLinks_t@G@@G@Z@51 13f75818     tier1:utlsymbol.obj
 0003:03f0d828       ?g_pFullFileSystem@@3PAVIFileSystem@@A 13f75828     tier2:tier2.obj
 0003:03f0d82c       ?materials@@3PAVIMaterialSystem@@A 13f7582c     tier2:tier2.obj
 0003:03f0d830       ?g_pMaterialSystem@@3PAVIMaterialSystem@@A 13f75830     tier2:tier2.obj
 0003:03f0d834       ?g_pInputSystem@@3PAVIInputSystem@@A 13f75834     tier2:tier2.obj
 0003:03f0d838       ?g_pNetworkSystem@@3PAVINetworkSystem@@A 13f75838     tier2:tier2.obj
 0003:03f0d83c       ?g_pMaterialSystemHardwareConfig@@3PAVIMaterialSystemHardwareConfig@@A 13f7583c     tier2:tier2.obj
 0003:03f0d840       ?g_pMaterialSystemDebugTextureInfo@@3PAVIDebugTextureInfo@@A 13f75840     tier2:tier2.obj
 0003:03f0d844       ?g_VBAllocTracker@@3PAVIVBAllocTracker@@A 13f75844     tier2:tier2.obj
 0003:03f0d848       ?colorcorrection@@3PAVIColorCorrectionSystem@@A 13f75848     tier2:tier2.obj
 0003:03f0d84c       ?p4@@3PAVIP4@@A            13f7584c     tier2:tier2.obj
 0003:03f0d850       ?mdllib@@3PAVIMdlLib@@A    13f75850     tier2:tier2.obj
 0003:03f0d854       ?g_pQueuedLoader@@3PAVIQueuedLoader@@A 13f75854     tier2:tier2.obj
 0003:03f0d870       ?qdir@@3PADA               13f75870     vmpi:filesystem_tools.obj
 0003:03f0dc70       ?gamedir@@3PADA            13f75c70     vmpi:filesystem_tools.obj
 0003:03f0e070       ?g_pFileSystem@@3PAVIBaseFileSystem@@A 13f76070     vmpi:filesystem_tools.obj
 0003:03f0e074       ?g_pFullFileSystemModule@@3PAVCSysModule@@A 13f76074     vmpi:filesystem_tools.obj
 0003:03f0e080       ?g_VMPIDispatch@@3PAP6A_NPAVMessageBuffer@@HH@ZA 13f76080     vmpi:vmpi.obj
 0003:03f0e100       ?g_MasterExeName@@3PADA    13f76100     vmpi:vmpi.obj
 0003:03f0e208       ?g_Connections@@3PAPAVCVMPIConnection@@A 13f76208     vmpi:vmpi.obj
 0003:03f0ea08       ?g_bTimingWaitDone@@3_NA   13f76a08     vmpi:vmpi.obj
 0003:03f0ea09       ?g_bGroupPackets@@3_NA     13f76a09     vmpi:vmpi.obj
 0003:03f0ea0a       ?g_bVMPISDKMode@@3_NA      13f76a0a     vmpi:vmpi.obj
 0003:03f0ea0b       ?g_bVMPISDKModeSet@@3_NA   13f76a0b     vmpi:vmpi.obj
 0003:03f0ea0c       ?g_nConnections@@3HA       13f76a0c     vmpi:vmpi.obj
 0003:03f0ea10       ?g_VMPIRunMode@@3W4VMPIRunMode@@A 13f76a10     vmpi:vmpi.obj
 0003:03f0ea18       ?g_nBytesSent@@3HA         13f76a18     vmpi:vmpi.obj
 0003:03f0ea1c       ?g_nMessagesSent@@3HA      13f76a1c     vmpi:vmpi.obj
 0003:03f0ea20       ?g_nBytesReceived@@3HA     13f76a20     vmpi:vmpi.obj
 0003:03f0ea24       ?g_nMessagesReceived@@3HA  13f76a24     vmpi:vmpi.obj
 0003:03f0ea28       ?g_nMulticastBytesSent@@3HA 13f76a28     vmpi:vmpi.obj
 0003:03f0ea2c       ?g_nMulticastBytesReceived@@3HA 13f76a2c     vmpi:vmpi.obj
 0003:03f0ea30       ?g_bUseMPI@@3_NA           13f76a30     vmpi:vmpi.obj
 0003:03f0ea31       ?g_bMPIMaster@@3_NA        13f76a31     vmpi:vmpi.obj
 0003:03f0ea32       ?g_bMPI_Stats@@3_NA        13f76a32     vmpi:vmpi.obj
 0003:03f0ea33       ?g_bMPI_StatsTextOutput@@3_NA 13f76a33     vmpi:vmpi.obj
 0003:03f0ea34       ?g_iVMPIVerboseLevel@@3HA  13f76a34     vmpi:vmpi.obj
 0003:03f0ea38       ?g_CurrentStageString@@3PADA 13f76a38     vmpi:vmpi.obj
 0003:03f0eab8       ?g_bReceivedMasterExeName@@3_NA 13f76ab8     vmpi:vmpi.obj
 0003:03f0eab9       ?g_bReceivedWorkerCommandLine@@3_NA 13f76ab9     vmpi:vmpi.obj
 0003:03f0eabc       ?g_hKernel32DLL@@3PAUHINSTANCE__@@A 13f76abc     vmpi:vmpi.obj
 0003:03f0eac0       ?g_pConsoleWndFn@@3P6APAUHWND__@@XZA 13f76ac0     vmpi:vmpi.obj
 0003:03f0eacc       ?g_VMPIMessagesEvent@@3VCEvent@@A 13f76acc     vmpi:vmpi.obj
 0003:03f0ead0       ?g_ConnectionsCS@@3VCCriticalSection@@A 13f76ad0     vmpi:vmpi.obj
 0003:03f0eb24       ?g_ErrorSocketsEvent@@3VCEvent@@A 13f76b24     vmpi:vmpi.obj
 0003:03f0eb28       ?g_DispatchBuffers@@3V?$CTSList@PAVMessageBuffer@@@@A 13f76b28     vmpi:vmpi.obj
 0003:03f0eb30       ?g_VMPIMessagesCS@@3VCCriticalSection@@A 13f76b30     vmpi:vmpi.obj
 0003:03f0eb84       ?g_WorkerCommandLine@@3V?$CUtlVector@PADV?$CUtlMemory@PADH@@@@A 13f76b84     vmpi:vmpi.obj
 0003:03f0eb98       ?g_MasterBroadcaster@@3VCMasterBroadcaster@@A 13f76b98     vmpi:vmpi.obj
 0003:03f0ee2c       ?g_VMPIInternalDispatchReg@@3VCDispatchReg@@A 13f76e2c     vmpi:vmpi.obj
 0003:03f0ee30       ?g_ErrorSocketsCS@@3VCCriticalSection@@A 13f76e30     vmpi:vmpi.obj
 0003:03f0ee88       ?g_CurrentStageCS@@3VCCriticalSection@@A 13f76e88     vmpi:vmpi.obj
 0003:03f0eee0       ?g_PersistentPacketsCS@@3VCCriticalSection@@A 13f76ee0     vmpi:vmpi.obj
 0003:03f0ef34       ?g_OriginalCommandLineParameters@@3V?$CUtlVector@PADV?$CUtlMemory@PADH@@@@A 13f76f34     vmpi:vmpi.obj
 0003:03f0ff70       ?g_pDistributeWorkCallbacks@@3PAVIWorkUnitDistributorCallbacks@@A 13f77f70     vmpi:vmpi_distribute_work.obj
 0003:03f0ff78       ?g_bVMPIEarlyExit@@3_NA    13f77f78     vmpi:vmpi_distribute_work.obj
 0003:03f100b0       ?g_bDisableFileAccess@@3_NA 13f780b0     vmpi:vmpi_filesystem.obj
 0003:03f100b4       ?g_pBaseVMPIFileSystem@@3PAVCBaseVMPIFileSystem@@A 13f780b4     vmpi:vmpi_filesystem.obj
 0003:03f100b8       ?g_pOriginalPassThruFileSystem@@3PAVIFileSystem@@A 13f780b8     vmpi:vmpi_filesystem.obj
 0003:03f100c4       ?g_DispatchReg_FileSystem@@3VCDispatchReg@@A 13f780c4     vmpi:vmpi_filesystem.obj
 0003:03f100d4       ?g_bForceWaitTimers@@3_NA  13f780d4     vmpi:iphelpers.obj
 0003:03f101f8       ?s_pMasterVMPIFileSystem@CMasterVMPIFileSystem@@0PAV1@A 13f781f8     vmpi:vmpi_filesystem_master.obj
 0003:03f10204       ?nWarnings@?O@??Thread_SendFileChunk_Multicast@CMasterMulticastThread@@AAE_NPAH@Z@4HA 13f78204     vmpi:vmpi_filesystem_master.obj
 0003:03f10244       ?g_nChanges@@3HA           13f78244     vmpi:vmpi_distribute_tracker.obj
 0003:03f10250       ?g_WUStatus@@3V?$CUtlVector@VCWUStatus@@V?$CUtlMemory@VCWUStatus@@H@@@@A 13f78250     vmpi:vmpi_distribute_tracker.obj
 0003:03f1027c       ?s_Sentinel@?1??Links@?$CUtlRBTree@UNode_t@?$CUtlMap@PAV?$CUtlLinkedList@_KH$0A@HV?$CUtlMemory@U?$UtlLinkedListElem_t@_KH@@H@@@@HG@@GVCKeyLess@2@V?$CUtlMemory@U?$UtlRBTreeNode_t@UNode_t@?$CUtlMap@PAV?$CUtlLinkedList@_KH$0A@HV?$CUtlMemory@U?$UtlLinkedListElem_t@_KH@@H@@@@HG@@G@@G@@@@IBEABU?$UtlRBTreeLinks_t@G@@G@Z@4U3@A 13f7827c     vmpi:vmpi_distribute_work_default.obj
 0003:03f10284       ??_B?1??Links@?$CUtlRBTree@UNode_t@?$CUtlMap@PAV?$CUtlLinkedList@_KH$0A@HV?$CUtlMemory@U?$UtlLinkedListElem_t@_KH@@H@@@@HG@@GVCKeyLess@2@V?$CUtlMemory@U?$UtlRBTreeNode_t@UNode_t@?$CUtlMap@PAV?$CUtlLinkedList@_KH$0A@HV?$CUtlMemory@U?$UtlLinkedListElem_t@_KH@@H@@@@HG@@G@@G@@@@IBEABU?$UtlRBTreeLinks_t@G@@G@Z@51 13f78284     vmpi:vmpi_distribute_work_default.obj
 0003:03f10290       ?g_MasterWorkUnitsTracker@@3VCWorkUnitsTracker@@A 13f78290     vmpi:vmpi_distribute_work_default.obj
 0003:03f102b8       ?bCalcShuffleCRC@?1??GetShuffleCRC@CShuffledWorkUnitWalker@@QAEKXZ@4_NA 13f782b8     vmpi:vmpi_distribute_work_sdk.obj
 0003:03f102bc       ??_B?1??GetShuffleCRC@CShuffledWorkUnitWalker@@QAEKXZ@51 13f782bc     vmpi:vmpi_distribute_work_sdk.obj
 0003:03f102cc       ?g_RequestID@@3HA          13f782cc     vmpi:vmpi_filesystem_worker.obj
 0003:03f102d8       ?g_FileResponsesCS@@3VCCriticalSection@@A 13f782d8     vmpi:vmpi_filesystem_worker.obj
 0003:03f1032c       ?g_FileResponses@@3V?$CUtlVector@VCFileResponse@@V?$CUtlMemory@VCFileResponse@@H@@@@A 13f7832c     vmpi:vmpi_filesystem_worker.obj
 0003:03f10348       ??_C@_00A@?$AA@            13f78348     vmpi:zutil.obj
 0003:03f10350       ?g_BitWriteMasks@@3PAY0CB@KA 13f78350     tier1:bitbuf.obj
 0003:03f113d0       ?g_ExtraMasks@@3PAKA       13f793d0     tier1:bitbuf.obj
 0003:03f1145c       ?g_BitWriteMasksInit@@3VCBitWriteMasksInit@@A 13f7945c     tier1:bitbuf.obj
 0003:03f11468       ___fastflag                13f79468     LIBCMT:_fpinit_.obj
 0003:03f1147c       __cflush                   13f7947c     LIBCMT:_file.obj
 0003:03f11480       ?_pnhHeap@@3P6AHI@ZA       13f79480     LIBCMT:handler.obj
 0003:03f11488       __umaskval                 13f79488     LIBCMT:crt0dat.obj
 0003:03f1148c       ___argc                    13f7948c     LIBCMT:crt0dat.obj
 0003:03f11490       ___argv                    13f79490     LIBCMT:crt0dat.obj
 0003:03f11494       ___wargv                   13f79494     LIBCMT:crt0dat.obj
 0003:03f11498       __environ                  13f79498     LIBCMT:crt0dat.obj
 0003:03f1149c       ___initenv                 13f7949c     LIBCMT:crt0dat.obj
 0003:03f114a0       __wenviron                 13f794a0     LIBCMT:crt0dat.obj
 0003:03f114a4       ___winitenv                13f794a4     LIBCMT:crt0dat.obj
 0003:03f114a8       __pgmptr                   13f794a8     LIBCMT:crt0dat.obj
 0003:03f114ac       __wpgmptr                  13f794ac     LIBCMT:crt0dat.obj
 0003:03f114b0       __exitflag                 13f794b0     LIBCMT:crt0dat.obj
 0003:03f114b4       __C_Termination_Done       13f794b4     LIBCMT:crt0dat.obj
 0003:03f114b8       __C_Exit_Done              13f794b8     LIBCMT:crt0dat.obj
 0003:03f114f8       __aenvptr                  13f794f8     LIBCMT:dllcrt0.obj
 0003:03f114fc       __wenvptr                  13f794fc     LIBCMT:dllcrt0.obj
 0003:03f11500       ___error_mode              13f79500     LIBCMT:dllcrt0.obj
 0003:03f11504       ___app_type                13f79504     LIBCMT:dllcrt0.obj
 0003:03f1150c       __crtheap                  13f7950c     LIBCMT:heapinit.obj
 0003:03f11b38       __newmode                  13f79b38     LIBCMT:_newmode.obj
 0003:03f11b40       ___mbulinfo                13f79b40     LIBCMT:mbctype.obj
 0003:03f11b4c       ___mbcodepage              13f79b4c     LIBCMT:mbctype.obj
 0003:03f11b50       ___ismbcodepage            13f79b50     LIBCMT:mbctype.obj
 0003:03f11b54       ___mblcid                  13f79b54     LIBCMT:mbctype.obj
 0003:03f11b58       _gpFlsAlloc                13f79b58     LIBCMT:tidtable.obj
 0003:03f11b5c       _gpFlsGetValue             13f79b5c     LIBCMT:tidtable.obj
 0003:03f11b60       _gpFlsSetValue             13f79b60     LIBCMT:tidtable.obj
 0003:03f11b64       _gpFlsFree                 13f79b64     LIBCMT:tidtable.obj
 0003:03f11b68       ___pInvalidArgHandler      13f79b68     LIBCMT:invarg.obj
 0003:03f11b74       ___pPurecall               13f79b74     LIBCMT:inithelp.obj
 0003:03f11b78       __stdbuf                   13f79b78     LIBCMT:_sftbuf.obj
 0003:03f11b80       __maxwait                  13f79b80     LIBCMT:crtheap.obj
 0003:03f11cd8       ?__pInconsistency@@3P6AXXZA 13f79cd8     LIBCMT:hooks.obj
 0003:03f11cf4       ___locale_changed          13f79cf4     LIBCMT:setlocal.obj
 0003:03f11cf8       __old_pfxlen               13f79cf8     LIBCMT:rmtmp.obj
 0003:03f11db8       __commode                  13f79db8     LIBCMT:ncommode.obj
 0003:03f11ec8       __outputformat             13f79ec8     LIBCMT:outputformat.obj
 0003:03f11ee0       ___lconv_static_null       13f79ee0     LIBCMT:lconv.obj
 0003:03f11ee4       ___lconv_static_W_null     13f79ee4     LIBCMT:lconv.obj
 0003:03f12220       ?pArgList@UnDecorator@@0PAVReplicator@@A 13f7a220     LIBCMT:undname.obj
 0003:03f12224       ?pZNameList@UnDecorator@@0PAVReplicator@@A 13f7a224     LIBCMT:undname.obj
 0003:03f12228       ?pTemplateArgList@UnDecorator@@0PAVReplicator@@A 13f7a228     LIBCMT:undname.obj
 0003:03f1222c       ?gName@UnDecorator@@0PBDB  13f7a22c     LIBCMT:undname.obj
 0003:03f12230       ?name@UnDecorator@@0PBDB   13f7a230     LIBCMT:undname.obj
 0003:03f12234       ?outputString@UnDecorator@@0PADA 13f7a234     LIBCMT:undname.obj
 0003:03f12238       ?maxStringLength@UnDecorator@@0HA 13f7a238     LIBCMT:undname.obj
 0003:03f1223c       ?disableFlags@UnDecorator@@0KA 13f7a23c     LIBCMT:undname.obj
 0003:03f12240       ?m_pGetParameter@UnDecorator@@0P6APADJ@ZA 13f7a240     LIBCMT:undname.obj
 0003:03f12244       ?fExplicitTemplateParams@UnDecorator@@0_NA 13f7a244     LIBCMT:undname.obj
 0003:03f12245       ?fGetTemplateArgumentList@UnDecorator@@0_NA 13f7a245     LIBCMT:undname.obj
 0003:03f12248       __fmode                    13f7a248     LIBCMT:txtmode.obj
 0003:03f1224c       __debugger_hook_dummy      13f7a24c     <common>
 0003:03f12250       __nhandle                  13f7a250     <common>
 0003:03f12260       ___pioinfo                 13f7a260     <common>
 0003:03f12360       __pDestructExceptionObject 13f7a360     <common>
 0003:03f12364       ___sse2_available          13f7a364     <common>
 0003:03f12368       ___use_sse2_mathfcns       13f7a368     <common>
 0003:03f1236c       __pmatherr                 13f7a36c     <common>
 0003:03f12370       __acmdln                   13f7a370     <common>
 0003:03f12374       ___env_initialized         13f7a374     <common>
 0003:03f12378       ___onexitend               13f7a378     <common>
 0003:03f1237c       ___onexitbegin             13f7a37c     <common>
 0003:03f12380       ___mbctype_initialized     13f7a380     <common>
 0003:03f12384       ___dyn_tls_init_callback   13f7a384     <common>
 0003:03f12388       ___piob                    13f7a388     <common>
 0003:03f123a0       __bufin                    13f7a3a0     <common>
 0003:03f133a0       __nstream                  13f7b3a0     <common>

 entry point at        0001:0003c053

 Static symbols

 0001:000013d0       ?AlignFilePosition@@YAIPAXH@Z 100023d0 f   bsplib.obj
 0001:00001460       ?AddLumpInternal@@YAXHPAXHH@Z 10002460 f   bsplib.obj
 0001:00002b80       ?SwapPhyscollideLump@@YAXPAE0AAI@Z 10003b80 f   bsplib.obj
 0001:00002ff0       ?SwapPhysdispLump@@YAXPAE0H@Z 10003ff0 f   bsplib.obj
 0001:00003070       ?SwapVisibilityLump@@YAXPAE0H@Z 10004070 f   bsplib.obj
 0001:000043b0       ?AddGameLumps@@YAXXZ       100053b0 f   bsplib.obj
 0001:00004650       ?AddOcclusionLump@@YAXXZ   10005650 f   bsplib.obj
 0001:00004930       ?WritePakFileLump@@YAXXZ   10005930 f   bsplib.obj
 0001:00006e00       ?UnserializeOcclusionLumpV2@@YAXAAVCUtlBuffer@@@Z 10007e00 f   bsplib.obj
 0001:00006f10       ?LoadOcclusionLump@@YAXXZ  10007f10 f   bsplib.obj
 0001:00008d00       ?GetInitialColors@@YAXXZ   10009d00 f   cmdlib.obj
 0001:0000b770       ?AddArguments@@YAXAAHAAPAPADPBD@Z 1000c770 f   loadcmdline.obj
 0001:0000bbe0       ?ReadStringFromFile@@YA_NPAU_iobuf@@PADH@Z 1000cbe0 f   mpi_stats.obj
 0001:0000e200       ?staticThreadFunc@@YGKPAX@Z 1000f200 f   MySqlDatabase.obj
 0001:00012520       ?ToolsExceptionFilter@@YGJPAU_EXCEPTION_POINTERS@@@Z 10013520 f   tools_minidump.obj
 0001:00012550       ?ToolsExceptionFilter_Custom@@YGJPAU_EXCEPTION_POINTERS@@@Z 10013550 f   tools_minidump.obj
 0001:00012f80       ?CompressAndCrosscheckClusterVis@@YAHH@Z 10013f80 f   vvis.obj
 0001:00013430       ?GetBoundsForFace@@YAXHAAVVector@@0@Z 10014430 f   vvis.obj
 0001:000134e0       ?GetMinDistanceBetweenBoundingBoxes@@YAMABVVector@@000@Z 100144e0 f   vvis.obj
 0001:000139b0       ?__CreateCVVisDLLILaunchableDLL_interface@@YAPAXXZ 100149b0 f   vvis.obj
 0001:00013c60       ?CalcDistanceFromLeafToWater@@YAMH@Z 10014c60 f   vvis.obj
 0001:00013ea0       ?CalcDistanceFromLeavesToWater@@YAXXZ 10014ea0 f   vvis.obj
 0001:00013ef0       ?CalcVisibleFogVolumes@@YAXXZ 10014ef0 f   vvis.obj
 0001:00014de0       ?CopyTextData@@YAXPADPBDHH@Z 10015de0 f   zip_utils.obj
 0001:00015970       ?ReadTextData@@YAXPBDHAAVCUtlBuffer@@@Z 10016970 f   zip_utils.obj
 0001:0001f590       ?FindConnectionBySocket@@YAPAVCVMPIConnection@@PAVIThreadedTCPSocket@@_N@Z 10020590 f   vmpi:vmpi.obj
 0001:00026270       ?IP_FloatTime@@YANXZ       10027270 f   vmpi:iphelpers.obj
 0001:000269a0       ?FileSystem_AddLoadedSearchPath@@YAXAAVCFSSearchPathsInit@@PBDPA_N11_N@Z 100279a0 f   vmpi:filesystem_init.obj
 0001:00027390       ?TryLocateGameInfoFile@@YA?AW4FSReturnCode_t@@PADH_N@Z 10028390 f   vmpi:filesystem_init.obj
 0001:00029000       ?ZLibCompress@@YA_NPBXHAAV?$CUtlVector@DV?$CUtlMemory@DH@@@@@Z 1002a000 f   vmpi:vmpi_filesystem_master.obj
 0001:0002a760       ?TCPBind@@YAIPBVCIPAddr@@@Z 1002b760 f   vmpi:ThreadedTCPSocket.obj
 0001:0002bc80       ?CheckFlashTimers@@YAXXZ   1002cc80 f   vmpi:vmpi_distribute_tracker.obj
 0001:0002bd10       ?Graphical_WorkUnitSentToWorker@@YAXH@Z 1002cd10 f   vmpi:vmpi_distribute_tracker.obj
 0001:0002bd80       ?Graphical_WorkUnitStarted@@YAXH@Z 1002cd80 f   vmpi:vmpi_distribute_tracker.obj
 0001:0002bdf0       ?Graphical_WorkUnitCompleted@@YAXH@Z 1002cdf0 f   vmpi:vmpi_distribute_tracker.obj
 0001:0002c580       ?TrackerWindowProc@@YGJPAUHWND__@@IIJ@Z 1002d580 f   vmpi:vmpi_distribute_tracker.obj
 0001:0002c790       ?ThreadProc@@YGKPAX@Z      1002d790 f   vmpi:vmpi_distribute_tracker.obj
 0001:0002c900       ?Graphical_Start@@YAXXZ    1002d900 f   vmpi:vmpi_distribute_tracker.obj
 0001:0002dc20       ?CompareSoonestWorkUnitSets@@YA_NABQAV?$CUtlLinkedList@_KH$0A@HV?$CUtlMemory@U?$UtlLinkedListElem_t@_KH@@H@@@@0@Z 1002ec20 f   vmpi:vmpi_distribute_work_default.obj
 0001:00030fe0       ?RecvMulticastIP@@YAXPAVCIPAddr@@@Z 10031fe0 f   vmpi:vmpi_filesystem_worker.obj
 0001:00031020       ?ZLibDecompress@@YA_NPBXHPAXH@Z 10032020 f   vmpi:vmpi_filesystem_worker.obj
 0001:00032770       _putShortMSB               10033770 f   vmpi:deflate.obj
 0001:000327a0       _flush_pending             100337a0 f   vmpi:deflate.obj
 0001:000328d0       _lm_init                   100338d0 f   vmpi:deflate.obj
 0001:00032970       _deflate_stored            10033970 f   vmpi:deflate.obj
 0001:00032ac0       _fill_window               10033ac0 f   vmpi:deflate.obj
 0001:00032bf0       _read_buf                  10033bf0 f   vmpi:deflate.obj
 0001:00032c70       _deflate_fast              10033c70 f   vmpi:deflate.obj
 0001:00032fb0       _longest_match             10033fb0 f   vmpi:deflate.obj
 0001:00033120       _deflate_slow              10034120 f   vmpi:deflate.obj
 0001:00033d20       _tr_static_init            10034d20 f   vmpi:trees.obj
 0001:00033d30       _init_block                10034d30 f   vmpi:trees.obj
 0001:00034240       _build_tree                10035240 f   vmpi:trees.obj
 0001:00034460       _pqdownheap                10035460 f   vmpi:trees.obj
 0001:00034540       _gen_bitlen                10035540 f   vmpi:trees.obj
 0001:00034750       _gen_codes                 10035750 f   vmpi:trees.obj
 0001:000347d0       _build_bl_tree             100357d0 f   vmpi:trees.obj
 0001:00034840       _scan_tree                 10035840 f   vmpi:trees.obj
 0001:00034930       _send_all_trees            10035930 f   vmpi:trees.obj
 0001:00034b80       _send_tree                 10035b80 f   vmpi:trees.obj
 0001:000350a0       _compress_block            100360a0 f   vmpi:trees.obj
 0001:000354b0       _set_data_type             100364b0 f   vmpi:trees.obj
 0001:00035530       _bi_reverse                10036530 f   vmpi:trees.obj
 0001:00035550       _bi_flush                  10036550 f   vmpi:trees.obj
 0001:000355e0       _bi_windup                 100365e0 f   vmpi:trees.obj
 0001:00035660       _copy_block                10036660 f   vmpi:trees.obj
 0001:00036cc0       _huft_build                10037cc0 f   vmpi:inftrees.obj
 0001:000387a1       _vscan_fn                  100397a1 f   LIBCMT:sscanf.obj
 0001:00038a50       _shortsort                 10039a50 f   LIBCMT:qsort.obj
 0001:0003971e       __onexit_nolock            1003a71e f   LIBCMT:onexit.obj
 0001:00039a36       _IsRootUNCName             1003aa36 f   LIBCMT:stati32.obj
 0001:00039ab0       __fullpath_helper          1003aab0 f   LIBCMT:stati32.obj
 0001:0003a733       _doexit                    1003b733 f   LIBCMT:crt0dat.obj
 0001:0003b95b       _init_namebuf              1003c95b f   LIBCMT:tmpfile.obj
 0001:0003ba05       _genfname                  1003ca05 f   LIBCMT:tmpfile.obj
 0001:0003bf5d       ___DllMainCRTStartup       1003cf5d f   LIBCMT:dllcrt0.obj
 0001:0003cc9c       ?strtoxl@@YAKPAUlocaleinfo_struct@@PBDPAPBDHH@Z 1003dc9c f   LIBCMT:strtol.obj
 0001:0003d1cd       __putenv_helper            1003e1cd f   LIBCMT:putenv.obj
 0001:0003db47       __shift                    1003eb47 f   LIBCMT:cvt.obj
 0001:0003db8c       __cftoe2_l                 1003eb8c f   LIBCMT:cvt.obj
 0001:0003e14a       __cftof2_l                 1003f14a f   LIBCMT:cvt.obj
 0001:0003e9d6       ?CPtoLCID@@YAHH@Z          1003f9d6 f   LIBCMT:mbctype.obj
 0001:0003ea05       ?setSBCS@@YAXPAUthreadmbcinfostruct@@@Z 1003fa05 f   LIBCMT:mbctype.obj
 0001:0003ea69       ?setSBUpLow@@YAXPAUthreadmbcinfostruct@@@Z 1003fa69 f   LIBCMT:mbctype.obj
 0001:0003ec9d       ?getSystemCP@@YAHH@Z       1003fc9d f   LIBCMT:mbctype.obj
 0001:0004034b       ___check_float_string      1004134b f   LIBCMT:input.obj
 0001:000403a2       __hextodec                 100413a2 f   LIBCMT:input.obj
 0001:000403c2       __inc                      100413c2 f   LIBCMT:input.obj
 0001:000403d8       __whiteout                 100413d8 f   LIBCMT:input.obj
 0001:00041932       _flsall                    10042932 f   LIBCMT:fflush.obj
 0001:00042614       _write_char                10043614 f   LIBCMT:output.obj
 0001:00042647       _write_string              10043647 f   LIBCMT:output.obj
 0001:00043cb0       __unwind_handler4          10044cb0 f   LIBCMT:exsup4.obj
 0001:00044c38       __tsopen_nolock            10045c38 f   LIBCMT:open.obj
 0001:000459e1       _siglookup                 100469e1 f   LIBCMT:winsig.obj
 0001:00045d9c       ?__crtLCMapStringA_stat@@YAHPAUlocaleinfo_struct@@KKPBDHPADHHH@Z 10046d9c f   LIBCMT:a_map.obj
 0001:000460d5       _xtoa_s@20                 100470d5 f   LIBCMT:xtoas.obj
 0001:0004652c       __tzset_nolock             1004752c f   LIBCMT:tzset.obj
 0001:0004683f       _cvtdate                   1004783f f   LIBCMT:tzset.obj
 0001:00046a36       __isindst_nolock           10047a36 f   LIBCMT:tzset.obj
 0001:000470e0       _parse_cmdline             100480e0 f   LIBCMT:stdargv.obj
 0001:000496b0       ?wcstoxl@@YAKPB_WPAPB_WHH@Z 1004a6b0 f   LIBCMT:wcstol.obj
 0001:000498e1       _wfindenv                  1004a8e1 f   LIBCMT:wsetenv.obj
 0001:00049936       _copy_environ              1004a936 f   LIBCMT:wsetenv.obj
 0001:00049c31       _findenv                   1004ac31 f   LIBCMT:setenv.obj
 0001:00049c83       _copy_environ              1004ac83 f   LIBCMT:setenv.obj
 0001:00049fec       _comexecmd                 1004afec f   LIBCMT:spawnve.obj
 0001:0004b457       ?__crtGetStringTypeA_stat@@YAHPAUlocaleinfo_struct@@KPBDHPAGHHH@Z 1004c457 f   LIBCMT:a_str.obj
 0001:0004d730       __unwind_handler           1004e730 f   LIBCMT:exsup.obj
 0001:0004ded6       ?__crtCompareStringA_stat@@YAHPAUlocaleinfo_struct@@KKPBDH1HH@Z 1004eed6 f   LIBCMT:a_cmp.obj
 0001:0004e270       ?x_ismbbtype_l@@YAHPAUlocaleinfo_struct@@IHH@Z 1004f270 f   LIBCMT:ismbbyte.obj
 0001:0004f900       __hw_cw                    10050900 f   LIBCMT:_ieee87_.obj
 0001:0004f98e       ___hw_cw_sse2              1005098e f   LIBCMT:_ieee87_.obj
 0001:00050840       ??__Eg_DataMapHolder@dheader_t_DataDescInit@@YAXXZ 10051840 f   bsplib.obj
 0001:00050850       ??__Eg_DataMapHolder@lump_t_DataDescInit@@YAXXZ 10051850 f   bsplib.obj
 0001:00050860       ??__Eg_DataMapHolder@dflagslump_t_DataDescInit@@YAXXZ 10051860 f   bsplib.obj
 0001:00050870       ??__Eg_DataMapHolder@dplane_t_DataDescInit@@YAXXZ 10051870 f   bsplib.obj
 0001:00050880       ??__Eg_DataMapHolder@dleaf_version_0_t_DataDescInit@@YAXXZ 10051880 f   bsplib.obj
 0001:00050890       ??__Eg_DataMapHolder@dleaf_t_DataDescInit@@YAXXZ 10051890 f   bsplib.obj
 0001:000508a0       ??__Eg_DataMapHolder@CompressedLightCube_DataDescInit@@YAXXZ 100518a0 f   bsplib.obj
 0001:000508b0       ??__Eg_DataMapHolder@dleafambientindex_t_DataDescInit@@YAXXZ 100518b0 f   bsplib.obj
 0001:000508c0       ??__Eg_DataMapHolder@dleafambientlighting_t_DataDescInit@@YAXXZ 100518c0 f   bsplib.obj
 0001:000508d0       ??__Eg_DataMapHolder@dvertex_t_DataDescInit@@YAXXZ 100518d0 f   bsplib.obj
 0001:000508e0       ??__Eg_DataMapHolder@dnode_t_DataDescInit@@YAXXZ 100518e0 f   bsplib.obj
 0001:000508f0       ??__Eg_DataMapHolder@texinfo_t_DataDescInit@@YAXXZ 100518f0 f   bsplib.obj
 0001:00050900       ??__Eg_DataMapHolder@dtexdata_t_DataDescInit@@YAXXZ 10051900 f   bsplib.obj
 0001:00050910       ??__Eg_DataMapHolder@ddispinfo_t_DataDescInit@@YAXXZ 10051910 f   bsplib.obj
 0001:00050920       ??__Eg_DataMapHolder@CDispNeighbor_DataDescInit@@YAXXZ 10051920 f   bsplib.obj
 0001:00050930       ??__Eg_DataMapHolder@CDispCornerNeighbors_DataDescInit@@YAXXZ 10051930 f   bsplib.obj
 0001:00050940       ??__Eg_DataMapHolder@CDispSubNeighbor_DataDescInit@@YAXXZ 10051940 f   bsplib.obj
 0001:00050950       ??__Eg_DataMapHolder@CDispVert_DataDescInit@@YAXXZ 10051950 f   bsplib.obj
 0001:00050960       ??__Eg_DataMapHolder@CDispTri_DataDescInit@@YAXXZ 10051960 f   bsplib.obj
 0001:00050970       ??__Eg_DataMapHolder@CFaceMacroTextureInfo_DataDescInit@@YAXXZ 10051970 f   bsplib.obj
 0001:00050980       ??__Eg_DataMapHolder@dprimitive_t_DataDescInit@@YAXXZ 10051980 f   bsplib.obj
 0001:00050990       ??__Eg_DataMapHolder@dprimvert_t_DataDescInit@@YAXXZ 10051990 f   bsplib.obj
 0001:000509a0       ??__Eg_DataMapHolder@dface_t_DataDescInit@@YAXXZ 100519a0 f   bsplib.obj
 0001:000509b0       ??__Eg_DataMapHolder@dfaceid_t_DataDescInit@@YAXXZ 100519b0 f   bsplib.obj
 0001:000509c0       ??__Eg_DataMapHolder@dbrush_t_DataDescInit@@YAXXZ 100519c0 f   bsplib.obj
 0001:000509d0       ??__Eg_DataMapHolder@dbrushside_t_DataDescInit@@YAXXZ 100519d0 f   bsplib.obj
 0001:000509e0       ??__Eg_DataMapHolder@dedge_t_DataDescInit@@YAXXZ 100519e0 f   bsplib.obj
 0001:000509f0       ??__Eg_DataMapHolder@dmodel_t_DataDescInit@@YAXXZ 100519f0 f   bsplib.obj
 0001:00050a00       ??__Eg_DataMapHolder@dphysmodel_t_DataDescInit@@YAXXZ 10051a00 f   bsplib.obj
 0001:00050a10       ??__Eg_DataMapHolder@dphysdisp_t_DataDescInit@@YAXXZ 10051a10 f   bsplib.obj
 0001:00050a20       ??__Eg_DataMapHolder@darea_t_DataDescInit@@YAXXZ 10051a20 f   bsplib.obj
 0001:00050a30       ??__Eg_DataMapHolder@dareaportal_t_DataDescInit@@YAXXZ 10051a30 f   bsplib.obj
 0001:00050a40       ??__Eg_DataMapHolder@dworldlight_t_DataDescInit@@YAXXZ 10051a40 f   bsplib.obj
 0001:00050a50       ??__Eg_DataMapHolder@dleafwaterdata_t_DataDescInit@@YAXXZ 10051a50 f   bsplib.obj
 0001:00050a60       ??__Eg_DataMapHolder@doccluderdata_t_DataDescInit@@YAXXZ 10051a60 f   bsplib.obj
 0001:00050a70       ??__Eg_DataMapHolder@doccluderpolydata_t_DataDescInit@@YAXXZ 10051a70 f   bsplib.obj
 0001:00050a80       ??__Eg_DataMapHolder@dcubemapsample_t_DataDescInit@@YAXXZ 10051a80 f   bsplib.obj
 0001:00050a90       ??__Eg_DataMapHolder@doverlay_t_DataDescInit@@YAXXZ 10051a90 f   bsplib.obj
 0001:00050aa0       ??__Eg_DataMapHolder@dwateroverlay_t_DataDescInit@@YAXXZ 10051aa0 f   bsplib.obj
 0001:00050ab0       ??__Eg_DataMapHolder@doverlayfade_t_DataDescInit@@YAXXZ 10051ab0 f   bsplib.obj
 0001:00050ac0       ??__Eg_DataMapHolder@dgamelumpheader_t_DataDescInit@@YAXXZ 10051ac0 f   bsplib.obj
 0001:00050ad0       ??__Eg_DataMapHolder@dgamelump_t_DataDescInit@@YAXXZ 10051ad0 f   bsplib.obj
 0001:00050ae0       ??__Eg_DataMapHolder@StaticPropDictLump_t_DataDescInit@@YAXXZ 10051ae0 f   bsplib.obj
 0001:00050af0       ??__Eg_DataMapHolder@StaticPropLump_t_DataDescInit@@YAXXZ 10051af0 f   bsplib.obj
 0001:00050b00       ??__Eg_DataMapHolder@StaticPropLumpV4_t_DataDescInit@@YAXXZ 10051b00 f   bsplib.obj
 0001:00050b10       ??__Eg_DataMapHolder@StaticPropLumpV5_t_DataDescInit@@YAXXZ 10051b10 f   bsplib.obj
 0001:00050b20       ??__Eg_DataMapHolder@StaticPropLeafLump_t_DataDescInit@@YAXXZ 10051b20 f   bsplib.obj
 0001:00050b30       ??__Eg_DataMapHolder@DetailObjectDictLump_t_DataDescInit@@YAXXZ 10051b30 f   bsplib.obj
 0001:00050b40       ??__Eg_DataMapHolder@DetailObjectLump_t_DataDescInit@@YAXXZ 10051b40 f   bsplib.obj
 0001:00050b50       ??__Eg_DataMapHolder@DetailSpriteDictLump_t_DataDescInit@@YAXXZ 10051b50 f   bsplib.obj
 0001:00050b60       ??__Eg_DataMapHolder@DetailPropLightstylesLump_t_DataDescInit@@YAXXZ 10051b60 f   bsplib.obj
 0001:00050b70       ??__Eg_DataMapHolder@MeshHeader_t_DataDescInit@HardwareVerts@@YAXXZ 10051b70 f   bsplib.obj
 0001:00050b80       ??__Eg_DataMapHolder@FileHeader_t_DataDescInit@HardwareVerts@@YAXXZ 10051b80 f   bsplib.obj
 0001:00050b90       ??__Eg_StaticPropNames@@YAXXZ 10051b90 f   bsplib.obj
 0001:00050ba0       ??__Eg_StaticPropInstances@@YAXXZ 10051ba0 f   bsplib.obj
 0001:00050bb0       ??__Eg_Swap@@YAXXZ         10051bb0 f   bsplib.obj
 0001:00050bc0       ??__EdlightdataHDR@@YAXXZ  10051bc0 f   bsplib.obj
 0001:00050bd0       ??__EdlightdataLDR@@YAXXZ  10051bd0 f   bsplib.obj
 0001:00050be0       ??__Edentdata@@YAXXZ       10051be0 f   bsplib.obj
 0001:00050bf0       ??__Eg_LeafAmbientIndexLDR@@YAXXZ 10051bf0 f   bsplib.obj
 0001:00050c00       ??__Eg_LeafAmbientIndexHDR@@YAXXZ 10051c00 f   bsplib.obj
 0001:00050c10       ??__Eg_LeafAmbientLightingLDR@@YAXXZ 10051c10 f   bsplib.obj
 0001:00050c20       ??__Eg_LeafAmbientLightingHDR@@YAXXZ 10051c20 f   bsplib.obj
 0001:00050c30       ??__Etexinfo@@YAXXZ        10051c30 f   bsplib.obj
 0001:00050c40       ??__Eg_dispinfo@@YAXXZ     10051c40 f   bsplib.obj
 0001:00050c50       ??__Eg_DispVerts@@YAXXZ    10051c50 f   bsplib.obj
 0001:00050c60       ??__Eg_DispTris@@YAXXZ     10051c60 f   bsplib.obj
 0001:00050c70       ??__Eg_DispLightmapSamplePositions@@YAXXZ 10051c70 f   bsplib.obj
 0001:00050c80       ??__Edfaceids@@YAXXZ       10051c80 f   bsplib.obj
 0001:00050c90       ??__Eg_FaceMacroTextureInfos@@YAXXZ 10051c90 f   bsplib.obj
 0001:00050ca0       ??__Eg_TexDataStringData@@YAXXZ 10051ca0 f   bsplib.obj
 0001:00050cb0       ??__Eg_TexDataStringTable@@YAXXZ 10051cb0 f   bsplib.obj
 0001:00050cc0       ??__Eg_OccluderData@@YAXXZ 10051cc0 f   bsplib.obj
 0001:00050d00       ??__Eg_OccluderPolyData@@YAXXZ 10051d00 f   bsplib.obj
 0001:00050d40       ??__Eg_OccluderVertexIndices@@YAXXZ 10051d40 f   bsplib.obj
 0001:00050d80       ??__Eg_GameLumps@@YAXXZ    10051d80 f   bsplib.obj
 0001:00050d90       ??__Eg_DataMapHolder@swapcollideheader_t_DataDescInit@@YAXXZ 10051d90 f   bsplib.obj
 0001:00050da0       ??__Eg_DataMapHolder@swapcompactsurfaceheader_t_DataDescInit@@YAXXZ 10051da0 f   bsplib.obj
 0001:00050db0       ??__Eg_DataMapHolder@swapmoppsurfaceheader_t_DataDescInit@@YAXXZ 10051db0 f   bsplib.obj
 0001:00050dc0       ??__Eg_ClusterLeaves@@YAXXZ 10051dc0 f   bsplib.obj
 0001:00050dd0       ??__Eg_CleanupFunctions@@YAXXZ 10051dd0 f   cmdlib.obj
 0001:00050de0       ??__Eg_ExtraSpewHooks@@YAXXZ 10051de0 f   cmdlib.obj
 0001:00050df0       ??__Eg_ExitStopper@@YAXXZ  10051df0 f   cmdlib.obj
 0001:00050e00       ??__Eg_PortalTrace@@YAXXZ  10051e00 f   flow.obj
 0001:00050e20       ??__Eg_SpewTextCS@@YAXXZ   10051e20 f   mpi_stats.obj
 0001:00050e40       ??__Eg_SpewText@@YAXXZ     10051e40 f   mpi_stats.obj
 0001:00050e50       ??__Eg_BasePortalVisResultsFilename@@YAXXZ 10051e50 f   mpivis.obj
 0001:00050e60       ??__Eg_PortalMCAddr@@YAXXZ 10051e60 f   mpivis.obj
 0001:00050e70       ??__Eg_MCThreadExitEvent@@YAXXZ 10051e70 f   mpivis.obj
 0001:00050e90       ??__Eg_VVISDispatchReg@@YAXXZ 10051e90 f   mpivis.obj
 0001:00050eb0       ??__Eg_DistributeWorkReg@@YAXXZ 10051eb0 f   mpivis.obj
 0001:00050ed0       ??__Eg_definevariable@@YAXXZ 10051ed0 f   scriplib.obj
 0001:00050ee0       ??__Eg_CritInit@@YAXXZ     10051ee0 f   threads.obj
 0001:00050ef0       ??__Eg_SharedDispatchReg@@YAXXZ 10051ef0 f   vmpi_tools_shared.obj
 0001:00050f10       ??__E__g_CreateCVVisDLLILaunchableDLL_reg@@YAXXZ 10051f10 f   vvis.obj
 0001:00050f30       ??__Eg_DataMapHolder@ZIP_EndOfCentralDirRecord_DataDescInit@@YAXXZ 10051f30 f   zip_utils.obj
 0001:00050f40       ??__Eg_DataMapHolder@ZIP_FileHeader_DataDescInit@@YAXXZ 10051f40 f   zip_utils.obj
 0001:00050f50       ??__Eg_DataMapHolder@ZIP_LocalFileHeader_DataDescInit@@YAXXZ 10051f50 f   zip_utils.obj
 0001:00050f60       ??__Eg_DataMapHolder@ZIP_PreloadHeader_DataDescInit@@YAXXZ 10051f60 f   zip_utils.obj
 0001:00050f70       ??__Eg_DataMapHolder@ZIP_PreloadDirectoryEntry_DataDescInit@@YAXXZ 10051f70 f   zip_utils.obj
 0001:00050f80       ??__Eg_ZipUtils@@YAXXZ     10051f80 f   zip_utils.obj
 0001:00050f90       ??__Es_StringCharConversion@@YAXXZ 10051f90 f   tier1:utlbuffer.obj
 0001:00051000       ??__Es_NoEscConversion@@YAXXZ 10052000 f   tier1:utlbuffer.obj
 0001:00051030       ??__Eg_CleanupSymbolTable@@YAXXZ 10052030 f   tier1:utlsymbol.obj
 0001:00051040       ??__Eg_PersistentPacketsCS@@YAXXZ 10052040 f   vmpi:vmpi.obj
 0001:00051060       ??__Eg_PersistentPackets@@YAXXZ 10052060 f   vmpi:vmpi.obj
 0001:00051070       ??__Eg_OriginalCommandLineParameters@@YAXXZ 10052070 f   vmpi:vmpi.obj
 0001:00051080       ??__Eg_VMPIMessagesCS@@YAXXZ 10052080 f   vmpi:vmpi.obj
 0001:000510a0       ??__Eg_VMPIMessages@@YAXXZ 100520a0 f   vmpi:vmpi.obj
 0001:000510b0       ??__Eg_VMPIMessagesEvent@@YAXXZ 100520b0 f   vmpi:vmpi.obj
 0001:000510d0       ??__Eg_ErrorSockets@@YAXXZ 100520d0 f   vmpi:vmpi.obj
 0001:000510e0       ??__Eg_ErrorSocketsEvent@@YAXXZ 100520e0 f   vmpi:vmpi.obj
 0001:00051100       ??__Eg_ErrorSocketsCS@@YAXXZ 10052100 f   vmpi:vmpi.obj
 0001:00051120       ??__Eg_ConnectionsCS@@YAXXZ 10052120 f   vmpi:vmpi.obj
 0001:00051140       ??__Eg_DispatchBuffers@@YAXXZ 10052140 f   vmpi:vmpi.obj
 0001:00051170       ??__Eg_DisconnectHandlers@@YAXXZ 10052170 f   vmpi:vmpi.obj
 0001:00051180       ??__Eg_CurrentStageCS@@YAXXZ 10052180 f   vmpi:vmpi.obj
 0001:000511a0       ??__Eg_WorkerCommandLine@@YAXXZ 100521a0 f   vmpi:vmpi.obj
 0001:000511b0       ??__Eg_VMPIInternalDispatchReg@@YAXXZ 100521b0 f   vmpi:vmpi.obj
 0001:000511c0       ??__Eg_MasterBroadcaster@@YAXXZ 100521c0 f   vmpi:vmpi.obj
 0001:000511e0       ??__Eg_DSInfo@@YAXXZ       100521e0 f   vmpi:vmpi_distribute_work.obj
 0001:00051200       ??__Eg_wuCountByProcess@@YAXXZ 10052200 f   vmpi:vmpi_distribute_work.obj
 0001:00051210       ??__Eg_MasterWorkUnitCompletedList@@YAXXZ 10052210 f   vmpi:vmpi_distribute_work.obj
 0001:00051250       ??__E__g_CreateIBaseFileSystem_reg@@YAXXZ 10052250 f   vmpi:vmpi_filesystem.obj
 0001:00051270       ??__Eg_DispatchReg_FileSystem@@YAXXZ 10052270 f   vmpi:vmpi_filesystem.obj
 0001:00051290       ??__Eg_Starter@@YAXXZ      10052290 f   vmpi:iphelpers.obj
 0001:000512b0       ??__Eg_WorkUnits@@YAXXZ    100522b0 f   vmpi:vmpi_distribute_tracker.obj
 0001:000512c0       ??__Eg_WUStatus@@YAXXZ     100522c0 f   vmpi:vmpi_distribute_tracker.obj
 0001:000512d0       ??__Eg_MasterWorkUnitsTracker@@YAXXZ 100522d0 f   vmpi:vmpi_distribute_work_default.obj
 0001:000512e0       ??__Eg_MulticastIP@@YAXXZ  100522e0 f   vmpi:vmpi_filesystem_worker.obj
 0001:000512f0       ??__Eg_FileResponsesCS@@YAXXZ 100522f0 f   vmpi:vmpi_filesystem_worker.obj
 0001:00051310       ??__Eg_FileResponses@@YAXXZ 10052310 f   vmpi:vmpi_filesystem_worker.obj
 0001:00051320       ??__Eg_FileChunkPackets@@YAXXZ 10052320 f   vmpi:vmpi_filesystem_worker.obj
 0001:00051330       ??__Eg_BitWriteMasksInit@@YAXXZ 10052330 f   tier1:bitbuf.obj
 0001:00051340       ??__FnameHolder@?1???$DataMapInit@Udheader_t@@@@YAPAUdatamap_t@@PAUdheader_t@@@Z@YAXXZ 10052340 f   bsplib.obj
 0001:00051350       ??__FnameHolder@?1???$DataMapInit@Ulump_t@@@@YAPAUdatamap_t@@PAUlump_t@@@Z@YAXXZ 10052350 f   bsplib.obj
 0001:00051360       ??__FnameHolder@?1???$DataMapInit@Udflagslump_t@@@@YAPAUdatamap_t@@PAUdflagslump_t@@@Z@YAXXZ 10052360 f   bsplib.obj
 0001:00051370       ??__FnameHolder@?1???$DataMapInit@Udplane_t@@@@YAPAUdatamap_t@@PAUdplane_t@@@Z@YAXXZ 10052370 f   bsplib.obj
 0001:00051380       ??__FnameHolder@?1???$DataMapInit@Udleaf_version_0_t@@@@YAPAUdatamap_t@@PAUdleaf_version_0_t@@@Z@YAXXZ 10052380 f   bsplib.obj
 0001:00051390       ??__FnameHolder@?1???$DataMapInit@Udleaf_t@@@@YAPAUdatamap_t@@PAUdleaf_t@@@Z@YAXXZ 10052390 f   bsplib.obj
 0001:000513a0       ??__FnameHolder@?1???$DataMapInit@UCompressedLightCube@@@@YAPAUdatamap_t@@PAUCompressedLightCube@@@Z@YAXXZ 100523a0 f   bsplib.obj
 0001:000513b0       ??__FnameHolder@?1???$DataMapInit@Udleafambientindex_t@@@@YAPAUdatamap_t@@PAUdleafambientindex_t@@@Z@YAXXZ 100523b0 f   bsplib.obj
 0001:000513c0       ??__FnameHolder@?1???$DataMapInit@Udleafambientlighting_t@@@@YAPAUdatamap_t@@PAUdleafambientlighting_t@@@Z@YAXXZ 100523c0 f   bsplib.obj
 0001:000513d0       ??__FnameHolder@?1???$DataMapInit@Udvertex_t@@@@YAPAUdatamap_t@@PAUdvertex_t@@@Z@YAXXZ 100523d0 f   bsplib.obj
 0001:000513e0       ??__FnameHolder@?1???$DataMapInit@Udnode_t@@@@YAPAUdatamap_t@@PAUdnode_t@@@Z@YAXXZ 100523e0 f   bsplib.obj
 0001:000513f0       ??__FnameHolder@?1???$DataMapInit@Utexinfo_s@@@@YAPAUdatamap_t@@PAUtexinfo_s@@@Z@YAXXZ 100523f0 f   bsplib.obj
 0001:00051400       ??__FnameHolder@?1???$DataMapInit@Udtexdata_t@@@@YAPAUdatamap_t@@PAUdtexdata_t@@@Z@YAXXZ 10052400 f   bsplib.obj
 0001:00051410       ??__FnameHolder@?1???$DataMapInit@Vddispinfo_t@@@@YAPAUdatamap_t@@PAVddispinfo_t@@@Z@YAXXZ 10052410 f   bsplib.obj
 0001:00051420       ??__FnameHolder@?1???$DataMapInit@VCDispNeighbor@@@@YAPAUdatamap_t@@PAVCDispNeighbor@@@Z@YAXXZ 10052420 f   bsplib.obj
 0001:00051430       ??__FnameHolder@?1???$DataMapInit@VCDispCornerNeighbors@@@@YAPAUdatamap_t@@PAVCDispCornerNeighbors@@@Z@YAXXZ 10052430 f   bsplib.obj
 0001:00051440       ??__FnameHolder@?1???$DataMapInit@UCDispSubNeighbor@@@@YAPAUdatamap_t@@PAUCDispSubNeighbor@@@Z@YAXXZ 10052440 f   bsplib.obj
 0001:00051450       ??__FnameHolder@?1???$DataMapInit@VCDispVert@@@@YAPAUdatamap_t@@PAVCDispVert@@@Z@YAXXZ 10052450 f   bsplib.obj
 0001:00051460       ??__FnameHolder@?1???$DataMapInit@VCDispTri@@@@YAPAUdatamap_t@@PAVCDispTri@@@Z@YAXXZ 10052460 f   bsplib.obj
 0001:00051470       ??__FnameHolder@?1???$DataMapInit@VCFaceMacroTextureInfo@@@@YAPAUdatamap_t@@PAVCFaceMacroTextureInfo@@@Z@YAXXZ 10052470 f   bsplib.obj
 0001:00051480       ??__FnameHolder@?1???$DataMapInit@Udprimitive_t@@@@YAPAUdatamap_t@@PAUdprimitive_t@@@Z@YAXXZ 10052480 f   bsplib.obj
 0001:00051490       ??__FnameHolder@?1???$DataMapInit@Udprimvert_t@@@@YAPAUdatamap_t@@PAUdprimvert_t@@@Z@YAXXZ 10052490 f   bsplib.obj
 0001:000514a0       ??__FnameHolder@?1???$DataMapInit@Udface_t@@@@YAPAUdatamap_t@@PAUdface_t@@@Z@YAXXZ 100524a0 f   bsplib.obj
 0001:000514b0       ??__FnameHolder@?1???$DataMapInit@Udfaceid_t@@@@YAPAUdatamap_t@@PAUdfaceid_t@@@Z@YAXXZ 100524b0 f   bsplib.obj
 0001:000514c0       ??__FnameHolder@?1???$DataMapInit@Udbrush_t@@@@YAPAUdatamap_t@@PAUdbrush_t@@@Z@YAXXZ 100524c0 f   bsplib.obj
 0001:000514d0       ??__FnameHolder@?1???$DataMapInit@Udbrushside_t@@@@YAPAUdatamap_t@@PAUdbrushside_t@@@Z@YAXXZ 100524d0 f   bsplib.obj
 0001:000514e0       ??__FnameHolder@?1???$DataMapInit@Udedge_t@@@@YAPAUdatamap_t@@PAUdedge_t@@@Z@YAXXZ 100524e0 f   bsplib.obj
 0001:000514f0       ??__FnameHolder@?1???$DataMapInit@Udmodel_t@@@@YAPAUdatamap_t@@PAUdmodel_t@@@Z@YAXXZ 100524f0 f   bsplib.obj
 0001:00051500       ??__FnameHolder@?1???$DataMapInit@Udphysmodel_t@@@@YAPAUdatamap_t@@PAUdphysmodel_t@@@Z@YAXXZ 10052500 f   bsplib.obj
 0001:00051510       ??__FnameHolder@?1???$DataMapInit@Udphysdisp_t@@@@YAPAUdatamap_t@@PAUdphysdisp_t@@@Z@YAXXZ 10052510 f   bsplib.obj
 0001:00051520       ??__FnameHolder@?1???$DataMapInit@Udarea_t@@@@YAPAUdatamap_t@@PAUdarea_t@@@Z@YAXXZ 10052520 f   bsplib.obj
 0001:00051530       ??__FnameHolder@?1???$DataMapInit@Udareaportal_t@@@@YAPAUdatamap_t@@PAUdareaportal_t@@@Z@YAXXZ 10052530 f   bsplib.obj
 0001:00051540       ??__FnameHolder@?1???$DataMapInit@Udworldlight_t@@@@YAPAUdatamap_t@@PAUdworldlight_t@@@Z@YAXXZ 10052540 f   bsplib.obj
 0001:00051550       ??__FnameHolder@?1???$DataMapInit@Udleafwaterdata_t@@@@YAPAUdatamap_t@@PAUdleafwaterdata_t@@@Z@YAXXZ 10052550 f   bsplib.obj
 0001:00051560       ??__FnameHolder@?1???$DataMapInit@Udoccluderdata_t@@@@YAPAUdatamap_t@@PAUdoccluderdata_t@@@Z@YAXXZ 10052560 f   bsplib.obj
 0001:00051570       ??__FnameHolder@?1???$DataMapInit@Udoccluderpolydata_t@@@@YAPAUdatamap_t@@PAUdoccluderpolydata_t@@@Z@YAXXZ 10052570 f   bsplib.obj
 0001:00051580       ??__FnameHolder@?1???$DataMapInit@Udcubemapsample_t@@@@YAPAUdatamap_t@@PAUdcubemapsample_t@@@Z@YAXXZ 10052580 f   bsplib.obj
 0001:00051590       ??__FnameHolder@?1???$DataMapInit@Udoverlay_t@@@@YAPAUdatamap_t@@PAUdoverlay_t@@@Z@YAXXZ 10052590 f   bsplib.obj
 0001:000515a0       ??__FnameHolder@?1???$DataMapInit@Udwateroverlay_t@@@@YAPAUdatamap_t@@PAUdwateroverlay_t@@@Z@YAXXZ 100525a0 f   bsplib.obj
 0001:000515b0       ??__FnameHolder@?1???$DataMapInit@Udoverlayfade_t@@@@YAPAUdatamap_t@@PAUdoverlayfade_t@@@Z@YAXXZ 100525b0 f   bsplib.obj
 0001:000515c0       ??__FnameHolder@?1???$DataMapInit@Udgamelumpheader_t@@@@YAPAUdatamap_t@@PAUdgamelumpheader_t@@@Z@YAXXZ 100525c0 f   bsplib.obj
 0001:000515d0       ??__FnameHolder@?1???$DataMapInit@Udgamelump_t@@@@YAPAUdatamap_t@@PAUdgamelump_t@@@Z@YAXXZ 100525d0 f   bsplib.obj
 0001:000515e0       ??__FnameHolder@?1???$DataMapInit@UStaticPropDictLump_t@@@@YAPAUdatamap_t@@PAUStaticPropDictLump_t@@@Z@YAXXZ 100525e0 f   bsplib.obj
 0001:000515f0       ??__FnameHolder@?1???$DataMapInit@UStaticPropLump_t@@@@YAPAUdatamap_t@@PAUStaticPropLump_t@@@Z@YAXXZ 100525f0 f   bsplib.obj
 0001:00051600       ??__FnameHolder@?1???$DataMapInit@UStaticPropLumpV4_t@@@@YAPAUdatamap_t@@PAUStaticPropLumpV4_t@@@Z@YAXXZ 10052600 f   bsplib.obj
 0001:00051610       ??__FnameHolder@?1???$DataMapInit@UStaticPropLumpV5_t@@@@YAPAUdatamap_t@@PAUStaticPropLumpV5_t@@@Z@YAXXZ 10052610 f   bsplib.obj
 0001:00051620       ??__FnameHolder@?1???$DataMapInit@UStaticPropLeafLump_t@@@@YAPAUdatamap_t@@PAUStaticPropLeafLump_t@@@Z@YAXXZ 10052620 f   bsplib.obj
 0001:00051630       ??__FnameHolder@?1???$DataMapInit@UDetailObjectDictLump_t@@@@YAPAUdatamap_t@@PAUDetailObjectDictLump_t@@@Z@YAXXZ 10052630 f   bsplib.obj
 0001:00051640       ??__FnameHolder@?1???$DataMapInit@UDetailObjectLump_t@@@@YAPAUdatamap_t@@PAUDetailObjectLump_t@@@Z@YAXXZ 10052640 f   bsplib.obj
 0001:00051650       ??__FnameHolder@?1???$DataMapInit@UDetailSpriteDictLump_t@@@@YAPAUdatamap_t@@PAUDetailSpriteDictLump_t@@@Z@YAXXZ 10052650 f   bsplib.obj
 0001:00051660       ??__FnameHolder@?1???$DataMapInit@UDetailPropLightstylesLump_t@@@@YAPAUdatamap_t@@PAUDetailPropLightstylesLump_t@@@Z@YAXXZ 10052660 f   bsplib.obj
 0001:00051670       ??__FnameHolder@?1???$DataMapInit@UMeshHeader_t@HardwareVerts@@@HardwareVerts@@YAPAUdatamap_t@@PAUMeshHeader_t@0@@Z@YAXXZ 10052670 f   bsplib.obj
 0001:00051680       ??__FnameHolder@?1???$DataMapInit@UFileHeader_t@HardwareVerts@@@HardwareVerts@@YAPAUdatamap_t@@PAUFileHeader_t@0@@Z@YAXXZ 10052680 f   bsplib.obj
 0001:00051690       ??__Fg_StaticPropInstances@@YAXXZ 10052690 f   bsplib.obj
 0001:000516a0       ??__FdlightdataHDR@@YAXXZ  100526a0 f   bsplib.obj
 0001:000516b0       ??__FdlightdataLDR@@YAXXZ  100526b0 f   bsplib.obj
 0001:000516c0       ??__Fdentdata@@YAXXZ       100526c0 f   bsplib.obj
 0001:000516d0       ??__Fg_LeafAmbientIndexLDR@@YAXXZ 100526d0 f   bsplib.obj
 0001:000516e0       ??__Fg_LeafAmbientIndexHDR@@YAXXZ 100526e0 f   bsplib.obj
 0001:000516f0       ??__Fg_LeafAmbientLightingLDR@@YAXXZ 100526f0 f   bsplib.obj
 0001:00051700       ??__Fg_LeafAmbientLightingHDR@@YAXXZ 10052700 f   bsplib.obj
 0001:00051710       ??__Ftexinfo@@YAXXZ        10052710 f   bsplib.obj
 0001:00051720       ??__Fg_DispLightmapSamplePositions@@YAXXZ 10052720 f   bsplib.obj
 0001:00051730       ??__Fg_TexDataStringData@@YAXXZ 10052730 f   bsplib.obj
 0001:00051740       ??__Fg_TexDataStringTable@@YAXXZ 10052740 f   bsplib.obj
 0001:00051750       ??__Fg_OccluderData@@YAXXZ 10052750 f   bsplib.obj
 0001:00051760       ??__Fg_OccluderPolyData@@YAXXZ 10052760 f   bsplib.obj
 0001:00051770       ??__Fg_OccluderVertexIndices@@YAXXZ 10052770 f   bsplib.obj
 0001:00051780       ??__FnameHolder@?1???$DataMapInit@Uswapcollideheader_t@@@@YAPAUdatamap_t@@PAUswapcollideheader_t@@@Z@YAXXZ 10052780 f   bsplib.obj
 0001:00051790       ??__FnameHolder@?1???$DataMapInit@Uswapcompactsurfaceheader_t@@@@YAPAUdatamap_t@@PAUswapcompactsurfaceheader_t@@@Z@YAXXZ 10052790 f   bsplib.obj
 0001:000517a0       ??__FnameHolder@?1???$DataMapInit@Uswapmoppsurfaceheader_t@@@@YAPAUdatamap_t@@PAUswapmoppsurfaceheader_t@@@Z@YAXXZ 100527a0 f   bsplib.obj
 0001:000517b0       ??__Fg_dispinfo@@YAXXZ     100527b0 f   bsplib.obj
 0001:000517c0       ??__Fg_DispVerts@@YAXXZ    100527c0 f   bsplib.obj
 0001:000517d0       ??__Fg_DispTris@@YAXXZ     100527d0 f   bsplib.obj
 0001:000517e0       ??__Fdfaceids@@YAXXZ       100527e0 f   bsplib.obj
 0001:000517f0       ??__Fg_FaceMacroTextureInfos@@YAXXZ 100527f0 f   bsplib.obj
 0001:00051800       ??__Fg_GameLumps@@YAXXZ    10052800 f   bsplib.obj
 0001:00051850       ??__Fg_ClusterLeaves@@YAXXZ 10052850 f   bsplib.obj
 0001:00051860       ??__Fg_StaticPropNames@@YAXXZ 10052860 f   bsplib.obj
 0001:00051870       ??__Fg_ExitStopper@@YAXXZ  10052870 f   cmdlib.obj
 0001:00051890       ??__Fg_CleanupFunctions@@YAXXZ 10052890 f   cmdlib.obj
 0001:000518e0       ??__Fg_ExtraSpewHooks@@YAXXZ 100528e0 f   cmdlib.obj
 0001:00051930       ??__Fbuf@?1??CmdLib_FPrintf@@YAXPAXPBDZZ@YAXXZ 10052930 f   cmdlib.obj
 0001:00051940       ??__Fg_PortalTrace@@YAXXZ  10052940 f   flow.obj
 0001:00051950       ??__Fg_SpewTextCS@@YAXXZ   10052950 f   mpi_stats.obj
 0001:00051960       ??__Fg_SpewText@@YAXXZ     10052960 f   mpi_stats.obj
 0001:00051970       ??__Fg_MCThreadExitEvent@@YAXXZ 10052970 f   mpivis.obj
 0001:00051980       ??__Fg_BasePortalVisResultsFilename@@YAXXZ 10052980 f   mpivis.obj
 0001:00051990       ??__Fg_definevariable@@YAXXZ 10052990 f   scriplib.obj
 0001:000519a0       ??__FnameHolder@?1???$DataMapInit@UZIP_EndOfCentralDirRecord@@@@YAPAUdatamap_t@@PAUZIP_EndOfCentralDirRecord@@@Z@YAXXZ 100529a0 f   zip_utils.obj
 0001:000519b0       ??__FnameHolder@?1???$DataMapInit@UZIP_FileHeader@@@@YAPAUdatamap_t@@PAUZIP_FileHeader@@@Z@YAXXZ 100529b0 f   zip_utils.obj
 0001:000519c0       ??__FnameHolder@?1???$DataMapInit@UZIP_LocalFileHeader@@@@YAPAUdatamap_t@@PAUZIP_LocalFileHeader@@@Z@YAXXZ 100529c0 f   zip_utils.obj
 0001:000519d0       ??__FnameHolder@?1???$DataMapInit@UZIP_PreloadHeader@@@@YAPAUdatamap_t@@PAUZIP_PreloadHeader@@@Z@YAXXZ 100529d0 f   zip_utils.obj
 0001:000519e0       ??__FnameHolder@?1???$DataMapInit@UZIP_PreloadDirectoryEntry@@@@YAPAUdatamap_t@@PAUZIP_PreloadDirectoryEntry@@@Z@YAXXZ 100529e0 f   zip_utils.obj
 0001:000519f0       ??__Fg_ZipUtils@@YAXXZ     100529f0 f   zip_utils.obj
 0001:00051a40       ??__Fg_CleanupSymbolTable@@YAXXZ 10052a40 f   tier1:utlsymbol.obj
 0001:00051a80       ??__Fg_PersistentPacketsCS@@YAXXZ 10052a80 f   vmpi:vmpi.obj
 0001:00051a90       ??__Fg_VMPIMessagesCS@@YAXXZ 10052a90 f   vmpi:vmpi.obj
 0001:00051aa0       ??__Fg_VMPIMessagesEvent@@YAXXZ 10052aa0 f   vmpi:vmpi.obj
 0001:00051ab0       ??__Fg_ErrorSocketsEvent@@YAXXZ 10052ab0 f   vmpi:vmpi.obj
 0001:00051ac0       ??__Fg_ErrorSocketsCS@@YAXXZ 10052ac0 f   vmpi:vmpi.obj
 0001:00051ad0       ??__Fg_ConnectionsCS@@YAXXZ 10052ad0 f   vmpi:vmpi.obj
 0001:00051ae0       ??__Fg_CurrentStageCS@@YAXXZ 10052ae0 f   vmpi:vmpi.obj
 0001:00051af0       ??__Fg_DispatchBuffers@@YAXXZ 10052af0 f   vmpi:vmpi.obj
 0001:00051b20       ??__Fg_PersistentPackets@@YAXXZ 10052b20 f   vmpi:vmpi.obj
 0001:00051b70       ??__Fg_OriginalCommandLineParameters@@YAXXZ 10052b70 f   vmpi:vmpi.obj
 0001:00051b80       ??__Fg_VMPIMessages@@YAXXZ 10052b80 f   vmpi:vmpi.obj
 0001:00051bd0       ??__Fg_ErrorSockets@@YAXXZ 10052bd0 f   vmpi:vmpi.obj
 0001:00051c20       ??__Fg_DisconnectHandlers@@YAXXZ 10052c20 f   vmpi:vmpi.obj
 0001:00051c70       ??__Fg_WorkerCommandLine@@YAXXZ 10052c70 f   vmpi:vmpi.obj
 0001:00051c80       ??__Fg_MasterBroadcaster@@YAXXZ 10052c80 f   vmpi:vmpi.obj
 0001:00051cc0       ??__Fg_wuCountByProcess@@YAXXZ 10052cc0 f   vmpi:vmpi_distribute_work.obj
 0001:00051cd0       ??__Fg_MasterWorkUnitCompletedList@@YAXXZ 10052cd0 f   vmpi:vmpi_distribute_work.obj
 0001:00051cf0       ??__Fg_DSInfo@@YAXXZ       10052cf0 f   vmpi:vmpi_distribute_work.obj
 0001:00051d10       ??__Fg_WUStatus@@YAXXZ     10052d10 f   vmpi:vmpi_distribute_tracker.obj
 0001:00051d20       ??__Fg_WorkUnits@@YAXXZ    10052d20 f   vmpi:vmpi_distribute_tracker.obj
 0001:00051d30       ??__Fg_MasterWorkUnitsTracker@@YAXXZ 10052d30 f   vmpi:vmpi_distribute_work_default.obj
 0001:00051d40       ??__Fg_FileResponsesCS@@YAXXZ 10052d40 f   vmpi:vmpi_filesystem_worker.obj
 0001:00051d50       ??__Fg_FileResponses@@YAXXZ 10052d50 f   vmpi:vmpi_filesystem_worker.obj
 0001:00051d60       ??__Fg_FileChunkPackets@@YAXXZ 10052d60 f   vmpi:vmpi_filesystem_worker.obj
 0001:00051da1       ??__Fnomem@?5???2@YAPAXI@Z@YAXXZ 10052da1 f   LIBCMT:new.obj
