 vrad_dll

 Timestamp is 4e78505d (Tue Sep 20 09:35:41 2011)

 Preferred load address is 10000000

 Start         Length     Name                   Class
 0001:00000000 000b41f1H .text                   CODE
 0001:000b4200 00000256H .text$x                 CODE
 0001:000b4460 000011eeH .text$yc                CODE
 0001:000b5650 00000dddH .text$yd                CODE
 0002:00000000 0000034cH .idata$5                DATA
 0002:0000034c 00000004H .CRT$XCA                DATA
 0002:00000350 0000000cH .CRT$XCC                DATA
 0002:0000035c 00000008H .CRT$XCL                DATA
 0002:00000364 000002c0H .CRT$XCU                DATA
 0002:00000624 00000004H .CRT$XCZ                DATA
 0002:00000628 00000004H .CRT$XIA                DATA
 0002:0000062c 00000014H .CRT$XIC                DATA
 0002:00000640 00000004H .CRT$XIZ                DATA
 0002:00000644 00000004H .CRT$XPA                DATA
 0002:00000648 0000000cH .CRT$XPX                DATA
 0002:00000654 00000004H .CRT$XPXA               DATA
 0002:00000658 00000004H .CRT$XPZ                DATA
 0002:0000065c 00000004H .CRT$XTA                DATA
 0002:00000660 00000004H .CRT$XTZ                DATA
 0002:00000670 00056458H .rdata                  DATA
 0002:00056ac8 0000004aH .rdata$debug            DATA
 0002:00056b14 00001f40H .rdata$r                DATA
 0002:00058a54 00000004H .rtc$IAA                DATA
 0002:00058a58 00000004H .rtc$IZZ                DATA
 0002:00058a5c 00000004H .rtc$TAA                DATA
 0002:00058a60 00000004H .rtc$TZZ                DATA
 0002:00058a68 00000f0cH .xdata$x                DATA
 0002:00059974 0000008cH .idata$2                DATA
 0002:00059a00 00000014H .idata$3                DATA
 0002:00059a14 0000034cH .idata$4                DATA
 0002:00059d60 00000e96H .idata$6                DATA
 0002:0005ac00 0000004fH .edata                  DATA
 0003:00000000 0000be4cH .data                   DATA
 0003:0000be60 050b3ac4H .bss                    DATA

  Address         Publics by Value              Rva+Base       Lib:Object

 0000:00000000       __except_list              00000000     <absolute>
 0000:00000000       ___safe_se_handler_count   00000000     <absolute>
 0000:00000000       ___safe_se_handler_table   00000000     <absolute>
 0000:00000000       ___ImageBase               10000000     <linker-defined>
 0001:00000000       ??_H@YGXPAXIHP6EPAX0@Z@Z   10001000 f i bsptreedata.obj
 0001:00000030       ?DestroyBSPTreeData@@YAXPAVIBSPTreeData@@@Z 10001030 f   bsptreedata.obj
 0001:00000050       ?EnumerateLeavesAtPoint@CBSPTreeData@@UAE_NABVVector@@PAVISpatialLeafEnumerator@@H@Z 10001050 f   bsptreedata.obj
 0001:00000060       ?EnumerateLeavesInBox@CBSPTreeData@@UAE_NABVVector@@0PAVISpatialLeafEnumerator@@H@Z 10001060 f   bsptreedata.obj
 0001:00000070       ?EnumerateLeavesInSphere@CBSPTreeData@@UAE_NABVVector@@MPAVISpatialLeafEnumerator@@H@Z 10001070 f   bsptreedata.obj
 0001:000000a0       ?EnumerateLeavesAlongRay@CBSPTreeData@@UAE_NABURay_t@@PAVISpatialLeafEnumerator@@H@Z 100010a0 f   bsptreedata.obj
 0001:000000b0       ?Grow@?$CUtlMemory@GH@@QAEXH@Z 100010b0 f i tier1:stringpool.obj
 0001:000000b0       ?Grow@?$CUtlMemory@VCFaceMacroTextureInfo@@H@@QAEXH@Z 100010b0 f i bsplib.obj
 0001:000000b0       ?Grow@?$CUtlMemory@ULeaf_t@CBSPTreeData@@H@@QAEXH@Z 100010b0 f i bsptreedata.obj
 0001:000000b0       ?Grow@?$CUtlMemory@VCLMSize@CIncrementalHeader@@H@@QAEXH@Z 100010b0 f i incremental.obj
 0001:000000b0       ?Grow@?$CUtlMemory@VCDispTri@@H@@QAEXH@Z 100010b0 f i bsplib.obj
 0001:000000b0       ?Grow@?$CUtlMemory@Udfaceid_t@@H@@QAEXH@Z 100010b0 f i bsplib.obj
 0001:00000160       ?Grow@?$CUtlMemory@U?$UtlRBTreeNode_t@VCStringPoolIndex@CUtlSymbolTable@@G@@G@@QAEXH@Z 10001160 f i tier1:utlsymbol.obj
 0001:00000160       ?Grow@?$CUtlMemory@U?$UtlLinkedListElem_t@UHandleInfo_t@CBSPTreeData@@G@@G@@QAEXH@Z 10001160 f i bsptreedata.obj
 0001:00000160       ?Grow@?$CUtlMemory@U?$UtlLinkedListElem_t@UHandleInLeaf_t@CBSPTreeData@@G@@G@@QAEXH@Z 10001160 f i bsptreedata.obj
 0001:00000210       ?Grow@?$CUtlMemory@U?$UtlLinkedListElem_t@GG@@G@@QAEXH@Z 10001210 f i bsptreedata.obj
 0001:000002c0       ?IsElementInTree@CBSPTreeData@@UBE_NG@Z 100012c0 f   bsptreedata.obj
 0001:000002f0       ?EnsureCapacity@?$CUtlLinkedList@UHandleInfo_t@CBSPTreeData@@G$0A@GV?$CUtlMemory@U?$UtlLinkedListElem_t@UHandleInfo_t@CBSPTreeData@@G@@G@@@@QAEXH@Z 100012f0 f i bsptreedata.obj
 0001:000002f0       ?EnsureCapacity@?$CUtlLinkedList@UHandleInLeaf_t@CBSPTreeData@@G$00GV?$CUtlMemory@U?$UtlLinkedListElem_t@UHandleInLeaf_t@CBSPTreeData@@G@@G@@@@QAEXH@Z 100012f0 f i bsptreedata.obj
 0001:00000360       ?RemoveAll@?$CUtlLinkedList@UHandleInfo_t@CBSPTreeData@@G$0A@GV?$CUtlMemory@U?$UtlLinkedListElem_t@UHandleInfo_t@CBSPTreeData@@G@@G@@@@QAEXXZ 10001360 f i bsptreedata.obj
 0001:000003d0       ?Unlink@?$CUtlLinkedList@UHandleInfo_t@CBSPTreeData@@G$0A@GV?$CUtlMemory@U?$UtlLinkedListElem_t@UHandleInfo_t@CBSPTreeData@@G@@G@@@@QAEXG@Z 100013d0 f i bsptreedata.obj
 0001:000003d0       ?Unlink@?$CUtlLinkedList@UHandleInLeaf_t@CBSPTreeData@@G$00GV?$CUtlMemory@U?$UtlLinkedListElem_t@UHandleInLeaf_t@CBSPTreeData@@G@@G@@@@QAEXG@Z 100013d0 f i bsptreedata.obj
 0001:00000460       ?RemoveAll@?$CUtlLinkedList@GG$00GV?$CUtlMemory@U?$UtlLinkedListElem_t@GG@@G@@@@QAEXXZ 10001460 f i bsptreedata.obj
 0001:00000510       ?AllocInternal@?$CUtlLinkedList@GG$00GV?$CUtlMemory@U?$UtlLinkedListElem_t@GG@@G@@@@IAEG_N@Z 10001510 f i bsptreedata.obj
 0001:00000630       ?RemoveAll@?$CUtlLinkedList@UHandleInLeaf_t@CBSPTreeData@@G$00GV?$CUtlMemory@U?$UtlLinkedListElem_t@UHandleInLeaf_t@CBSPTreeData@@G@@G@@@@QAEXXZ 10001630 f i bsptreedata.obj
 0001:000006e0       ?AllocInternal@?$CUtlLinkedList@UHandleInfo_t@CBSPTreeData@@G$0A@GV?$CUtlMemory@U?$UtlLinkedListElem_t@UHandleInfo_t@CBSPTreeData@@G@@G@@@@IAEG_N@Z 100016e0 f i bsptreedata.obj
 0001:000006e0       ?AllocInternal@?$CUtlLinkedList@UHandleInLeaf_t@CBSPTreeData@@G$00GV?$CUtlMemory@U?$UtlLinkedListElem_t@UHandleInLeaf_t@CBSPTreeData@@G@@G@@@@IAEG_N@Z 100016e0 f i bsptreedata.obj
 0001:00000800       ?EnumerateElementsInLeaf@CBSPTreeData@@UAE_NHPAVIBSPTreeDataEnumerator@@H@Z 10001800 f   bsptreedata.obj
 0001:00000870       ?EnsureCapacity@?$CUtlVector@ULeaf_t@CBSPTreeData@@V?$CUtlMemory@ULeaf_t@CBSPTreeData@@H@@@@QAEXH@Z 10001870 f i bsptreedata.obj
 0001:000008e0       ?Unlink@?$CUtlLinkedList@GG$00GV?$CUtlMemory@U?$UtlLinkedListElem_t@GG@@G@@@@QAEXG@Z 100018e0 f i bsptreedata.obj
 0001:00000970       ?Shutdown@CBSPTreeData@@UAEXXZ 10001970 f   bsptreedata.obj
 0001:00000a70       ?LinkBefore@?$CUtlLinkedList@GG$00GV?$CUtlMemory@U?$UtlLinkedListElem_t@GG@@G@@@@QAEXGG@Z 10001a70 f i bsptreedata.obj
 0001:00000b00       ?LinkBefore@?$CUtlLinkedList@UHandleInLeaf_t@CBSPTreeData@@G$00GV?$CUtlMemory@U?$UtlLinkedListElem_t@UHandleInLeaf_t@CBSPTreeData@@G@@G@@@@QAEXGG@Z 10001b00 f i bsptreedata.obj
 0001:00000b00       ?LinkBefore@?$CUtlLinkedList@UHandleInfo_t@CBSPTreeData@@G$0A@GV?$CUtlMemory@U?$UtlLinkedListElem_t@UHandleInfo_t@CBSPTreeData@@G@@G@@@@QAEXGG@Z 10001b00 f i bsptreedata.obj
 0001:00000b90       ??0CBSPTreeData@@QAE@XZ    10001b90 f   bsptreedata.obj
 0001:00000c30       ??1CBSPTreeData@@UAE@XZ    10001c30 f   bsptreedata.obj
 0001:00000cf0       ?Init@CBSPTreeData@@UAEXPAVISpatialQuery@@@Z 10001cf0 f   bsptreedata.obj
 0001:00000dd0       ?Insert@CBSPTreeData@@UAEGHABVVector@@0@Z 10001dd0 f   bsptreedata.obj
 0001:00000e40       ?AddHandleToLeaf@CBSPTreeData@@AAEXHG@Z 10001e40 f   bsptreedata.obj
 0001:00000f00       ?EnumerateLeaf@CBSPTreeData@@UAE_NHH@Z 10001f00 f   bsptreedata.obj
 0001:00000f20       ?RemoveFromTree@CBSPTreeData@@AAEXG@Z 10001f20 f   bsptreedata.obj
 0001:00001010       ?ElementMoved@CBSPTreeData@@UAEXGABVVector@@0@Z 10002010 f   bsptreedata.obj
 0001:00001060       ?CreateBSPTreeData@@YAPAVIBSPTreeData@@XZ 10002060 f   bsptreedata.obj
 0001:00001080       ??_ECBSPTreeData@@UAEPAXI@Z 10002080 f i bsptreedata.obj
 0001:00001080       ??_GCBSPTreeData@@UAEPAXI@Z 10002080 f i bsptreedata.obj
 0001:000010b0       ?Remove@CBSPTreeData@@UAEXG@Z 100020b0 f   bsptreedata.obj
 0001:00001110       ??0Vector@@QAE@XZ          10002110 f i disp_common.obj
 0001:00001110       ??0Vector2D@@QAE@XZ        10002110 f i lightmap.obj
 0001:00001110       ??0cplane_t@@QAE@XZ        10002110 f i trace.obj
 0001:00001120       ??4Vector@@QAEAAV0@ABV0@@Z 10002120 f i disp_common.obj
 0001:00001140       ??AVector@@QBEMH@Z         10002140 f i disp_common.obj
 0001:00001150       ??HVector@@QBE?AV0@ABV0@@Z 10002150 f i disp_common.obj
 0001:00001180       ??GVector@@QBE?AV0@ABV0@@Z 10002180 f i disp_common.obj
 0001:000011b0       ??DVector@@QBE?AV0@M@Z     100021b0 f i disp_common.obj
 0001:000011e0       ?SetInvalid@CDispNeighbor@@QAEXXZ 100021e0 f i disp_common.obj
 0001:000011f0       ?SetInvalid@CDispCornerNeighbors@@QAEXXZ 100021f0 f i disp_common.obj
 0001:00001200       ?GetPoint@CCoreDispSurface@@QBEXHAAVVector@@@Z 10002200 f i disp_common.obj
 0001:00001230       ?GetSurface@CCoreDispInfo@@QAEPAVCCoreDispSurface@@XZ 10002230 f i disp_common.obj
 0001:00001240       ?GetEdgeIndexFromPoint@@YAHABVCVertIndex@@H@Z 10002240 f   disp_common.obj
 0001:00001290       ?SetupSpan@@YAXHHW4NeighborSpan@@AAVCVertIndex@@1@Z 10002290 f   disp_common.obj
 0001:00001320       ??0CDispSubEdgeIterator@@QAE@XZ 10002320 f   disp_common.obj
 0001:00001340       ?Next@CDispSubEdgeIterator@@QAE_NXZ 10002340 f   disp_common.obj
 0001:00001380       ?IsLastVert@CDispSubEdgeIterator@@QBE_NXZ 10002380 f   disp_common.obj
 0001:000013a0       ?VertIndexToInt@CDispUtilsHelper@@QBEHABVCVertIndex@@@Z 100023a0 f   disp_common.obj
 0001:000013c0       ?GetEdgeMidPoint@CDispUtilsHelper@@QBE?AVCVertIndex@@H@Z 100023c0 f   disp_common.obj
 0001:00001440       ?TransformIntoSubNeighbor@@YAPAVCDispUtilsHelper@@PAV1@HHABVCVertIndex@@AAV2@@Z 10002440 f   disp_common.obj
 0001:00001550       ?SetupEdgeIncrements@@YAPAVCDispUtilsHelper@@PAV1@HHAAVCVertIndex@@111AAH2@Z 10002550 f   disp_common.obj
 0001:00001710       ?Start@CDispSubEdgeIterator@@QAEXPAVCDispUtilsHelper@@HH_N@Z 10002710 f   disp_common.obj
 0001:00001c20       ?GetPowerInfo@@YAPBVCPowerInfo@@H@Z 10002c20 f   disp_powerinfo.obj
 0001:00001c30       ?GetCornerPointIndex@CPowerInfo@@QBEABVCVertIndex@@H@Z 10002c30 f   disp_powerinfo.obj
 0001:00001c50       ??0CVertInfo@@QAE@XZ       10002c50 f   disp_powerinfo.obj
 0001:00001e50       ?InitPowerInfo@@YAXPAVCPowerInfo@@H@Z 10002e50 f   disp_powerinfo.obj
 0001:00002320       ?VectorLength@@YAMABVVector@@@Z 10003320 f i disp_vrad.obj
 0001:00002350       ?Length@Vector@@QBEMXZ     10003350 f i disp_vrad.obj
 0001:00002380       ?FindNeighborCornerVert@@YAHPAVCCoreDispInfo@@ABVVector@@@Z 10003380 f   disp_vrad.obj
 0001:00002440       ?GetAllNeighbors@@YAHPBVCCoreDispInfo@@QAH@Z 10003440 f   disp_vrad.obj
 0001:00002550       ?BlendTJuncs@@YAXPAPAVCCoreDispInfo@@H@Z 10003550 f   disp_vrad.obj
 0001:00002780       ?BlendEdges@@YAXPAPAVCCoreDispInfo@@H@Z 10003780 f   disp_vrad.obj
 0001:00002a80       ?InsertMultipleBefore@?$CUtlVector@HV?$CUtlMemory@HH@@@@QAEHHHPBH@Z 10003a80 f i disp_vrad.obj
 0001:00002b20       ?BlendCorners@@YAXPAPAVCCoreDispInfo@@H@Z 10003b20 f   disp_vrad.obj
 0001:00002ed0       ?SmoothNeighboringDispSurfNormals@@YAXPAPAVCCoreDispInfo@@H@Z 10003ed0 f   disp_vrad.obj
 0001:00002f00       ?fabs@@YAMM@Z              10003f00 f i incremental.obj
 0001:00002f10       ??AVector@@QAEAAMH@Z       10003f10 f i incremental.obj
 0001:00002f20       ??_EIIncremental@@UAEPAXI@Z 10003f20 f i incremental.obj
 0001:00002f20       ??_GIIncremental@@UAEPAXI@Z 10003f20 f i incremental.obj
 0001:00003140       ?Init@CIncremental@@UAE_NPBD0@Z 10004140 f   incremental.obj
 0001:00003160       ??4dworldlight_t@@QAEAAU0@ABU0@@Z 10004160 f i incremental.obj
 0001:000031f0       ?Purge@?$CUtlMemory@EH@@QAEXXZ 100041f0 f i incremental.obj
 0001:00003220       ?Grow@?$CUtlMemory@Udoccluderpolydata_t@@H@@QAEXH@Z 10004220 f i bsplib.obj
 0001:00003220       ?Grow@?$CUtlMemory@VVector@@H@@QAEXH@Z 10004220 f i lightmap.obj
 0001:00003220       ?Grow@?$CUtlMemory@U?$UtlLinkedListElem_t@HH@@H@@QAEXH@Z 10004220 f i incremental.obj
 0001:000032c0       ?Purge@?$CUtlVector@DV?$CUtlMemory@DH@@@@QAEXXZ 100042c0 f i macro_texture.obj
 0001:000032c0       ?Purge@?$CUtlVector@VCIPAddr@@V?$CUtlMemory@VCIPAddr@@H@@@@QAEXXZ 100042c0 f i vmpi:vmpi.obj
 0001:000032c0       ?Purge@?$CUtlVector@EV?$CUtlMemory@EH@@@@QAEXXZ 100042c0 f i incremental.obj
 0001:000032c0       ?Purge@?$CUtlVector@VCLightValue@@V?$CUtlMemory@VCLightValue@@H@@@@QAEXXZ 100042c0 f i incremental.obj
 0001:00003310       ?RemoveAll@?$CUtlLinkedList@HH$0A@HV?$CUtlMemory@U?$UtlLinkedListElem_t@HH@@H@@@@QAEXXZ 10004310 f i incremental.obj
 0001:00003370       ?AllocInternal@?$CUtlLinkedList@P6AXPBD@ZG$0A@GV?$CUtlMemory@U?$UtlLinkedListElem_t@P6AXPBD@ZG@@G@@@@IAEG_N@Z 10004370 f i cmdlib.obj
 0001:00003370       ?AllocInternal@?$CUtlLinkedList@PAVCZip@@G$0A@GV?$CUtlMemory@U?$UtlLinkedListElem_t@PAVCZip@@G@@G@@@@IAEG_N@Z 10004370 f i zip_utils.obj
 0001:00003370       ?AllocInternal@?$CUtlLinkedList@P6AXXZG$0A@GV?$CUtlMemory@U?$UtlLinkedListElem_t@P6AXXZG@@G@@@@IAEG_N@Z 10004370 f i cmdlib.obj
 0001:00003370       ?AllocInternal@?$CUtlLinkedList@PAVCLightFace@@G$0A@GV?$CUtlMemory@U?$UtlLinkedListElem_t@PAVCLightFace@@G@@G@@@@IAEG_N@Z 10004370 f i incremental.obj
 0001:00003370       ?AllocInternal@?$CUtlLinkedList@PAVCIncLight@@G$0A@GV?$CUtlMemory@U?$UtlLinkedListElem_t@PAVCIncLight@@G@@G@@@@IAEG_N@Z 10004370 f i incremental.obj
 0001:00003490       ?AllocInternal@?$CUtlLinkedList@HH$0A@HV?$CUtlMemory@U?$UtlLinkedListElem_t@HH@@H@@@@IAEH_N@Z 10004490 f i incremental.obj
 0001:00003580       ??1?$CUtlVector@Udleafambientindex_t@@V?$CUtlMemory@Udleafambientindex_t@@H@@@@QAE@XZ 10004580 f i bsplib.obj
 0001:00003580       ??1?$CUtlVector@HV?$CUtlMemory@HH@@@@QAE@XZ 10004580 f i disp_vrad.obj
 0001:00003580       ??1?$CUtlVector@Udfaceid_t@@V?$CUtlMemory@Udfaceid_t@@H@@@@QAE@XZ 10004580 f i bsplib.obj
 0001:00003580       ??1?$CUtlVector@UResourceEntryInfo@@V?$CUtlMemory@UResourceEntryInfo@@H@@@@QAE@XZ 10004580 f i vtf:vtf.obj
 0001:00003580       ??1?$CUtlVector@UResourceMemorySection@CVTFTexture@@V?$CUtlMemory@UResourceMemorySection@CVTFTexture@@H@@@@QAE@XZ 10004580 f i vtf:vtf.obj
 0001:00003580       ??1?$CUtlVector@Uambientsample_t@@V?$CUtlMemory@Uambientsample_t@@H@@@@QAE@XZ 10004580 f i leaf_ambient_lighting.obj
 0001:00003580       ??1?$CUtlVector@Umaterialentry_t@CShadowTextureList@@V?$CUtlMemory@Umaterialentry_t@CShadowTextureList@@H@@@@QAE@XZ 10004580 f i vradstaticprops.obj
 0001:00003580       ??1?$CUtlVector@VVector@@V?$CUtlMemory@VVector@@H@@@@QAE@XZ 10004580 f i lightmap.obj
 0001:00003580       ??1?$CUtlVector@PAUStringPool_t@CUtlSymbolTable@@V?$CUtlMemory@PAUStringPool_t@CUtlSymbolTable@@H@@@@QAE@XZ 10004580 f i tier1:utlsymbol.obj
 0001:00003580       ??1?$CUtlVector@ULeaf_t@CBSPTreeData@@V?$CUtlMemory@ULeaf_t@CBSPTreeData@@H@@@@QAE@XZ 10004580 f i bsptreedata.obj
 0001:00003580       ??1?$CUtlVector@UCPatch@@V?$CUtlMemory@UCPatch@@H@@@@QAE@XZ 10004580 f i vrad.obj
 0001:00003580       ??1?$CUtlVector@VCDispTri@@V?$CUtlMemory@VCDispTri@@H@@@@QAE@XZ 10004580 f i bsplib.obj
 0001:00003580       ??1?$CUtlVector@DV?$CUtlMemory@DH@@@@QAE@XZ 10004580 f i macro_texture.obj
 0001:00003580       ??1?$CUtlVector@UCacheOptimizedKDNode@@V?$CUtlMemory@UCacheOptimizedKDNode@@H@@@@QAE@XZ 10004580 f i vrad.obj
 0001:00003580       ??1?$CUtlVector@PBDV?$CUtlMemory@PBDH@@@@QAE@XZ 10004580 f i vrad.obj
 0001:00003580       ??1?$CUtlVector@VCFaceMacroTextureInfo@@V?$CUtlMemory@VCFaceMacroTextureInfo@@H@@@@QAE@XZ 10004580 f i bsplib.obj
 0001:00003580       ??1?$CUtlVector@Udoccluderdata_t@@V?$CUtlMemory@Udoccluderdata_t@@H@@@@QAE@XZ 10004580 f i bsplib.obj
 0001:00003580       ??1?$CUtlVector@ULightDesc_t@@V?$CUtlMemory@ULightDesc_t@@H@@@@QAE@XZ 10004580 f i vrad.obj
 0001:00003580       ??1?$CUtlVector@Udplane_t@@V?$CUtlMemory@Udplane_t@@H@@@@QAE@XZ 10004580 f i leaf_ambient_lighting.obj
 0001:00003580       ??1?$CUtlVector@VCLMSize@CIncrementalHeader@@V?$CUtlMemory@VCLMSize@CIncrementalHeader@@H@@@@QAE@XZ 10004580 f i incremental.obj
 0001:00003580       ??1?$CUtlVector@PAVCMacroTextureData@@V?$CUtlMemory@PAVCMacroTextureData@@H@@@@QAE@XZ 10004580 f i macro_texture.obj
 0001:00003580       ??1?$CUtlVector@Udleafambientlighting_t@@V?$CUtlMemory@Udleafambientlighting_t@@H@@@@QAE@XZ 10004580 f i bsplib.obj
 0001:00003580       ??1?$CUtlVector@Ubumplights_t@@V?$CUtlMemory@Ubumplights_t@@H@@@@QAE@XZ 10004580 f i vrad.obj
 0001:00003580       ??1?$CUtlVector@VS3RGBA@@V?$CUtlMemory@VS3RGBA@@H@@@@QAE@XZ 10004580 f i vtf:vtf.obj
 0001:00003580       ??1?$CUtlVector@VCFileResponse@@V?$CUtlMemory@VCFileResponse@@H@@@@QAE@XZ 10004580 f i vmpi:vmpi_filesystem_worker.obj
 0001:00003580       ??1?$CUtlVector@Vddispinfo_t@@V?$CUtlMemory@Vddispinfo_t@@H@@@@QAE@XZ 10004580 f i bsplib.obj
 0001:00003580       ??1?$CUtlVector@PAXV?$CUtlMemory@PAXH@@@@QAE@XZ 10004580 f i vmpi:vmpi.obj
 0001:00003580       ??1?$CUtlVector@UDetailPropLightstylesLump_t@@V?$CUtlMemory@UDetailPropLightstylesLump_t@@H@@@@QAE@XZ 10004580 f i vraddetailprops.obj
 0001:00003580       ??1?$CUtlVector@VCDispVert@@V?$CUtlMemory@VCDispVert@@H@@@@QAE@XZ 10004580 f i bsplib.obj
 0001:00003580       ??1?$CUtlVector@Uvariable_t@@V?$CUtlMemory@Uvariable_t@@H@@@@QAE@XZ 10004580 f i scriplib.obj
 0001:00003580       ??1?$CUtlVector@VCIPAddr@@V?$CUtlMemory@VCIPAddr@@H@@@@QAE@XZ 10004580 f i vmpi:vmpi.obj
 0001:00003580       ??1?$CUtlVector@Utexinfo_s@@V?$CUtlMemory@Utexinfo_s@@H@@@@QAE@XZ 10004580 f i bsplib.obj
 0001:00003580       ??1?$CUtlVector@VCLightValue@@V?$CUtlMemory@VCLightValue@@H@@@@QAE@XZ 10004580 f i incremental.obj
 0001:00003580       ??1?$CUtlVector@PAVCVRADDispColl@@V?$CUtlMemory@PAVCVRADDispColl@@H@@@@QAE@XZ 10004580 f i vraddisps.obj
 0001:00003580       ??1?$CUtlVector@PADV?$CUtlMemory@PADH@@@@QAE@XZ 10004580 f i zip_utils.obj
 0001:00003580       ??1?$CUtlVector@PAVCTCPPacket@@V?$CUtlMemory@PAVCTCPPacket@@H@@@@QAE@XZ 10004580 f i vmpi:vmpi.obj
 0001:00003580       ??1?$CUtlVector@EV?$CUtlMemory@EH@@@@QAE@XZ 10004580 f i incremental.obj
 0001:00003580       ??1?$CUtlVector@VCWULookupInfo@@V?$CUtlMemory@VCWULookupInfo@@H@@@@QAE@XZ 10004580 f i vmpi:vmpi_distribute_work_default.obj
 0001:00003580       ??1?$CUtlVector@UbadVertex_t@@V?$CUtlMemory@UbadVertex_t@@H@@@@QAE@XZ 10004580 f i vradstaticprops.obj
 0001:00003580       ??1?$CUtlVector@VCChunkInfo@CMasterMulticastThread@@V?$CUtlMemory@VCChunkInfo@CMasterMulticastThread@@H@@@@QAE@XZ 10004580 f i vmpi:vmpi_filesystem_master.obj
 0001:00003580       ??1?$CUtlVector@VCMachineRecord@CTransmitRateMgr@@V?$CUtlMemory@VCMachineRecord@CTransmitRateMgr@@H@@@@QAE@XZ 10004580 f i vmpi:vmpi_filesystem_master.obj
 0001:00003580       ??1?$CUtlVector@_KV?$CUtlMemory@_KH@@@@QAE@XZ 10004580 f i vmpi:vmpi_distribute_work.obj
 0001:00003580       ??1?$CUtlVector@IV?$CUtlMemory@IH@@@@QAE@XZ 10004580 f i samplehash.obj
 0001:00003580       ??1?$CUtlVector@VCWUStatus@@V?$CUtlMemory@VCWUStatus@@H@@@@QAE@XZ 10004580 f i vmpi:vmpi_distribute_tracker.obj
 0001:00003580       ??1?$CUtlVector@Udoccluderpolydata_t@@V?$CUtlMemory@Udoccluderpolydata_t@@H@@@@QAE@XZ 10004580 f i bsplib.obj
 0001:00003580       ??1?$CUtlVector@UDispCollTree_t@CVRadDispMgr@@V?$CUtlMemory@UDispCollTree_t@CVRadDispMgr@@H@@@@QAE@XZ 10004580 f i vraddisps.obj
 0001:00003580       ??1?$CUtlVector@VCWorkerInfo@CWorkUnitWalker@@V?$CUtlMemory@VCWorkerInfo@CWorkUnitWalker@@H@@@@QAE@XZ 10004580 f i vmpi:vmpi_distribute_work_sdk.obj
 0001:000035f0       ?Unlink@?$CUtlLinkedList@HH$0A@HV?$CUtlMemory@U?$UtlLinkedListElem_t@HH@@H@@@@QAEXH@Z 100045f0 f i incremental.obj
 0001:00003670       ?DecodeCharOrShort@@YAGPAVCUtlBuffer@@@Z 10004670 f   incremental.obj
 0001:00003750       ?EncodeCharOrShort@@YAXPAVCUtlBuffer@@G@Z 10004750 f   incremental.obj
 0001:00003810       ?DecompressLightData@@YAXPAVCUtlBuffer@@PAV?$CUtlVector@VCLightValue@@V?$CUtlMemory@VCLightValue@@H@@@@@Z 10004810 f   incremental.obj
 0001:000038c0       ?CompressLightData@@YAXPBVCLightValue@@HPAVCUtlBuffer@@@Z 100048c0 f   incremental.obj
 0001:000039f0       ??0CIncLight@@QAE@XZ       100049f0 f   incremental.obj
 0001:00003a50       ??_ECIncremental@@UAEPAXI@Z 10004a50 f i incremental.obj
 0001:00003a50       ??_GCIncremental@@UAEPAXI@Z 10004a50 f i incremental.obj
 0001:00003ac0       ??_GCLightFace@@QAEPAXI@Z  10004ac0 f i incremental.obj
 0001:00003b10       ?CopyArray@?$CUtlVector@EV?$CUtlMemory@EH@@@@QAEXPBEH@Z 10004b10 f i incremental.obj
 0001:00003b10       ?CopyArray@?$CUtlVector@DV?$CUtlMemory@DH@@@@QAEXPBDH@Z 10004b10 f i mpivrad.obj
 0001:00003b80       ?PurgeAndDeleteElements@?$CUtlLinkedList@PAVCLightFace@@G$0A@GV?$CUtlMemory@U?$UtlLinkedListElem_t@PAVCLightFace@@G@@G@@@@QAEXXZ 10004b80 f i incremental.obj
 0001:00003c80       ?GetIncremental@@YAPAVIIncremental@@XZ 10004c80 f   incremental.obj
 0001:00003d10       ?ReadIncrementalHeader@CIncremental@@AAE_NJPAVCIncrementalHeader@@@Z 10004d10 f   incremental.obj
 0001:00003e30       ?WriteIncrementalHeader@CIncremental@@AAE_NJ@Z 10004e30 f   incremental.obj
 0001:00003f70       ?IsIncrementalFileValid@CIncremental@@AAE_NXZ 10004f70 f   incremental.obj
 0001:00004060       ?FinishFace@CIncremental@@UAEXGHH@Z 10005060 f   incremental.obj
 0001:00004150       ?GetFacesTouched@CIncremental@@UAEXAAV?$CUtlVector@EV?$CUtlMemory@EH@@@@@Z 10005150 f   incremental.obj
 0001:00004170       ?SaveIncrementalFile@CIncremental@@AAE_NXZ 10005170 f   incremental.obj
 0001:00004410       ?Serialize@CIncremental@@UAE_NXZ 10005410 f   incremental.obj
 0001:00004430       ?AddLightsForActiveLights@CIncremental@@AAEXXZ 10005430 f   incremental.obj
 0001:00004590       ?FindOrCreateLightFace@CIncLight@@QAEPAVCLightFace@@HHPA_N@Z 10005590 f   incremental.obj
 0001:00004720       ?PurgeAndDeleteElements@?$CUtlLinkedList@PAVCIncLight@@G$0A@GV?$CUtlMemory@U?$UtlLinkedListElem_t@PAVCIncLight@@G@@G@@@@QAEXXZ 10005720 f i incremental.obj
 0001:00004810       ?AddLightToFace@CIncremental@@UAEXGHHHMH@Z 10005810 f   incremental.obj
 0001:000048a0       ?LoadIncrementalFile@CIncremental@@AAE_NXZ 100058a0 f   incremental.obj
 0001:00004c60       ?PrepareForLighting@CIncremental@@UAE_NXZ 10005c60 f   incremental.obj
 0001:00005030       ?LinkLightsToFaces@CIncremental@@AAEXAAV?$CUtlVector@V?$CUtlVector@PAVCLightFace@@V?$CUtlMemory@PAVCLightFace@@H@@@@V?$CUtlMemory@V?$CUtlVector@PAVCLightFace@@V?$CUtlMemory@PAVCLightFace@@H@@@@H@@@@@Z 10006030 f   incremental.obj
 0001:00005160       ?Finalize@CIncremental@@UAE_NXZ 10006160 f   incremental.obj
 0001:000054c0       ?Init@Vector@@QAEXMMM@Z    100064c0 f i leaf_ambient_lighting.obj
 0001:000054e0       ?AddEmitSurfaceLights@@YAXABVVector@@QAV1@@Z 100064e0 f   leaf_ambient_lighting.obj
 0001:000058d0       ?ComputeAmbientFromSphericalSamples@@YAXHABVVector@@QAV1@@Z 100068d0 f   leaf_ambient_lighting.obj
 0001:00005c50       ?IsLeafAmbientSurfaceLight@@YA_NPAUdworldlight_t@@@Z 10006c50 f   leaf_ambient_lighting.obj
 0001:00005cf0       ?CubeDeltaGammaSpace@@YAHPAVVector@@0@Z 10006cf0 f   leaf_ambient_lighting.obj
 0001:00005d60       ?AABBDistance@@YAMABVVector@@000@Z 10006d60 f   leaf_ambient_lighting.obj
 0001:00005e50       ??4ambientsample_t@@QAEAAU0@ABU0@@Z 10006e50 f i leaf_ambient_lighting.obj
 0001:00005ee0       ?RemapValClamped@@YAMMMMMM@Z 10006ee0 f i leaf_ambient_lighting.obj
 0001:00005f60       ?Grow@?$CUtlMemory@Uambientsample_t@@H@@QAEXH@Z 10006f60 f i leaf_ambient_lighting.obj
 0001:00006010       ?GenerateLeafSamplePosition@CLeafSampler@@QAEXHABV?$CUtlVector@Udplane_t@@V?$CUtlMemory@Udplane_t@@H@@@@AAVVector@@@Z 10007010 f i leaf_ambient_lighting.obj
 0001:00006290       ?Mod_LeafAmbientColorAtPos@@YAXPAVVector@@ABV1@ABV?$CUtlVector@Uambientsample_t@@V?$CUtlMemory@Uambientsample_t@@H@@@@H@Z 10007290 f   leaf_ambient_lighting.obj
 0001:000064d0       ?CompressAmbientSampleList@@YAXAAV?$CUtlVector@Uambientsample_t@@V?$CUtlMemory@Uambientsample_t@@H@@@@@Z 100074d0 f   leaf_ambient_lighting.obj
 0001:00006560       ?InsertBefore@?$CUtlVector@Udplane_t@@V?$CUtlMemory@Udplane_t@@H@@@@QAEHHABUdplane_t@@@Z 10007560 f i leaf_ambient_lighting.obj
 0001:000065f0       ?InsertMultipleBefore@?$CUtlVector@Uambientsample_t@@V?$CUtlMemory@Uambientsample_t@@H@@@@QAEHHHPBUambientsample_t@@@Z 100075f0 f i leaf_ambient_lighting.obj
 0001:000066a0       ?InsertBefore@?$CUtlVector@PADV?$CUtlMemory@PADH@@@@QAEHHABQAD@Z 100076a0 f i tier1:strtools.obj
 0001:000066a0       ?InsertBefore@?$CUtlVector@HV?$CUtlMemory@HH@@@@QAEHHABH@Z 100076a0 f i leaf_ambient_lighting.obj
 0001:00006710       ?GetLeafBoundaryPlanes@@YAXAAV?$CUtlVector@Udplane_t@@V?$CUtlMemory@Udplane_t@@H@@@@H@Z 10007710 f   leaf_ambient_lighting.obj
 0001:00006810       ?AddSampleToList@@YAXAAV?$CUtlVector@Uambientsample_t@@V?$CUtlMemory@Uambientsample_t@@H@@@@ABVVector@@PAV2@@Z 10007810 f   leaf_ambient_lighting.obj
 0001:00006b00       ?EnumerateLeaf@CLeafList@@UAE_NHH@Z 10007b00 f i leaf_ambient_lighting.obj
 0001:00006b60       ?NearestNeighborWithLight@@YAHH@Z 10007b60 f   leaf_ambient_lighting.obj
 0001:00006d70       ?ComputeAmbientForLeaf@@YAXHHAAV?$CUtlVector@Uambientsample_t@@V?$CUtlMemory@Uambientsample_t@@H@@@@@Z 10007d70 f   leaf_ambient_lighting.obj
 0001:00006ea0       ?VMPI_ProcessLeafAmbient@@YAXH_KPAVMessageBuffer@@@Z 10007ea0 f   leaf_ambient_lighting.obj
 0001:00006f20       ?RemoveAll@?$CUtlVector@V?$CUtlVector@Uambientsample_t@@V?$CUtlMemory@Uambientsample_t@@H@@@@V?$CUtlMemory@V?$CUtlVector@Uambientsample_t@@V?$CUtlMemory@Uambientsample_t@@H@@@@H@@@@QAEXXZ 10007f20 f i leaf_ambient_lighting.obj
 0001:00006f20       ?RemoveAll@?$CUtlVector@UClusterDispList_t@@V?$CUtlMemory@UClusterDispList_t@@H@@@@QAEXXZ 10007f20 f i vismat.obj
 0001:00006f20       ?RemoveAll@?$CUtlVector@V?$CUtlVector@PAVCLightFace@@V?$CUtlMemory@PAVCLightFace@@H@@@@V?$CUtlMemory@V?$CUtlVector@PAVCLightFace@@V?$CUtlMemory@PAVCLightFace@@H@@@@H@@@@QAEXXZ 10007f20 f i incremental.obj
 0001:00006f20       ?RemoveAll@?$CUtlVector@V?$CUtlVector@UDispCollPlaneIndex_t@@V?$CUtlMemory@UDispCollPlaneIndex_t@@H@@@@V?$CUtlMemory@V?$CUtlVector@UDispCollPlaneIndex_t@@V?$CUtlMemory@UDispCollPlaneIndex_t@@H@@@@H@@@@QAEXXZ 10007f20 f i dispcoll_common.obj
 0001:00007150       ?VMPI_ReceiveLeafAmbientResults@@YAX_KPAVMessageBuffer@@H@Z 10008150 f   leaf_ambient_lighting.obj
 0001:000071b0       ?SetCount@?$CUtlVector@Udleafambientindex_t@@V?$CUtlMemory@Udleafambientindex_t@@H@@@@QAEXH@Z 100081b0 f i leaf_ambient_lighting.obj
 0001:00007210       ??1?$CUtlVector@UClusterDispList_t@@V?$CUtlMemory@UClusterDispList_t@@H@@@@QAE@XZ 10008210 f i vismat.obj
 0001:00007210       ??1?$CUtlVector@V?$CUtlVector@Uambientsample_t@@V?$CUtlMemory@Uambientsample_t@@H@@@@V?$CUtlMemory@V?$CUtlVector@Uambientsample_t@@V?$CUtlMemory@Uambientsample_t@@H@@@@H@@@@QAE@XZ 10008210 f i leaf_ambient_lighting.obj
 0001:00007210       ??1?$CUtlVector@V?$CUtlVector@UDispCollPlaneIndex_t@@V?$CUtlMemory@UDispCollPlaneIndex_t@@H@@@@V?$CUtlMemory@V?$CUtlVector@UDispCollPlaneIndex_t@@V?$CUtlMemory@UDispCollPlaneIndex_t@@H@@@@H@@@@QAE@XZ 10008210 f i dispcoll_common.obj
 0001:00007270       ?InsertMultipleBefore@?$CUtlVector@V?$CUtlVector@Uambientsample_t@@V?$CUtlMemory@Uambientsample_t@@H@@@@V?$CUtlMemory@V?$CUtlVector@Uambientsample_t@@V?$CUtlMemory@Uambientsample_t@@H@@@@H@@@@QAEHHHPBV?$CUtlVector@Uambientsample_t@@V?$CUtlMemory@Uambientsample_t@@H@@@@@Z 10008270 f i leaf_ambient_lighting.obj
 0001:00007460       ?ComputePerLeafAmbientLighting@@YAXXZ 10008460 f   leaf_ambient_lighting.obj
 0001:000079e0       _cosf                      100089e0 f i lightmap.obj
 0001:000079f0       ?VectorScale@@YAXABVVector@@MAAV1@@Z 100089f0 f i lightmap.obj
 0001:00007a20       ?PowSIMD@@YA?AT__m128@@ABT1@M@Z 10008a20 f i lightmap.obj
 0001:00007a40       ?GetBumpNormals@@YAXPBM0ABVVector@@1QAV1@@Z 10008a40 f   lightmap.obj
 0001:00007a90       ?PairEdges@@YAXXZ          10008a90 f   lightmap.obj
 0001:00008070       ?LightmapCoordWindingForFace@@YAPAUwinding_t@@PAUlightinfo_t@@@Z 10009070 f   lightmap.obj
 0001:000080e0       ?DumpFaces@@YAXPAUlightinfo_t@@H@Z 100090e0 f   lightmap.obj
 0001:000083a0       ?FreeSampleWindings@@YAXPAUfacelight_t@@@Z 100093a0 f   lightmap.obj
 0001:000083e0       ?BuildFaceLuxels@@YA_NPAUlightinfo_t@@PAUfacelight_t@@@Z 100093e0 f   lightmap.obj
 0001:000084a0       ?FindTargetEntity@@YAPAUentity_t@@PAD@Z 100094a0 f   lightmap.obj
 0001:00008520       ?LightForString@@YAHPADAAVVector@@@Z 10009520 f   lightmap.obj
 0001:00008980       ?CanLeafTraceToSky@@YA_NH@Z 10009980 f   lightmap.obj
 0001:00008b20       ?ExportDirectLightsToWorldLights@@YAXXZ 10009b20 f   lightmap.obj
 0001:00008c20       ?GatherSampleSkyLightSSE@@YAXAAUSSE_sampleLightOutput_t@@PAUdirectlight_t@@HABVFourVectors@@PAV3@HHHHM@Z 10009c20 f   lightmap.obj
 0001:00008f10       ?GatherSampleAmbientSkySSE@@YAXAAUSSE_sampleLightOutput_t@@PAUdirectlight_t@@HABVFourVectors@@PAV3@HHHHM@Z 10009f10 f   lightmap.obj
 0001:000092f0       ?GatherSampleStandardLightSSE@@YAXAAUSSE_sampleLightOutput_t@@PAUdirectlight_t@@HABVFourVectors@@PAV3@HHHHM@Z 1000a2f0 f   lightmap.obj
 0001:000098d0       ?GatherSampleLightSSE@@YAXAAUSSE_sampleLightOutput_t@@PAUdirectlight_t@@HABVFourVectors@@PAV3@HHHHM@Z 1000a8d0 f   lightmap.obj
 0001:00009a10       ?GetPhongNormal@@YAXHABVVector@@AAV1@@Z 1000aa10 f   lightmap.obj
 0001:00009ce0       ?GetPhongNormal@@YAXHABVFourVectors@@AAV1@@Z 1000ace0 f   lightmap.obj
 0001:0000a270       ?GetVisCache@@YAHHHPAE@Z   1000b270 f   lightmap.obj
 0001:0000abd0       ?PointsInWinding@@YA_NABVFourVectors@@PAUwinding_t@@AAH@Z 1000bbd0 f   lightmap.obj
 0001:0000b100       ?ConvertRGBExp32ToRGBA8888@@YAXPBUColorRGBExp32@@PAE@Z 1000c100 f   lightmap.obj
 0001:0000b2d0       ?MergeDLightVis@@YAXPAUdirectlight_t@@H@Z 1000c2d0 f   lightmap.obj
 0001:0000bb90       ?CalcFaceVectors@@YAXPAUlightinfo_t@@@Z 1000cb90 f   lightmap.obj
 0001:0000bd50       ?BuildFacesamplesAndLuxels_DoFast@@YA_NPAUlightinfo_t@@PAUfacelight_t@@@Z 1000cd50 f   lightmap.obj
 0001:0000bef0       ?BuildFacesamples@@YA_NPAUlightinfo_t@@PAUfacelight_t@@@Z 1000cef0 f   lightmap.obj
 0001:0000c240       ?CalcPoints@@YAXPAUlightinfo_t@@PAUfacelight_t@@H@Z 1000d240 f   lightmap.obj
 0001:0000c330       ?AllocDLight@@YAPAUdirectlight_t@@AAVVector@@_N@Z 1000d330 f   lightmap.obj
 0001:0000c570       ?BuildVisForLightEnvironment@@YAXXZ 1000d570 f   lightmap.obj
 0001:0000c980       ?CreateDirectLights@@YAXXZ 1000d980 f   lightmap.obj
 0001:0000cc60       ?AddSampleToPatch@@YAXPAUsample_t@@AAULightingValue_t@@H@Z 1000dc60 f   lightmap.obj
 0001:0000cdb0       ?DumpSamples@@YAXHPAUfacelight_t@@@Z 1000ddb0 f   lightmap.obj
 0001:0000cf00       ?InitLightinfo@@YAXPAUlightinfo_t@@H@Z 1000df00 f   lightmap.obj
 0001:0000d180       ?BuildPatchLights@@YAXH@Z  1000e180 f   lightmap.obj
 0001:0000d5b0       ?InsertBefore@?$CUtlVector@VVector@@V?$CUtlMemory@VVector@@H@@@@QAEHHABVVector@@@Z 1000e5b0 f i lightmap.obj
 0001:0000d630       ?BuildFacelights@@YAXHH@Z  1000e630 f   lightmap.obj
 0001:0000db90       ??1CNormalList@@QAE@XZ     1000eb90 f i lightmap.obj
 0001:0000dc10       ??0CNormalList@@QAE@XZ     1000ec10 f   lightmap.obj
 0001:0000dc60       ?FindOrAddNormal@CNormalList@@QAEHABVVector@@@Z 1000ec60 f   lightmap.obj
 0001:0000de20       ?SaveVertexNormals@@YAXXZ  1000ee20 f   lightmap.obj
 0001:0000df60       ?PrecompLightmapOffsets@@YAXXZ 1000ef60 f   lightmap.obj
 0001:0000e260       ?LoadCmdLineFromFile@@YAXAAHAAPAPADPBD2@Z 1000f260 f   loadcmdline.obj
 0001:0000e330       ?DeleteCmdLine@@YAXHPAPAD@Z 1000f330 f   loadcmdline.obj
 0001:0000e370       ?MemAlloc_StrDup@@YAPADPBD@Z 1000f370 f i macro_texture.obj
 0001:0000e3c0       ?CaselessStringLessThan@@YA_NABQBD0@Z 1000f3c0 f i macro_texture.obj
 0001:0000e3e0       ?Grow@?$CUtlMemory@EH@@QAEXH@Z 1000f3e0 f i incremental.obj
 0001:0000e3e0       ?Grow@?$CUtlMemory@DH@@QAEXH@Z 1000f3e0 f i macro_texture.obj
 0001:0000e490       ?SampleMacroTexture@@YA?AVVector@@PBVCMacroTextureData@@ABV1@@Z 1000f490 f i macro_texture.obj
 0001:0000e5c0       ?EnsureCapacity@?$CUtlMemory@EH@@QAEXH@Z 1000f5c0 f i macro_texture.obj
 0001:0000e610       ?Parent@?$CUtlRBTree@UNode_t@?$CUtlMap@PBDPAVCMacroTextureData@@H@@HVCKeyLess@2@V?$CUtlMemory@U?$UtlRBTreeNode_t@UNode_t@?$CUtlMap@PBDPAVCMacroTextureData@@H@@H@@H@@@@QBEHH@Z 1000f610 f i macro_texture.obj
 0001:0000e670       ?Grow@?$CUtlMemory@UMeshData_t@CVradStaticPropMgr@@H@@QAEXH@Z 1000f670 f i vradstaticprops.obj
 0001:0000e670       ?Grow@?$CUtlMemory@U?$UtlLinkedListElem_t@Umsg_t@CMySqlDatabase@@H@@H@@QAEXH@Z 1000f670 f i MySqlDatabase.obj
 0001:0000e670       ?Grow@?$CUtlMemory@UfileList_t@@H@@QAEXH@Z 1000f670 f i scriplib.obj
 0001:0000e670       ?Grow@?$CUtlMemory@U?$UtlRBTreeNode_t@UNode_t@?$CUtlMap@PBDPAVCMacroTextureData@@H@@H@@H@@QAEXH@Z 1000f670 f i macro_texture.obj
 0001:0000e670       ?Grow@?$CUtlMemory@Uclusterlist_t@@H@@QAEXH@Z 1000f670 f i bsplib.obj
 0001:0000e710       ?ApplyMacroTextures@@YAXHABVVector@@AAV1@@Z 1000f710 f   macro_texture.obj
 0001:0000e790       ?RightChild@?$CUtlRBTree@UNode_t@?$CUtlMap@PBDPAVCMacroTextureData@@H@@HVCKeyLess@2@V?$CUtlMemory@U?$UtlRBTreeNode_t@UNode_t@?$CUtlMap@PBDPAVCMacroTextureData@@H@@H@@H@@@@QBEHH@Z 1000f790 f i macro_texture.obj
 0001:0000e7f0       ?FindInsertionPosition@?$CUtlRBTree@UNode_t@?$CUtlMap@PBDPAVCMacroTextureData@@H@@HVCKeyLess@2@V?$CUtlMemory@U?$UtlRBTreeNode_t@UNode_t@?$CUtlMap@PBDPAVCMacroTextureData@@H@@H@@H@@@@IAEXABUNode_t@?$CUtlMap@PBDPAVCMacroTextureData@@H@@AAHAA_N@Z 1000f7f0 f i macro_texture.obj
 0001:0000e8e0       ?InsertMultipleBefore@?$CUtlVector@DV?$CUtlMemory@DH@@@@QAEHHHPBD@Z 1000f8e0 f i macro_texture.obj
 0001:0000e970       ?NewNode@?$CUtlRBTree@UNode_t@?$CUtlMap@PBDPAVCMacroTextureData@@H@@HVCKeyLess@2@V?$CUtlMemory@U?$UtlRBTreeNode_t@UNode_t@?$CUtlMap@PBDPAVCMacroTextureData@@H@@H@@H@@@@QAEHXZ 1000f970 f i macro_texture.obj
 0001:0000ea30       ?FirstInorder@?$CUtlRBTree@UNode_t@?$CUtlMap@PBDPAVCMacroTextureData@@H@@HVCKeyLess@2@V?$CUtlMemory@U?$UtlRBTreeNode_t@UNode_t@?$CUtlMap@PBDPAVCMacroTextureData@@H@@H@@H@@@@QBEHXZ 1000fa30 f i macro_texture.obj
 0001:0000ead0       ?IsRightChild@?$CUtlRBTree@UNode_t@?$CUtlMap@PBDPAVCMacroTextureData@@H@@HVCKeyLess@2@V?$CUtlMemory@U?$UtlRBTreeNode_t@UNode_t@?$CUtlMap@PBDPAVCMacroTextureData@@H@@H@@H@@@@QBE_NH@Z 1000fad0 f i macro_texture.obj
 0001:0000eb80       ?IsLeftChild@?$CUtlRBTree@UNode_t@?$CUtlMap@PBDPAVCMacroTextureData@@H@@HVCKeyLess@2@V?$CUtlMemory@U?$UtlRBTreeNode_t@UNode_t@?$CUtlMap@PBDPAVCMacroTextureData@@H@@H@@H@@@@QBE_NH@Z 1000fb80 f i macro_texture.obj
 0001:0000ec30       ?RotateLeft@?$CUtlRBTree@UNode_t@?$CUtlMap@PBDPAVCMacroTextureData@@H@@HVCKeyLess@2@V?$CUtlMemory@U?$UtlRBTreeNode_t@UNode_t@?$CUtlMap@PBDPAVCMacroTextureData@@H@@H@@H@@@@IAEXH@Z 1000fc30 f i macro_texture.obj
 0001:0000ede0       ?RotateRight@?$CUtlRBTree@UNode_t@?$CUtlMap@PBDPAVCMacroTextureData@@H@@HVCKeyLess@2@V?$CUtlMemory@U?$UtlRBTreeNode_t@UNode_t@?$CUtlMap@PBDPAVCMacroTextureData@@H@@H@@H@@@@IAEXH@Z 1000fde0 f i macro_texture.obj
 0001:0000ef60       ?Find@?$CUtlRBTree@UNode_t@?$CUtlMap@PBDPAVCMacroTextureData@@H@@HVCKeyLess@2@V?$CUtlMemory@U?$UtlRBTreeNode_t@UNode_t@?$CUtlMap@PBDPAVCMacroTextureData@@H@@H@@H@@@@QBEHABUNode_t@?$CUtlMap@PBDPAVCMacroTextureData@@H@@@Z 1000ff60 f i macro_texture.obj
 0001:0000f050       ?RemoveAll@?$CUtlRBTree@UNode_t@?$CUtlMap@PBDPAVCMacroTextureData@@H@@HVCKeyLess@2@V?$CUtlMemory@U?$UtlRBTreeNode_t@UNode_t@?$CUtlMap@PBDPAVCMacroTextureData@@H@@H@@H@@@@QAEXXZ 10010050 f i macro_texture.obj
 0001:0000f110       ?NextInorder@?$CUtlRBTree@UNode_t@?$CUtlMap@PBDPAVCMacroTextureData@@H@@HVCKeyLess@2@V?$CUtlMemory@U?$UtlRBTreeNode_t@UNode_t@?$CUtlMap@PBDPAVCMacroTextureData@@H@@H@@H@@@@QBEHH@Z 10010110 f i macro_texture.obj
 0001:0000f280       ?InsertRebalance@?$CUtlRBTree@UNode_t@?$CUtlMap@PBDPAVCMacroTextureData@@H@@HVCKeyLess@2@V?$CUtlMemory@U?$UtlRBTreeNode_t@UNode_t@?$CUtlMap@PBDPAVCMacroTextureData@@H@@H@@H@@@@IAEXH@Z 10010280 f i macro_texture.obj
 0001:0000f6e0       ?LinkToParent@?$CUtlRBTree@UNode_t@?$CUtlMap@PBDPAVCMacroTextureData@@H@@HVCKeyLess@2@V?$CUtlMemory@U?$UtlRBTreeNode_t@UNode_t@?$CUtlMap@PBDPAVCMacroTextureData@@H@@H@@H@@@@IAEXHH_N@Z 100106e0 f i macro_texture.obj
 0001:0000f750       ?SetSize@?$CUtlVector@EV?$CUtlMemory@EH@@@@QAEXH@Z 10010750 f i incremental.obj
 0001:0000f750       ?SetSize@?$CUtlVector@DV?$CUtlMemory@DH@@@@QAEXH@Z 10010750 f i macro_texture.obj
 0001:0000f7a0       ??1?$CUtlRBTree@UNode_t@?$CUtlMap@PBDPAVCMacroTextureData@@H@@HVCKeyLess@2@V?$CUtlMemory@U?$UtlRBTreeNode_t@UNode_t@?$CUtlMap@PBDPAVCMacroTextureData@@H@@H@@H@@@@QAE@XZ 100107a0 f i macro_texture.obj
 0001:0000f800       ?RemoveAll@?$CUtlDict@PAVCMacroTextureData@@H@@QAEXXZ 10010800 f i macro_texture.obj
 0001:0000f850       ?LoadMacroTextureFile@@YAPAVCMacroTextureData@@PBD@Z 10010850 f   macro_texture.obj
 0001:0000fa30       ?Insert@?$CUtlDict@PAVCMacroTextureData@@H@@QAEHPBDABQAVCMacroTextureData@@@Z 10010a30 f i macro_texture.obj
 0001:0000fae0       ?InitMacroTexture@@YAXPBD@Z 10010ae0 f   macro_texture.obj
 0001:0000fd90       ?MakeModuleFileName@@YAPBDXZ 10010d90 f   memoverride.obj
 0001:0000fe20       ??2@YAPAXI@Z               10010e20 f   memoverride.obj
 0001:0000fe20       __malloc_crt               10010e20 f   memoverride.obj
 0001:0000fe20       _malloc                    10010e20 f   memoverride.obj
 0001:0000fe80       _calloc                    10010e80 f   memoverride.obj
 0001:0000ff00       __calloc_base              10010f00 f   memoverride.obj
 0001:0000ff80       __realloc_base             10010f80 f   memoverride.obj
 0001:0000ffe0       __recalloc_base            10010fe0 f   memoverride.obj
 0001:00010070       __calloc_crt               10011070 f   memoverride.obj
 0001:00010090       __realloc_crt              10011090 f   memoverride.obj
 0001:000100a0       __recalloc_crt             100110a0 f   memoverride.obj
 0001:000100c0       __msize                    100110c0 f   memoverride.obj
 0001:000100e0       __heap_init                100110e0 f   memoverride.obj
 0001:000100f0       _free                      100110f0 f   memoverride.obj
 0001:000100f0       ??3@YAXPAX@Z               100110f0 f   memoverride.obj
 0001:000100f0       ??_V@YAXPAX@Z              100110f0 f   memoverride.obj
 0001:00010110       __strdup                   10011110 f   memoverride.obj
 0001:00010190       ?GetBufferType@CCodecBuffer@@UBE?BW4_CodecBufferType@@XZ 10011190 f i bitmap:CodecBuffer.obj
 0001:00010190       __expand                   10011190 f i memoverride.obj
 0001:00010190       __wcsdup                   10011190 f i memoverride.obj
 0001:00010190       ?GetID@ISQLDBCommand@@UAEHXZ 10011190 f i mpi_stats.obj
 0001:00010190       ?sync@?$basic_streambuf@DU?$char_traits@D@std@@@std@@MAEHXZ 10011190 f i chunkfile.obj
 0001:00010190       ?GetReturnData@ISQLDBCommand@@UAEPAXXZ 10011190 f i mpi_stats.obj
 0001:000101a0       ?GetDebugInfo@ISQLDBCommand@@UAEXPADH@Z 100111a0 f i mpi_stats.obj
 0001:000101b0       ??_GCSQLDBCommand_WorkerStats@@UAEPAXI@Z 100111b0 f i mpi_stats.obj
 0001:000101b0       ??_GCSQLDBCommand_GraphEntry@@UAEPAXI@Z 100111b0 f i mpi_stats.obj
 0001:000101b0       ??_ECSQLDBCommand_GraphEntry@@UAEPAXI@Z 100111b0 f i mpi_stats.obj
 0001:000101b0       ??_EISQLDBCommand@@MAEPAXI@Z 100111b0 f i mpi_stats.obj
 0001:000101b0       ??_GCSQLDBCommand_JobMasterEnd@@UAEPAXI@Z 100111b0 f i mpi_stats.obj
 0001:000101b0       ??_GISQLDBCommand@@MAEPAXI@Z 100111b0 f i mpi_stats.obj
 0001:000101b0       ??_ECSQLDBCommand_WorkerStats@@UAEPAXI@Z 100111b0 f i mpi_stats.obj
 0001:000101b0       ??_ECSQLDBCommand_JobMasterEnd@@UAEPAXI@Z 100111b0 f i mpi_stats.obj
 0001:000101e0       ?FormatStringForSQL@@YAPADPBD@Z 100111e0 f   mpi_stats.obj
 0001:00010250       ?UnloadMySQLWrapper@@YAXXZ 10011250 f   mpi_stats.obj
 0001:00010290       ?LoadMySQLWrapper@@YA_NPBD00@Z 10011290 f   mpi_stats.obj
 0001:00010370       ?GetDBInfo@@YAXPBDPAVCDBInfo@@@Z 10011370 f   mpi_stats.obj
 0001:000104c0       ?RunJobWatchApp@@YAXPAD@Z  100114c0 f   mpi_stats.obj
 0001:00010590       ?deleteThis@CSQLDBCommandBase@@UAEXXZ 10011590 f i mpi_stats.obj
 0001:00010590       ?Release@CThreadedTCPSocket@@UAEXXZ 10011590 f i vmpi:ThreadedTCPSocket.obj
 0001:000105a0       ??_ECSQLDBCommand_TextMessage@@UAEPAXI@Z 100115a0 f i mpi_stats.obj
 0001:000105a0       ??_GCSQLDBCommand_TextMessage@@UAEPAXI@Z 100115a0 f i mpi_stats.obj
 0001:000105e0       ?RunCommand@CSQLDBCommand_WorkerStats@@UAEHXZ 100115e0 f i mpi_stats.obj
 0001:000106b0       ?PerfThread_AddGraphEntry@@YAXKAAK0@Z 100116b0 f   mpi_stats.obj
 0001:00010740       ?VMPI_Stats_Term@@YAXXZ    10011740 f   mpi_stats.obj
 0001:00010850       ?Execute@CMySQLQuery@@QAEHPAVIMySQL@@@Z 10011850 f   mpi_stats.obj
 0001:000108b0       ?VMPI_Stats_SpewHook@@YAXPBD@Z 100118b0 f   mpi_stats.obj
 0001:00010900       ?PerfThread_SendSpewText@@YAXXZ 10011900 f   mpi_stats.obj
 0001:00010a40       ?PerfThreadFn@@YGKPAX@Z    10011a40 f   mpi_stats.obj
 0001:00010b60       ?VMPI_Stats_InstallSpewHook@@YAXXZ 10011b60 f   mpi_stats.obj
 0001:00010b70       ?Format@CMySQLQuery@@QAAXPBDZZ 10011b70 f   mpi_stats.obj
 0001:00010c50       ?RunCommand@CSQLDBCommand_JobMasterEnd@@UAEHXZ 10011c50 f i mpi_stats.obj
 0001:00010d40       ?UpdateJobWorkerRunningTime@@YAXXZ 10011d40 f   mpi_stats.obj
 0001:00010e00       ?RunCommand@CSQLDBCommand_GraphEntry@@UAEHXZ 10011e00 f i mpi_stats.obj
 0001:00010ea0       ?RunCommand@CSQLDBCommand_TextMessage@@UAEHXZ 10011ea0 f i mpi_stats.obj
 0001:00010f30       ?VMPI_Stats_Init_Worker@@YA_NPBD00K@Z 10011f30 f   mpi_stats.obj
 0001:000110e0       ?VMPI_Stats_Init_Master@@YA_NPBD000PAK@Z 100120e0 f   mpi_stats.obj
 0001:00011260       ?StatsDB_InitStatsDatabase@@YAXHPAPADPBD@Z 10012260 f   mpi_stats.obj
 0001:000113d0       ?VRAD_SetupMPI@@YAXAAHAAPAPAD@Z 100123d0 f   mpivrad.obj
 0001:000114a0       ?MPI_AddPatchData@@YAXHHPAUCPatch@@@Z 100124a0 f   mpivrad.obj
 0001:00011500       ?End@CFastTimer@@QAEXXZ    10012500 f i mpivrad.obj
 0001:00011540       ?SerializeFace@@YAXPAVMessageBuffer@@H@Z 10012540 f   mpivrad.obj
 0001:00011610       ?UnSerializeFace@@YAXPAVMessageBuffer@@HH@Z 10012610 f   mpivrad.obj
 0001:00011830       ?MPI_ReceiveFaceResults@@YAX_KPAVMessageBuffer@@H@Z 10012830 f   mpivrad.obj
 0001:00011850       ??$SwapBufferToTargetEndian@I@CByteswap@@QAEXPAI0H@Z 10012850 f i tier1:KeyValues.obj
 0001:00011850       ??$SwapBufferToTargetEndian@H@CByteswap@@QAEXPAH0H@Z 10012850 f i mpivrad.obj
 0001:000118d0       ?MPI_ReceiveVisLeafsResults@@YAX_KPAVMessageBuffer@@H@Z 100128d0 f   mpivrad.obj
 0001:00011990       ??$PutTypeBin@D@CUtlBuffer@@IAEXD@Z 10012990 f i mpivrad.obj
 0001:000119c0       ??$GetTypeBin@D@CUtlBuffer@@IAEXAAD@Z 100129c0 f i mpivrad.obj
 0001:00011a00       ??$PutTypeBin@H@CUtlBuffer@@IAEXH@Z 10012a00 f i mpivrad.obj
 0001:00011a60       ?PutTabs@CUtlBuffer@@IAEXXZ 10012a60 f i mpivrad.obj
 0001:00011ab0       ?MPI_ProcessFaces@@YAXH_KPAVMessageBuffer@@@Z 10012ab0 f   mpivrad.obj
 0001:00011b40       ?RunMPIBuildFacelights@@YAXXZ 10012b40 f   mpivrad.obj
 0001:00011c30       ?MPI_ProcessVisLeafs@@YAXH_KPAVMessageBuffer@@@Z 10012c30 f   mpivrad.obj
 0001:00011d10       ?RunMPIBuildVisLeafs@@YAXXZ 10012d10 f   mpivrad.obj
 0001:00011e70       ?GetChar@CUtlBuffer@@QAEDXZ 10012e70 f i mpivrad.obj
 0001:00011ed0       ?GetInt@CUtlBuffer@@QAEHXZ 10012ed0 f i mpivrad.obj
 0001:00011f50       ?EnsureCount@?$CUtlVector@EV?$CUtlMemory@EH@@@@QAEXH@Z 10012f50 f i mpivrad.obj
 0001:00011fb0       ?VMPI_DistributeLightData@@YAXXZ 10012fb0 f   mpivrad.obj
 0001:000123e0       ?VRAD_DispatchFn@@YA_NPAVMessageBuffer@@HH@Z 100133e0 f   mpivrad.obj
 0001:00012420       ?QueriesInOutQueue@CMySqlDatabase@@UAEHXZ 10013420 f   MySqlDatabase.obj
 0001:00012430       ?QueriesInFinishedQueue@CMySqlDatabase@@UAEHXZ 10013430 f   MySqlDatabase.obj
 0001:00012440       ?AllocInternal@?$CUtlLinkedList@Umsg_t@CMySqlDatabase@@H$0A@HV?$CUtlMemory@U?$UtlLinkedListElem_t@Umsg_t@CMySqlDatabase@@H@@H@@@@IAEH_N@Z 10013440 f i MySqlDatabase.obj
 0001:00012530       ?RemoveAll@?$CUtlLinkedList@Umsg_t@CMySqlDatabase@@H$0A@HV?$CUtlMemory@U?$UtlLinkedListElem_t@Umsg_t@CMySqlDatabase@@H@@H@@@@QAEXXZ 10013530 f i MySqlDatabase.obj
 0001:00012590       ?Unlink@?$CUtlLinkedList@Umsg_t@CMySqlDatabase@@H$0A@HV?$CUtlMemory@U?$UtlLinkedListElem_t@Umsg_t@CMySqlDatabase@@H@@H@@@@QAEXH@Z 10013590 f i MySqlDatabase.obj
 0001:00012610       ??0CMySqlDatabase@@QAE@XZ  10013610 f   MySqlDatabase.obj
 0001:00012690       ??1CMySqlDatabase@@QAE@XZ  10013690 f   MySqlDatabase.obj
 0001:00012740       ?AddToTail@?$CUtlLinkedList@Umsg_t@CMySqlDatabase@@H$0A@HV?$CUtlMemory@U?$UtlLinkedListElem_t@Umsg_t@CMySqlDatabase@@H@@H@@@@QAEHABUmsg_t@CMySqlDatabase@@@Z 10013740 f i MySqlDatabase.obj
 0001:000127c0       ?RunThread@CMySqlDatabase@@QAEXXZ 100137c0 f   MySqlDatabase.obj
 0001:000129c0       ?AddCommandToQueue@CMySqlDatabase@@QAEXPAVISQLDBCommand@@PAVISQLDBReplyTarget@@H@Z 100139c0 f   MySqlDatabase.obj
 0001:00012a40       ?Initialize@CMySqlDatabase@@QAE_NXZ 10013a40 f   MySqlDatabase.obj
 0001:00012aa0       ?UpdatePacifier@@YAXM@Z    10013aa0 f   pacifier.obj
 0001:00012b30       ?EndPacifier@@YAX_N@Z      10013b30 f   pacifier.obj
 0001:00012b60       ?StartPacifier@@YAXPBD@Z   10013b60 f   pacifier.obj
 0001:00012ba0       ?GetPhysicsFactory@@YAP6APAXPBDPAH@ZXZ 10013ba0 f   physdll.obj
 0001:00012be0       _PhysicsDLLPath            10013be0 f   physdll.obj
 0001:00012c10       ?Init@Vector2D@@QAEXMM@Z   10013c10 f i radial.obj
 0001:00012c30       ?WorldToLuxelSpace@@YAXPBUlightinfo_t@@ABVVector@@AAVVector2D@@@Z 10013c30 f   radial.obj
 0001:00012c90       ?LuxelSpaceToWorld@@YAXPBUlightinfo_t@@MMAAVVector@@@Z 10013c90 f   radial.obj
 0001:00012cf0       ?LuxelSpaceToWorld@@YAXPBUlightinfo_t@@T__m128@@1AAVFourVectors@@@Z 10013cf0 f   radial.obj
 0001:00012e00       ?AddDirectToRadial@@YAXPAUradial_s@@ABVVector@@ABVVector2D@@2QBULightingValue_t@@_N4@Z 10013e00 f   radial.obj
 0001:00013210       ?AddBouncedToRadial@@YAXPAUradial_s@@ABVVector@@ABVVector2D@@2QBV2@_N4@Z 10014210 f   radial.obj
 0001:00013550       ?AllocateRadial@@YAPAUradial_s@@H@Z 10014550 f   radial.obj
 0001:00013590       ?SampleRadial@@YA_NPAUradial_s@@AAVVector@@QAULightingValue_t@@H@Z 10014590 f   radial.obj
 0001:00013a20       ?FloatLess@@YA_NABM0@Z     10014a20 f   radial.obj
 0001:00013a40       ?DumpDispLuxels@@YAXHAAVVector@@HH@Z 10014a40 f   radial.obj
 0001:00013ae0       ?CloseDispLuxels@@YAXXZ    10014ae0 f   radial.obj
 0001:00013b10       ?PatchLightmapCoordRange@@YAXPAUradial_s@@HAAVVector2D@@1@Z 10014b10 f   radial.obj
 0001:00013c20       ?BuildPatchRadial@@YAPAUradial_s@@H@Z 10014c20 f   radial.obj
 0001:00013ec0       ?BuildLuxelRadial@@YAPAUradial_s@@HH@Z 10014ec0 f   radial.obj
 0001:00014380       ?Parent@?$CUtlRBTree@MHP6A_NABM0@ZV?$CUtlMemory@U?$UtlRBTreeNode_t@MH@@H@@@@QBEHH@Z 10015380 f i radial.obj
 0001:000143e0       ?RightChild@?$CUtlRBTree@MHP6A_NABM0@ZV?$CUtlMemory@U?$UtlRBTreeNode_t@MH@@H@@@@QBEHH@Z 100153e0 f i radial.obj
 0001:00014440       ?IsRightChild@?$CUtlRBTree@MHP6A_NABM0@ZV?$CUtlMemory@U?$UtlRBTreeNode_t@MH@@H@@@@QBE_NH@Z 10015440 f i radial.obj
 0001:000144f0       ?FindInsertionPosition@?$CUtlRBTree@MHP6A_NABM0@ZV?$CUtlMemory@U?$UtlRBTreeNode_t@MH@@H@@@@IAEXABMAAHAA_N@Z 100154f0 f i radial.obj
 0001:000145e0       ?NewNode@?$CUtlRBTree@MHP6A_NABM0@ZV?$CUtlMemory@U?$UtlRBTreeNode_t@MH@@H@@@@QAEHXZ 100155e0 f i radial.obj
 0001:000146a0       ?IsLeftChild@?$CUtlRBTree@MHP6A_NABM0@ZV?$CUtlMemory@U?$UtlRBTreeNode_t@MH@@H@@@@QBE_NH@Z 100156a0 f i radial.obj
 0001:00014750       ?RotateLeft@?$CUtlRBTree@MHP6A_NABM0@ZV?$CUtlMemory@U?$UtlRBTreeNode_t@MH@@H@@@@IAEXH@Z 10015750 f i radial.obj
 0001:00014900       ?RotateRight@?$CUtlRBTree@MHP6A_NABM0@ZV?$CUtlMemory@U?$UtlRBTreeNode_t@MH@@H@@@@IAEXH@Z 10015900 f i radial.obj
 0001:00014a70       ?RemoveAll@?$CUtlRBTree@MHP6A_NABM0@ZV?$CUtlMemory@U?$UtlRBTreeNode_t@MH@@H@@@@QAEXXZ 10015a70 f i radial.obj
 0001:00014b30       ?FirstInorder@?$CUtlRBTree@MHP6A_NABM0@ZV?$CUtlMemory@U?$UtlRBTreeNode_t@MH@@H@@@@QBEHXZ 10015b30 f i radial.obj
 0001:00014bd0       ?NextInorder@?$CUtlRBTree@MHP6A_NABM0@ZV?$CUtlMemory@U?$UtlRBTreeNode_t@MH@@H@@@@QBEHH@Z 10015bd0 f i radial.obj
 0001:00014d50       ?InsertRebalance@?$CUtlRBTree@MHP6A_NABM0@ZV?$CUtlMemory@U?$UtlRBTreeNode_t@MH@@H@@@@IAEXH@Z 10015d50 f i radial.obj
 0001:000151b0       ?FinalLightFace@@YAXHH@Z   100161b0 f   radial.obj
 0001:00015d40       ?PatchSampleData_KeyFunc@@YAIABUPatchSampleData_t@@@Z 10016d40 f   samplehash.obj
 0001:00015d40       ?SampleData_KeyFunc@@YAIABUSampleData_t@@@Z 10016d40 f   samplehash.obj
 0001:00015d60       ?PatchSampleData_CompareFunc@@YA_NABUPatchSampleData_t@@0@Z 10016d60 f   samplehash.obj
 0001:00015d60       ?SampleData_CompareFunc@@YA_NABUSampleData_t@@0@Z 10016d60 f   samplehash.obj
 0001:00015d90       ?Grow@?$CUtlMemory@Udleafambientlighting_t@@H@@QAEXH@Z 10016d90 f i leaf_ambient_lighting.obj
 0001:00015d90       ?Grow@?$CUtlMemory@UPatchSampleData_t@@H@@QAEXH@Z 10016d90 f i samplehash.obj
 0001:00015d90       ?Grow@?$CUtlMemory@UcolorVertex_t@@H@@QAEXH@Z 10016d90 f i vradstaticprops.obj
 0001:00015d90       ?Grow@?$CUtlMemory@USampleData_t@@H@@QAEXH@Z 10016d90 f i samplehash.obj
 0001:00015d90       ?Grow@?$CUtlMemory@Umaterialentry_t@CShadowTextureList@@H@@QAEXH@Z 10016d90 f i vradstaticprops.obj
 0001:00015d90       ?Grow@?$CUtlMemory@UbadVertex_t@@H@@QAEXH@Z 10016d90 f i vradstaticprops.obj
 0001:00015e50       ?IncrementPatchIterationKey@@YAGXZ 10016e50 f   samplehash.obj
 0001:00015eb0       ?Log@?$CUtlHash@USampleData_t@@P6A_NABU1@0@ZP6AI0@Z@@QAEXPBD@Z 10016eb0 f i samplehash.obj
 0001:00015f60       ?DoFind@?$CUtlHash@USampleData_t@@P6A_NABU1@0@ZP6AI0@Z@@IBE_NABUSampleData_t@@PAIPAH@Z 10016f60 f i samplehash.obj
 0001:00015f60       ?DoFind@?$CUtlHash@UPatchSampleData_t@@P6A_NABU1@0@ZP6AI0@Z@@IBE_NABUPatchSampleData_t@@PAIPAH@Z 10016f60 f i samplehash.obj
 0001:00016000       ?SampleData_Log@@YAXXZ     10017000 f   samplehash.obj
 0001:00016020       ?SampleData_Find@@YAIPAUsample_t@@@Z 10017020 f   samplehash.obj
 0001:00016110       ?InsertBefore@?$CUtlVector@USampleData_t@@V?$CUtlMemory@USampleData_t@@H@@@@QAEHH@Z 10017110 f i samplehash.obj
 0001:00016110       ?InsertBefore@?$CUtlVector@UPatchSampleData_t@@V?$CUtlMemory@UPatchSampleData_t@@H@@@@QAEHH@Z 10017110 f i samplehash.obj
 0001:000161a0       ?RemoveAll@?$CUtlVector@USampleData_t@@V?$CUtlMemory@USampleData_t@@H@@@@QAEXXZ 100171a0 f i samplehash.obj
 0001:000161a0       ?RemoveAll@?$CUtlVector@UPatchSampleData_t@@V?$CUtlMemory@UPatchSampleData_t@@H@@@@QAEXXZ 100171a0 f i samplehash.obj
 0001:00016250       ??4?$CUtlVector@PAVCLightFace@@V?$CUtlMemory@PAVCLightFace@@H@@@@QAEAAV0@ABV0@@Z 10017250 f i incremental.obj
 0001:00016250       ??4?$CUtlVector@HV?$CUtlMemory@HH@@@@QAEAAV0@ABV0@@Z 10017250 f i samplehash.obj
 0001:000162d0       ?SampleData_InsertIntoHashTable@@YAIPAUsample_t@@I@Z 100172d0 f   samplehash.obj
 0001:00016460       ?SampleData_AddSample@@YAIPAUsample_t@@I@Z 10017460 f   samplehash.obj
 0001:00016510       ?PatchSampleData_AddSample@@YAXPAUCPatch@@H@Z 10017510 f   samplehash.obj
 0001:000167a0       ?Purge@?$CUtlHash@UPatchSampleData_t@@P6A_NABU1@0@ZP6AI0@Z@@QAEXXZ 100177a0 f i samplehash.obj
 0001:000167a0       ?Purge@?$CUtlHash@USampleData_t@@P6A_NABU1@0@ZP6AI0@Z@@QAEXXZ 100177a0 f i samplehash.obj
 0001:00016800       ?RemoveAll@?$CUtlVector@V?$CUtlVector@USampleData_t@@V?$CUtlMemory@USampleData_t@@H@@@@V?$CUtlMemory@V?$CUtlVector@USampleData_t@@V?$CUtlMemory@USampleData_t@@H@@@@H@@@@QAEXXZ 10017800 f i samplehash.obj
 0001:00016800       ?RemoveAll@?$CUtlVector@V?$CUtlVector@UPatchSampleData_t@@V?$CUtlMemory@UPatchSampleData_t@@H@@@@V?$CUtlMemory@V?$CUtlVector@UPatchSampleData_t@@V?$CUtlMemory@UPatchSampleData_t@@H@@@@H@@@@QAEXXZ 10017800 f i samplehash.obj
 0001:000168a0       ??1?$CUtlVector@V?$CUtlVector@USampleData_t@@V?$CUtlMemory@USampleData_t@@H@@@@V?$CUtlMemory@V?$CUtlVector@USampleData_t@@V?$CUtlMemory@USampleData_t@@H@@@@H@@@@QAE@XZ 100178a0 f i samplehash.obj
 0001:000168a0       ??1?$CUtlVector@V?$CUtlVector@UPatchSampleData_t@@V?$CUtlMemory@UPatchSampleData_t@@H@@@@V?$CUtlMemory@V?$CUtlVector@UPatchSampleData_t@@V?$CUtlMemory@UPatchSampleData_t@@H@@@@H@@@@QAE@XZ 100178a0 f i samplehash.obj
 0001:00016900       ?PointLeafnum_r@@YAHABVVector@@H@Z 10017900 f   trace.obj
 0001:00016970       ?PointLeafnum@@YAHABVVector@@@Z 10017970 f   trace.obj
 0001:00016990       ??4CBaseTrace@@QAEAAV0@ABV0@@Z 10017990 f i trace.obj
 0001:00016a20       ?VisitTriangle_ShouldContinue@CCoverageCountTexture@@UAE_NABUTriIntersectData_t@@ABVFourRays@@PAT__m128@@222H@Z 10017a20 f i trace.obj
 0001:00016af0       ?TestLine@@YAXABVFourVectors@@0PAT__m128@@H@Z 10017af0 f   trace.obj
 0001:00016c80       ?DM_ClipBoxToBrush@@YAXPAVCToolTrace@@ABVVector@@111PAUdbrush_t@@@Z 10017c80 f   trace.obj
 0001:00017000       ?AddBrushToRaytraceEnvironment@@YAXPAUdbrush_t@@ABVVMatrix@@@Z 10018000 f   trace.obj
 0001:00017280       ?TraceLeafBrushes@@YAMHABVVector@@0AAVCBaseTrace@@@Z 10018280 f   trace.obj
 0001:00017400       ?TestLine_DoesHitSky@@YAXABVFourVectors@@0PAT__m128@@_NH2@Z 10018400 f   trace.obj
 0001:00017890       ?GetBrushes_r@@YAXHAAV?$CUtlVector@HV?$CUtlMemory@HH@@@@@Z 10018890 f   trace.obj
 0001:00017980       ?AddBrushes@@YAXPAUdmodel_t@@ABVVMatrix@@@Z 10018980 f   trace.obj
 0001:00017a30       ?ExtractBrushEntityShadowCasters@@YAXXZ 10018a30 f   trace.obj
 0001:00017b10       ?AddBrushesForRayTrace@@YAXXZ 10018b10 f   trace.obj
 0001:00017ce0       ?Finish@CTransferMaker@@QAEXXZ 10018ce0 f   vismat.obj
 0001:00017d50       ?PointInLeaf@@YAPAUdleaf_t@@HABVVector@@@Z 10018d50 f   vismat.obj
 0001:00017de0       ?ClusterFromPoint@@YAHABVVector@@@Z 10018de0 f   vismat.obj
 0001:00017e00       ?BuildVisLeafs_Start@@YAPAUtransfer_t@@XZ 10018e00 f   vismat.obj
 0001:00017e10       ?BuildVisLeafs_End@@YAXPAUtransfer_t@@@Z 10018e10 f   vismat.obj
 0001:00017e20       ??0CTransferMaker@@QAE@PAUtransfer_t@@@Z 10018e20 f   vismat.obj
 0001:00017ea0       ?TestPatchToPatch@@YAXHHHPAUtransfer_t@@AAVCTransferMaker@@H@Z 10018ea0 f   vismat.obj
 0001:00018010       ?TestPatchToFace@@YAXIHHPAUtransfer_t@@AAVCTransferMaker@@H@Z 10019010 f   vismat.obj
 0001:000180f0       ?BuildVisRow@@YAXHPAEHPAUtransfer_t@@AAVCTransferMaker@@H@Z 100190f0 f   vismat.obj
 0001:00018290       ?BuildVisLeafs_Cluster@@YAXHPAUtransfer_t@@HP6AXHHPAUCPatch@@@Z@Z 10019290 f   vismat.obj
 0001:000183d0       ?BuildVisLeafs@@YAXHPAX@Z  100193d0 f   vismat.obj
 0001:00018420       ?BuildVisMatrix@@YAXXZ     10019420 f   vismat.obj
 0001:00018460       ?InsertMultipleBefore@?$CUtlVector@V?$CUtlVector@PAVCLightFace@@V?$CUtlMemory@PAVCLightFace@@H@@@@V?$CUtlMemory@V?$CUtlVector@PAVCLightFace@@V?$CUtlMemory@PAVCLightFace@@H@@@@H@@@@QAEHHHPBV?$CUtlVector@PAVCLightFace@@V?$CUtlMemory@PAVCLightFace@@H@@@@@Z 10019460 f i incremental.obj
 0001:00018460       ?InsertMultipleBefore@?$CUtlVector@UClusterDispList_t@@V?$CUtlMemory@UClusterDispList_t@@H@@@@QAEHHHPBUClusterDispList_t@@@Z 10019460 f i vismat.obj
 0001:00018550       ?AddDispsToClusterTable@@YAXXZ 10019550 f   vismat.obj
 0001:000186b0       ?SharedDispatch@@YA_NPAVMessageBuffer@@HH@Z 100196b0 f   vmpi_tools_shared.obj
 0001:000188f0       ?SendQDirInfo@@YAXXZ       100198f0 f   vmpi_tools_shared.obj
 0001:00018980       ?RecvQDirInfo@@YAXXZ       10019980 f   vmpi_tools_shared.obj
 0001:000189b0       ?SendDBInfo@@YAXPBVCDBInfo@@K@Z 100199b0 f   vmpi_tools_shared.obj
 0001:00018a00       ?RecvDBInfo@@YAXPAVCDBInfo@@PAK@Z 10019a00 f   vmpi_tools_shared.obj
 0001:00018a50       ?VMPI_SendFileChunk@@YAHPBXHPBD@Z 10019a50 f   vmpi_tools_shared.obj
 0001:00018b10       ?VMPI_HandleCrash@@YAXPBDPAX_N@Z 10019b10 f   vmpi_tools_shared.obj
 0001:00018bf0       ?VMPI_SecondExceptionFilter@@YGJPAU_EXCEPTION_POINTERS@@@Z 10019bf0 f   vmpi_tools_shared.obj
 0001:00018c10       ?VMPI_ExceptionFilter@@YAXKPAX@Z 10019c10 f   vmpi_tools_shared.obj
 0001:00018ec0       ?HandleMPIDisconnect@@YAXHPBD@Z 10019ec0 f   vmpi_tools_shared.obj
 0001:00018f60       ?Dot@Vector@@QBEMABV1@@Z   10019f60 f i vrad.obj
 0001:00018f80       ?CrossProduct@@YAXABVVector@@0AAV1@@Z 10019f80 f i vrad.obj
 0001:00018f80       ?CrossProduct@@YAXPBM0PAM@Z 10019f80 f i mathlib:mathlib_base.obj
 0001:00018fc0       ?MakeParents@@YAXHH@Z      10019fc0 f   vrad.obj
 0001:00019020       ?LightForTexture@@YAXPBDAAVVector@@@Z 1001a020 f   vrad.obj
 0001:00019150       ?WindingFromFace@@YAPAUwinding_t@@PAUdface_t@@AAVVector@@@Z 1001a150 f   vrad.obj
 0001:00019200       ?ProcessSkyCameras@@YAXXZ  1001a200 f   vrad.obj
 0001:00019330       ?EntityForModel@@YAPAUentity_t@@H@Z 1001a330 f   vrad.obj
 0001:000193d0       ?FormFactorPolyToDiff@@YAMPAUCPatch@@0@Z 1001a3d0 f   vrad.obj
 0001:00019530       ?FormFactorDiffToDiff@@YAMPAUCPatch@@0@Z 1001a530 f   vrad.obj
 0001:000195b0       ?WriteWinding@@YAXPAXPAUwinding_t@@AAVVector@@@Z 1001a5b0 f   vrad.obj
 0001:00019640       ?WriteNormal@@YAXPAXABVVector@@1M1@Z 1001a640 f   vrad.obj
 0001:00019700       ?WriteLine@@YAXPAXABVVector@@11@Z 1001a700 f   vrad.obj
 0001:000197b0       ?WriteTrace@@YAXPBDABVFourRays@@ABURayTracingResult@@@Z 1001a7b0 f   vrad.obj
 0001:00019920       ?PreGetBumpNormalsForDisp@@YAXPAUtexinfo_s@@AAVVector@@11@Z 1001a920 f   vrad.obj
 0001:00019b20       ?InitDumpPatchesFiles@@YAXXZ 1001ab20 f   vrad.obj
 0001:00019ba0       ?VRAD_Finish@@YAXXZ        1001aba0 f   vrad.obj
 0001:00019c90       ?VRAD_Init@@YAXXZ          1001ac90 f   vrad.obj
 0001:00019cd0       ?ParseCommandLine@@YAHHPAPADPA_N@Z 1001acd0 f   vrad.obj
 0001:0001a6a0       ?PrintCommandLine@@YAXHPAPAD@Z 1001b6a0 f   vrad.obj
 0001:0001a6f0       ?Purge@?$CUtlBlockMemory@UCacheOptimizedTriangle@@H@@QAEXXZ 1001b6f0 f i vrad.obj
 0001:0001a740       ?ChangeSize@?$CUtlBlockMemory@UCacheOptimizedTriangle@@H@@IAEXH@Z 1001b740 f i vrad.obj
 0001:0001a7f0       ?Grow@?$CUtlMemory@Ubumplights_t@@H@@QAEXH@Z 1001b7f0 f i vrad.obj
 0001:0001a890       ??4CPatch@@QAEAAU0@ABU0@@Z 1001b890 f i vrad.obj
 0001:0001ab40       ?Grow@?$CUtlMemory@UCPatch@@H@@QAEXH@Z 1001bb40 f i vrad.obj
 0001:0001abf0       ?BaseLightForFace@@YAXPAUdface_t@@AAVVector@@PAM1@Z 1001bbf0 f   vrad.obj
 0001:0001aca0       ?MakeTransfer@@YAXHHPAUtransfer_t@@@Z 1001bca0 f   vrad.obj
 0001:0001ade0       ?MakeScales@@YAXHPAUtransfer_t@@@Z 1001bde0 f   vrad.obj
 0001:0001aee0       ?WriteWorld@@YAXPADH@Z     1001bee0 f   vrad.obj
 0001:0001b020       ?CollectLight@@YAXAAVVector@@@Z 1001c020 f   vrad.obj
 0001:0001b510       ?GatherLight@@YAXHPAX@Z    1001c510 f   vrad.obj
 0001:0001ba90       ?BounceLight@@YAXXZ        1001ca90 f   vrad.obj
 0001:0001bd40       ?InsertMultipleBefore@?$CUtlVector@VVector@@V?$CUtlMemory@VVector@@H@@@@QAEHHHPBVVector@@@Z 1001cd40 f i vrad.obj
 0001:0001be90       ?InsertMultipleBefore@?$CUtlVector@Ubumplights_t@@V?$CUtlMemory@Ubumplights_t@@H@@@@QAEHHHPBUbumplights_t@@@Z 1001ce90 f i vrad.obj
 0001:0001c110       ?WriteRTEnv@@YAXPAD@Z      1001d110 f   vrad.obj
 0001:0001c2e0       ?AddToTail@?$CUtlVector@UCPatch@@V?$CUtlMemory@UCPatch@@H@@@@QAEHXZ 1001d2e0 f i vrad.obj
 0001:0001c340       ?ReadLightFile@@YAXPAD@Z   1001d340 f   vrad.obj
 0001:0001c730       ?MakePatchForFace@@YAXHPAUwinding_t@@@Z 1001d730 f   vrad.obj
 0001:0001cae0       ?MakePatches@@YAXXZ        1001dae0 f   vrad.obj
 0001:0001cc20       ?CreateChildPatch@@YAHHPAUwinding_t@@MABVVector@@@Z 1001dc20 f   vrad.obj
 0001:0001cee0       ?SubdividePatch@@YAXH@Z    1001dee0 f   vrad.obj
 0001:0001d190       ?SubdividePatches@@YAXXZ   1001e190 f   vrad.obj
 0001:0001d5f0       ?RadWorld_Start@@YAXXZ     1001e5f0 f   vrad.obj
 0001:0001d770       ??0RayTracingEnvironment@@QAE@XZ 1001e770 f i vrad.obj
 0001:0001d890       ?BuildFacesVisibleToLights@@YAX_N@Z 1001e890 f   vrad.obj
 0001:0001dad0       ?RadWorld_Go@@YA_NXZ       1001ead0 f   vrad.obj
 0001:0001dd40       ?VRAD_LoadBSP@@YAXPBD@Z    1001ed40 f   vrad.obj
 0001:0001e2c0       ?RunVRAD@@YAHHPAPAD@Z      1001f2c0 f   vrad.obj
 0001:0001e3b0       ?VRAD_Main@@YAHHPAPAD@Z    1001f3b0 f   vrad.obj
 0001:0001e4a0       ?Vector2DCopy@@YAXABVVector2D@@AAV1@@Z 1001f4a0 f i vrad_dispcoll.obj
 0001:0001e4c0       ?BaseFacePlaneToDispUV@CVRADDispColl@@QAEXABVVector@@AAVVector2D@@@Z 1001f4c0 f   vrad_dispcoll.obj
 0001:0001e4f0       ?PlaneTypeForNormal@@YAHAAVVector@@@Z 1001f4f0 f   vrad_dispcoll.obj
 0001:0001e5d0       ?Grow@?$CUtlMemory@UDispCollTree_t@CVRadDispMgr@@H@@QAEXH@Z 1001f5d0 f i vraddisps.obj
 0001:0001e5d0       ?Grow@?$CUtlMemory@Uvariable_t@@H@@QAEXH@Z 1001f5d0 f i scriplib.obj
 0001:0001e5d0       ?Grow@?$CUtlMemory@VVector2D@@H@@QAEXH@Z 1001f5d0 f i vrad_dispcoll.obj
 0001:0001e680       ?CalcSampleRadius2AndBox@CVRADDispColl@@IAEXPAUdface_t@@@Z 1001f680 f   vrad_dispcoll.obj
 0001:0001e760       ?DispUVToSurf_TriTLToBR@CVRADDispColl@@IAEXAAVVector@@MMMHHHH@Z 1001f760 f   vrad_dispcoll.obj
 0001:0001ea10       ?DispUVToSurf_TriBLToTR@CVRADDispColl@@IAEXAAVVector@@MMMHHHH@Z 1001fa10 f   vrad_dispcoll.obj
 0001:0001ecc0       ?DispUVToSurfNormal@CVRADDispColl@@QAEXABVVector2D@@AAVVector@@@Z 1001fcc0 f   vrad_dispcoll.obj
 0001:0001eeb0       ?InitParentPatch@CVRADDispColl@@QAE_NHPAVVector@@AAM@Z 1001feb0 f   vrad_dispcoll.obj
 0001:0001f200       ?InitPatch@CVRADDispColl@@QAE_NHHHPAVVector@@PAHAAM@Z 10020200 f   vrad_dispcoll.obj
 0001:0001f650       ?AddPolysForRayTrace@CVRADDispColl@@QAEXXZ 10020650 f   vrad_dispcoll.obj
 0001:0001f6f0       ?DispUVToSurfPoint@CVRADDispColl@@QAEXABVVector2D@@AAVVector@@M@Z 100206f0 f   vrad_dispcoll.obj
 0001:0001f7c0       ?InsertMultipleBefore@?$CUtlVector@VVector2D@@V?$CUtlMemory@VVector2D@@H@@@@QAEHHHPBVVector2D@@@Z 100207c0 f i vrad_dispcoll.obj
 0001:0001f8e0       ??0CVRADDispColl@@QAE@XZ   100208e0 f   vrad_dispcoll.obj
 0001:0001f9d0       ?CreateParentPatches@CVRADDispColl@@QAEMXZ 100209d0 f   vrad_dispcoll.obj
 0001:0001fb20       ?CreateChildPatchesFromRoot@CVRADDispColl@@QAEXHPAH@Z 10020b20 f   vrad_dispcoll.obj
 0001:0001ffd0       ?CreateChildPatchesSub@CVRADDispColl@@QAEXH@Z 10020fd0 f   vrad_dispcoll.obj
 0001:00020520       ?Create@CVRADDispColl@@UAE_NPAVCCoreDispInfo@@@Z 10021520 f   vrad_dispcoll.obj
 0001:00020620       ?CreateChildPatches@CVRADDispColl@@QAEXHH@Z 10021620 f   vrad_dispcoll.obj
 0001:00020ac0       ?Init@Ray_t@@QAEXABVVector@@000@Z 10021ac0 f i vraddetailprops.obj
 0001:00020c00       ?VRadDetailProps_SetHDRMode@@YAX_N@Z 10021c00 f   vraddetailprops.obj
 0001:00020c20       ?TestPointAgainstSurface@CLightSurface@@AAE_NABVVector@@PAUdface_t@@PAUtexinfo_s@@@Z 10021c20 f i vraddetailprops.obj
 0001:00020cd0       ?Grow@?$CUtlMemory@UDetailPropLightstylesLump_t@@H@@QAEXH@Z 10021cd0 f i vraddetailprops.obj
 0001:000211f0       ?EnumerateNode@CLightSurface@@UAE_NHABURay_t@@MH@Z 100221f0 f i vraddetailprops.obj
 0001:00021320       ?EnumerateLeaf@CLightSurface@@UAE_NHABURay_t@@MMH@Z 10022320 f i vraddetailprops.obj
 0001:00021530       ?CastRayInLeaf@@YA_NHABVVector@@0HPAMPAV1@@Z 10022530 f   vraddetailprops.obj
 0001:00021640       ?CalcRayAmbientLighting@@YAXHABVVector@@0MQAV1@@Z 10022640 f   vraddetailprops.obj
 0001:00021930       ?ComputeIndirectLightingAtPoint@@YAXAAVVector@@00H_N1@Z 10022930 f   vraddetailprops.obj
 0001:00022620       ?SetCount@?$CUtlVector@UDetailPropLightstylesLump_t@@V?$CUtlMemory@UDetailPropLightstylesLump_t@@H@@@@QAEXH@Z 10023620 f i vraddetailprops.obj
 0001:00022680       ?UnserializeDetailPropLighting@@YAXHHAAV?$CUtlVector@UDetailPropLightstylesLump_t@@V?$CUtlMemory@UDetailPropLightstylesLump_t@@H@@@@@Z 10023680 f   vraddetailprops.obj
 0001:00022730       ?ComputeDetailPropLighting@@YAXH@Z 10023730 f   vraddetailprops.obj
 0001:00022800       ?GetNormal@CCoreDispSurface@@QAEXAAVVector@@@Z 10023800 f i vraddisps.obj
 0001:00022860       ?InvDelta@Ray_t@@QBE?AVVector@@XZ 10023860 f i vraddisps.obj
 0001:000228e0       ?StaticDispMgr@@YAPAVIVRadDispMgr@@XZ 100238e0 f   vraddisps.obj
 0001:000228f0       ?ClipRayToDisp@CVRadDispMgr@@UAE_NAAUDispTested_t@@ABURay_t@@@Z 100238f0 f   vraddisps.obj
 0001:00022930       ?ClipRayToDispInLeaf@CVRadDispMgr@@UAE_NAAUDispTested_t@@ABURay_t@@H@Z 10023930 f   vraddisps.obj
 0001:00022980       ?ClipRayToDispInLeaf@CVRadDispMgr@@UAEXAAUDispTested_t@@ABURay_t@@HAAMAAPAUdface_t@@AAVVector2D@@@Z 10023980 f   vraddisps.obj
 0001:000229f0       ?ClipRayToDispInLeaf@CVRadDispMgr@@UAEXAAUDispTested_t@@ABURay_t@@HAAMPAVVector@@@Z 100239f0 f   vraddisps.obj
 0001:00022a60       ?AddSampleLightToRadial@@YAXABVVector@@0PAULightingValue_t@@M00PAUradial_s@@H_N3@Z 10023a60 f   vraddisps.obj
 0001:00022d30       ?SampleRadial@CVRadDispMgr@@UAE_NHPAUradial_s@@ABVVector@@HPAULightingValue_t@@H_N@Z 10023d30 f   vraddisps.obj
 0001:00022ff0       ?StartTimer@CVRadDispMgr@@UAEXPBD@Z 10023ff0 f   vraddisps.obj
 0001:00023020       ?EnumerateLeaf@CBSPDispRayEnumerator@@UAE_NHH@Z 10024020 f   vraddisps.obj
 0001:00023050       ?StartRayTest@CVRadDispMgr@@UAEXAAUDispTested_t@@@Z 10024050 f   vraddisps.obj
 0001:000230b0       ?GetSampleLight@@YAXPAUfacelight_t@@H_NHPAULightingValue_t@@@Z 100240b0 f i vraddisps.obj
 0001:00023180       ?EndTimer@CVRadDispMgr@@UAEXXZ 10024180 f   vraddisps.obj
 0001:000231f0       ?Grow@?$CUtlMemory@PAVCPhysConvex@@H@@QAEXH@Z 100241f0 f i vradstaticprops.obj
 0001:000231f0       ?Grow@?$CUtlMemory@PAVCCoreDispInfo@@H@@QAEXH@Z 100241f0 f i vraddisps.obj
 0001:000231f0       ?Grow@?$CUtlMemory@PBDH@@QAEXH@Z 100241f0 f i vrad.obj
 0001:000231f0       ?Grow@?$CUtlMemory@PAUdirectlight_t@@H@@QAEXH@Z 100241f0 f i vraddetailprops.obj
 0001:000231f0       ?Grow@?$CUtlMemory@VCLightValue@@H@@QAEXH@Z 100241f0 f i incremental.obj
 0001:000231f0       ?Grow@?$CUtlMemory@PAUCPatch@@H@@QAEXH@Z 100241f0 f i vraddisps.obj
 0001:000231f0       ?Grow@?$CUtlMemory@Udleafambientindex_t@@H@@QAEXH@Z 100241f0 f i leaf_ambient_lighting.obj
 0001:000231f0       ?Grow@?$CUtlMemory@PADH@@QAEXH@Z 100241f0 f i tier1:strtools.obj
 0001:000231f0       ?Grow@?$CUtlMemory@IH@@QAEXH@Z 100241f0 f i samplehash.obj
 0001:000231f0       ?Grow@?$CUtlMemory@PAUStringPool_t@CUtlSymbolTable@@H@@QAEXH@Z 100241f0 f i tier1:utlsymbol.obj
 0001:000231f0       ?Grow@?$CUtlMemory@PAVCLightFace@@H@@QAEXH@Z 100241f0 f i incremental.obj
 0001:000231f0       ?Grow@?$CUtlMemory@PAVKeyValues@@H@@QAEXH@Z 100241f0 f i tier1:KeyValues.obj
 0001:000231f0       ?Grow@?$CUtlMemory@PAVCVRADDispColl@@H@@QAEXH@Z 100241f0 f i vraddisps.obj
 0001:000231f0       ?Grow@?$CUtlMemory@PAVCMacroTextureData@@H@@QAEXH@Z 100241f0 f i macro_texture.obj
 0001:000231f0       ?Grow@?$CUtlMemory@PAV?$CUtlVector@UcolorVertex_t@@V?$CUtlMemory@UcolorVertex_t@@H@@@@H@@QAEXH@Z 100241f0 f i vradstaticprops.obj
 0001:000231f0       ?Grow@?$CUtlMemory@HH@@QAEXH@Z 100241f0 f i disp_vrad.obj
 0001:000232a0       ?DispBuilderInit@CVRadDispMgr@@AAEXPAVCCoreDispInfo@@PAUdface_t@@H@Z 100242a0 f   vraddisps.obj
 0001:00023580       ?MakePatches@CVRadDispMgr@@UAEXXZ 10024580 f   vraddisps.obj
 0001:000235f0       ?SubdividePatch@CVRadDispMgr@@UAEXH@Z 100245f0 f   vraddisps.obj
 0001:00023640       ?AddPolysForRayTrace@CVRadDispMgr@@UAEXXZ 10024640 f   vraddisps.obj
 0001:00023670       ?GetDispSurfNormal@CVRadDispMgr@@UAEXHAAVVector@@0_N@Z 10024670 f   vraddisps.obj
 0001:000237b0       ?GetDispSurf@CVRadDispMgr@@UAEXHPAPAVCVRADDispColl@@@Z 100247b0 f   vraddisps.obj
 0001:000237e0       ?DispRayDistance_EnumerateElement@CVRadDispMgr@@QAE_NHPAVCBSPDispRayDistanceEnumerator@@@Z 100247e0 f   vraddisps.obj
 0001:00023960       ?AddPatchLightToRadial@@YAXABVVector@@0PAV1@M00PAUradial_s@@H_N3@Z 10024960 f   vraddisps.obj
 0001:00023c80       ?RadialLuxelAddPatch@CVRadDispMgr@@AAEXHABVVector@@0MPAUradial_s@@H_NAAV?$CUtlVector@PAUCPatch@@V?$CUtlMemory@PAUCPatch@@H@@@@@Z 10024c80 f   vraddisps.obj
 0001:00023d80       ?InsertSamplesDataIntoHashTable@CVRadDispMgr@@UAEXXZ 10024d80 f   vraddisps.obj
 0001:00023e20       ?InsertPatchSampleDataIntoHashTable@CVRadDispMgr@@UAEXXZ 10024e20 f   vraddisps.obj
 0001:00023f10       ?BuildDispSamples@CVRadDispMgr@@UAE_NPAUlightinfo_t@@PAUfacelight_t@@H@Z 10024f10 f   vraddisps.obj
 0001:000242a0       ?BuildDispLuxels@CVRadDispMgr@@UAE_NPAUlightinfo_t@@PAUfacelight_t@@H@Z 100252a0 f   vraddisps.obj
 0001:000243f0       ?BuildDispSamplesAndLuxels_DoFast@CVRadDispMgr@@UAE_NPAUlightinfo_t@@PAUfacelight_t@@H@Z 100253f0 f   vraddisps.obj
 0001:00024600       ?EnumerateElement@CBSPDispRayEnumerator@@UAI_NHH@Z 10025600 f   vraddisps.obj
 0001:00024660       ?EnumerateElement@CBSPDispRayDistanceEnumerator@@UAI_NHH@Z 10025660 f i vraddisps.obj
 0001:00024670       ?Shutdown@CVRadDispMgr@@UAEXXZ 10025670 f   vraddisps.obj
 0001:00024700       ??1CBSPDispFaceListEnumerator@@UAE@XZ 10025700 f i vraddisps.obj
 0001:00024780       ??_ECBSPDispFaceListEnumerator@@UAEPAXI@Z 10025780 f i vraddisps.obj
 0001:00024780       ??_GCBSPDispFaceListEnumerator@@UAEPAXI@Z 10025780 f i vraddisps.obj
 0001:000247b0       ??0CVRadDispMgr@@QAE@XZ    100257b0 f   vraddisps.obj
 0001:00024820       ?UnserializeDisps@CVRadDispMgr@@AAEXXZ 10025820 f   vraddisps.obj
 0001:00024b30       ?DispFaceList_EnumerateLeaf@CVRadDispMgr@@QAE_NHH@Z 10025b30 f   vraddisps.obj
 0001:00024c10       ?DispFaceList_EnumerateElement@CVRadDispMgr@@QAE_NHH@Z 10025c10 f   vraddisps.obj
 0001:00024ca0       ?RadialLuxelAddSamples@CVRadDispMgr@@AAEXHABVVector@@0MPAUradial_s@@H_NH@Z 10025ca0 f   vraddisps.obj
 0001:00024f80       ?RadialLuxelBuild@CVRadDispMgr@@AAEXPAVCVRADDispColl@@PAUradial_s@@H_N@Z 10025f80 f   vraddisps.obj
 0001:00025030       ?BuildLuxelRadial@CVRadDispMgr@@UAEPAUradial_s@@HH_N@Z 10026030 f   vraddisps.obj
 0001:00025090       ?EnumerateLeaf@CBSPDispFaceListEnumerator@@UAE_NHH@Z 10026090 f   vraddisps.obj
 0001:000250a0       ?EnumerateElement@CBSPDispFaceListEnumerator@@UAI_NHH@Z 100260a0 f   vraddisps.obj
 0001:000250c0       ??_ECVRadDispMgr@@UAEPAXI@Z 100260c0 f i vraddisps.obj
 0001:000250c0       ??_GCVRadDispMgr@@UAEPAXI@Z 100260c0 f i vraddisps.obj
 0001:00025100       ?Init@CVRadDispMgr@@UAEXXZ 10026100 f   vraddisps.obj
 0001:00025120       ?GetInterestingPatchesForLuxels@CVRadDispMgr@@AAEXHAAV?$CUtlVector@PAUCPatch@@V?$CUtlMemory@PAUCPatch@@H@@@@M@Z 10026120 f   vraddisps.obj
 0001:00025660       ?RadialPatchBuild@CVRadDispMgr@@AAEXPAVCVRADDispColl@@PAUradial_s@@_N@Z 10026660 f   vraddisps.obj
 0001:00025720       ?BuildPatchRadial@CVRadDispMgr@@UAEPAUradial_s@@H_N@Z 10026720 f   vraddisps.obj
 0001:000257a0       ?CalcDatSize@@YAHXZ        100267a0 f   vraddll.obj
 0001:00025840       ?main@CVRadDLL@@UAEHHPAPAD@Z 10026840 f   vraddll.obj
 0001:00025860       ?Init@CVRadDLL@@UAE_NPBD@Z 10026860 f   vraddll.obj
 0001:000258a0       ?GetPercentComplete@CVRadDLL@@UAEMXZ 100268a0 f   vraddll.obj
 0001:000258b0       ?Interrupt@CVRadDLL@@UAEXXZ 100268b0 f   vraddll.obj
 0001:000258c0       ?main@CVRadDLL@@W3AEHHPAPAD@Z 100268c0 f i vraddll.obj
 0001:000258d0       ?GetBSPInfo@CVRadDLL@@UAEXPAVCBSPInfo@@@Z 100268d0 f   vraddll.obj
 0001:00025990       ?DoIncrementalLight@CVRadDLL@@UAE_NPBD@Z 10026990 f   vraddll.obj
 0001:00025aa0       ?Serialize@CVRadDLL@@UAE_NXZ 10026aa0 f   vraddll.obj
 0001:00025af0       ?Vector2DAdd@@YAXABVVector2D@@0AAV1@@Z 10026af0 f i vradstaticprops.obj
 0001:00025b10       ?Vector2DMultiply@@YAXABVVector2D@@MAAV1@@Z 10026b10 f i vradstaticprops.obj
 0001:00025b30       ?Studio_ConvertStudioHdrToNewVersion@@YA_NPAUstudiohdr_t@@@Z 10026b30 f i vradstaticprops.obj
 0001:00025c80       ?Studio_LoadVertexes@@YAHPBUvertexFileHeader_t@@PAU1@H_N@Z 10026c80 f i vradstaticprops.obj
 0001:00025dc0       ?StaticPropMgr@@YAPAVIVradStaticPropMgr@@XZ 10026dc0 f   vradstaticprops.obj
 0001:00025dd0       ?InitFromRGB8888@alphatexture_t@CShadowTextureList@@QAEXHHPAE@Z 10026dd0 f i vradstaticprops.obj
 0001:00025e60       ?ForceTextureShadowsOnModel@@YAXPBD@Z 10026e60 f   vradstaticprops.obj
 0001:00025ef0       ?IsModelTextureShadowsForced@@YA_NPBD@Z 10026ef0 f   vradstaticprops.obj
 0001:00025f70       ?ComputeDirectLightingAtPoint@@YAXAAVVector@@00HHH@Z 10026f70 f   vradstaticprops.obj
 0001:00026170       ?CacheVertexData@mstudiomodel_t@@QAEPBUvertexFileHeader_t@@PAX@Z 10027170 f   vradstaticprops.obj
 0001:00026360       ?Grow@?$CUtlMemory@UStaticPropDict_t@CVradStaticPropMgr@@H@@QAEXH@Z 10027360 f i vradstaticprops.obj
 0001:00026410       ?Grow@?$CUtlMemory@UCStaticProp@CVradStaticPropMgr@@H@@QAEXH@Z 10027410 f i vradstaticprops.obj
 0001:000264b0       ?GetVertexData@mstudiomodel_t@@QAEPBUmstudio_modelvertexdata_t@@PAX@Z 100274b0 f i vradstaticprops.obj
 0001:00026520       ?LoadStudioModel@@YA_NPBDAAVCUtlBuffer@@@Z 10027520 f   vradstaticprops.obj
 0001:00026610       ?LoadStudioCollisionModel@@YA_NPBDAAVCUtlBuffer@@@Z 10027610 f   vradstaticprops.obj
 0001:000266a0       ?LoadVTXFile@@YA_NPBDPBUstudiohdr_t@@AAVCUtlBuffer@@@Z 100276a0 f   vradstaticprops.obj
 0001:00026790       ?LoadFileIntoBuffer@@YA_NAAVCUtlBuffer@@PBD@Z 10027790 f   vradstaticprops.obj
 0001:00026820       ?Parent@?$CUtlRBTree@UNode_t@?$CUtlMap@PBDUalphatexture_t@CShadowTextureList@@G@@GVCKeyLess@2@V?$CUtlMemory@U?$UtlRBTreeNode_t@UNode_t@?$CUtlMap@PBDUalphatexture_t@CShadowTextureList@@G@@G@@G@@@@QBEGG@Z 10027820 f i vradstaticprops.obj
 0001:00026890       ?Grow@?$CUtlMemory@U?$UtlLinkedListElem_t@UGameLump_t@@G@@G@@QAEXH@Z 10027890 f i bsplib.obj
 0001:00026890       ?Grow@?$CUtlMemory@U?$UtlRBTreeNode_t@UNode_t@?$CUtlMap@PBDUalphatexture_t@CShadowTextureList@@G@@G@@G@@QAEXH@Z 10027890 f i vradstaticprops.obj
 0001:000269d0       ?InsertMultipleBefore@?$CUtlVector@UcolorVertex_t@@V?$CUtlMemory@UcolorVertex_t@@H@@@@QAEHHHPBUcolorVertex_t@@@Z 100279d0 f i vradstaticprops.obj
 0001:00026be0       ?LeftChild@?$CUtlRBTree@UNode_t@?$CUtlMap@PBDUalphatexture_t@CShadowTextureList@@G@@GVCKeyLess@2@V?$CUtlMemory@U?$UtlRBTreeNode_t@UNode_t@?$CUtlMap@PBDUalphatexture_t@CShadowTextureList@@G@@G@@G@@@@QBEGG@Z 10027be0 f i vradstaticprops.obj
 0001:00026c40       ?RightChild@?$CUtlRBTree@UNode_t@?$CUtlMap@PBDUalphatexture_t@CShadowTextureList@@G@@GVCKeyLess@2@V?$CUtlMemory@U?$UtlRBTreeNode_t@UNode_t@?$CUtlMap@PBDUalphatexture_t@CShadowTextureList@@G@@G@@G@@@@QBEGG@Z 10027c40 f i vradstaticprops.obj
 0001:00026cb0       ?FindInsertionPosition@?$CUtlRBTree@UNode_t@?$CUtlMap@PBDUalphatexture_t@CShadowTextureList@@G@@GVCKeyLess@2@V?$CUtlMemory@U?$UtlRBTreeNode_t@UNode_t@?$CUtlMap@PBDUalphatexture_t@CShadowTextureList@@G@@G@@G@@@@IAEXABUNode_t@?$CUtlMap@PBDUalphatexture_t@CShadowTextureList@@G@@AAGAA_N@Z 10027cb0 f i vradstaticprops.obj
 0001:00026da0       ?NewNode@?$CUtlRBTree@UNode_t@?$CUtlMap@PBDUalphatexture_t@CShadowTextureList@@G@@GVCKeyLess@2@V?$CUtlMemory@U?$UtlRBTreeNode_t@UNode_t@?$CUtlMap@PBDUalphatexture_t@CShadowTextureList@@G@@G@@G@@@@QAEGXZ 10027da0 f i vradstaticprops.obj
 0001:00026e90       ?FirstInorder@?$CUtlRBTree@UNode_t@?$CUtlMap@PBDUalphatexture_t@CShadowTextureList@@G@@GVCKeyLess@2@V?$CUtlMemory@U?$UtlRBTreeNode_t@UNode_t@?$CUtlMap@PBDUalphatexture_t@CShadowTextureList@@G@@G@@G@@@@QBEGXZ 10027e90 f i vradstaticprops.obj
 0001:00026f60       ?RotateLeft@?$CUtlRBTree@UNode_t@?$CUtlMap@PBDUalphatexture_t@CShadowTextureList@@G@@GVCKeyLess@2@V?$CUtlMemory@U?$UtlRBTreeNode_t@UNode_t@?$CUtlMap@PBDUalphatexture_t@CShadowTextureList@@G@@G@@G@@@@IAEXG@Z 10027f60 f i vradstaticprops.obj
 0001:00027060       ?RotateRight@?$CUtlRBTree@UNode_t@?$CUtlMap@PBDUalphatexture_t@CShadowTextureList@@G@@GVCKeyLess@2@V?$CUtlMemory@U?$UtlRBTreeNode_t@UNode_t@?$CUtlMap@PBDUalphatexture_t@CShadowTextureList@@G@@G@@G@@@@IAEXG@Z 10028060 f i vradstaticprops.obj
 0001:00027160       ?SerializeLighting@CVradStaticPropMgr@@AAEXXZ 10028160 f   vradstaticprops.obj
 0001:00027420       ?Find@?$CUtlRBTree@UNode_t@?$CUtlMap@PBDUalphatexture_t@CShadowTextureList@@G@@GVCKeyLess@2@V?$CUtlMemory@U?$UtlRBTreeNode_t@UNode_t@?$CUtlMap@PBDUalphatexture_t@CShadowTextureList@@G@@G@@G@@@@QBEGABUNode_t@?$CUtlMap@PBDUalphatexture_t@CShadowTextureList@@G@@@Z 10028420 f i vradstaticprops.obj
 0001:00027520       ?RemoveAll@?$CUtlRBTree@UNode_t@?$CUtlMap@PBDUalphatexture_t@CShadowTextureList@@G@@GVCKeyLess@2@V?$CUtlMemory@U?$UtlRBTreeNode_t@UNode_t@?$CUtlMap@PBDUalphatexture_t@CShadowTextureList@@G@@G@@G@@@@QAEXXZ 10028520 f i vradstaticprops.obj
 0001:000275e0       ?NextInorder@?$CUtlRBTree@UNode_t@?$CUtlMap@PBDUalphatexture_t@CShadowTextureList@@G@@GVCKeyLess@2@V?$CUtlMemory@U?$UtlRBTreeNode_t@UNode_t@?$CUtlMap@PBDUalphatexture_t@CShadowTextureList@@G@@G@@G@@@@QBEGG@Z 100285e0 f i vradstaticprops.obj
 0001:000277e0       ?InsertRebalance@?$CUtlRBTree@UNode_t@?$CUtlMap@PBDUalphatexture_t@CShadowTextureList@@G@@GVCKeyLess@2@V?$CUtlMemory@U?$UtlRBTreeNode_t@UNode_t@?$CUtlMap@PBDUalphatexture_t@CShadowTextureList@@G@@G@@G@@@@IAEXG@Z 100287e0 f i vradstaticprops.obj
 0001:00027d90       ?LoadVTFRGB8888@CShadowTextureList@@QAEPAEPBDPAH1PA_N2@Z 10028d90 f i vradstaticprops.obj
 0001:00027f90       ?ComputeCoverageForTriangle@CShadowTextureList@@QAEMHABVVector2D@@00@Z 10028f90 f i vradstaticprops.obj
 0001:000281c0       ?SampleMaterial@CShadowTextureList@@QAEHHABVVector@@_N@Z 100291c0 f i vradstaticprops.obj
 0001:00028280       ?ComputeCoverageFromTexture@@YAMMMMH@Z 10029280 f   vradstaticprops.obj
 0001:000282d0       ?LinkToParent@?$CUtlRBTree@UNode_t@?$CUtlMap@PBDUalphatexture_t@CShadowTextureList@@G@@GVCKeyLess@2@V?$CUtlMemory@U?$UtlRBTreeNode_t@UNode_t@?$CUtlMap@PBDUalphatexture_t@CShadowTextureList@@G@@G@@G@@@@IAEXGG_N@Z 100292d0 f i vradstaticprops.obj
 0001:00028350       ?ComputeConvexHull@@YAPAVCPhysCollide@@PAUstudiohdr_t@@@Z 10029350 f   vradstaticprops.obj
 0001:000284a0       ?ComputeLighting@CVradStaticPropMgr@@AAEXAAUCStaticProp@1@HHPAVCComputeStaticPropLightingResults@@@Z 100294a0 f   vradstaticprops.obj
 0001:00028be0       ?AddPolysForRayTrace@CVradStaticPropMgr@@EAEXXZ 10029be0 f   vradstaticprops.obj
 0001:000295e0       ?PurgeAndDeleteElements@?$CUtlVector@PAV?$CUtlVector@UcolorVertex_t@@V?$CUtlMemory@UcolorVertex_t@@H@@@@V?$CUtlMemory@PAV?$CUtlVector@UcolorVertex_t@@V?$CUtlMemory@UcolorVertex_t@@H@@@@H@@@@QAEXXZ 1002a5e0 f i vradstaticprops.obj
 0001:000296a0       ?InsertBefore@?$CUtlVector@UStaticPropDict_t@CVradStaticPropMgr@@V?$CUtlMemory@UStaticPropDict_t@CVradStaticPropMgr@@H@@@@QAEHH@Z 1002a6a0 f i vradstaticprops.obj
 0001:00029740       ??1?$CUtlRBTree@UNode_t@?$CUtlMap@PBDUalphatexture_t@CShadowTextureList@@G@@GVCKeyLess@2@V?$CUtlMemory@U?$UtlRBTreeNode_t@UNode_t@?$CUtlMap@PBDUalphatexture_t@CShadowTextureList@@G@@G@@G@@@@QAE@XZ 1002a740 f i vradstaticprops.obj
 0001:000297b0       ?RemoveAll@?$CUtlDict@Ualphatexture_t@CShadowTextureList@@G@@QAEXXZ 1002a7b0 f i vradstaticprops.obj
 0001:00029810       ?VMPI_ProcessStaticProp@CVradStaticPropMgr@@AAEXHHPAVMessageBuffer@@@Z 1002a810 f   vradstaticprops.obj
 0001:000298e0       ?RemoveAll@?$CUtlVector@UStaticPropDict_t@CVradStaticPropMgr@@V?$CUtlMemory@UStaticPropDict_t@CVradStaticPropMgr@@H@@@@QAEXXZ 1002a8e0 f i vradstaticprops.obj
 0001:000299f0       ?Insert@?$CUtlRBTree@UNode_t@?$CUtlMap@PBDUalphatexture_t@CShadowTextureList@@G@@GVCKeyLess@2@V?$CUtlMemory@U?$UtlRBTreeNode_t@UNode_t@?$CUtlMap@PBDUalphatexture_t@CShadowTextureList@@G@@G@@G@@@@QAEGABUNode_t@?$CUtlMap@PBDUalphatexture_t@CShadowTextureList@@G@@@Z 1002a9f0 f i vradstaticprops.obj
 0001:00029a60       ??4?$CUtlVector@VVector@@V?$CUtlMemory@VVector@@H@@@@QAEAAV0@ABV0@@Z 1002aa60 f i vradstaticprops.obj
 0001:00029b60       ?VMPI_ProcessStaticProp_Static@CVradStaticPropMgr@@CAXH_KPAVMessageBuffer@@@Z 1002ab60 f   vradstaticprops.obj
 0001:00029b80       ?RemoveAll@?$CUtlVector@UMeshData_t@CVradStaticPropMgr@@V?$CUtlMemory@UMeshData_t@CVradStaticPropMgr@@H@@@@QAEXXZ 1002ab80 f i vradstaticprops.obj
 0001:00029c20       ?InsertMultipleBefore@?$CUtlVector@UMeshData_t@CVradStaticPropMgr@@V?$CUtlMemory@UMeshData_t@CVradStaticPropMgr@@H@@@@QAEHHHPBUMeshData_t@CVradStaticPropMgr@@@Z 1002ac20 f i vradstaticprops.obj
 0001:00029d20       ?ApplyLightingToStaticProp@CVradStaticPropMgr@@AAEXAAUCStaticProp@1@PBVCComputeStaticPropLightingResults@@@Z 1002ad20 f   vradstaticprops.obj
 0001:00029fd0       ?VMPI_ReceiveStaticPropResults@CVradStaticPropMgr@@AAEXHPAVMessageBuffer@@H@Z 1002afd0 f   vradstaticprops.obj
 0001:0002a120       ?ThreadComputeStaticPropLighting@CVradStaticPropMgr@@CAXHPAX@Z 1002b120 f   vradstaticprops.obj
 0001:0002a1f0       ??1?$CUtlVector@UStaticPropDict_t@CVradStaticPropMgr@@V?$CUtlMemory@UStaticPropDict_t@CVradStaticPropMgr@@H@@@@QAE@XZ 1002b1f0 f i vradstaticprops.obj
 0001:0002a250       ?Insert@?$CUtlDict@Ualphatexture_t@CShadowTextureList@@G@@QAEGPBD@Z 1002b250 f i vradstaticprops.obj
 0001:0002a2c0       ?FindOrLoadIfValid@CShadowTextureList@@QAE_NPBDPAH@Z 1002b2c0 f i vradstaticprops.obj
 0001:0002a490       ?LoadAllTexturesForModel@CShadowTextureList@@QAEXPAUstudiohdr_t@@PAH@Z 1002b490 f i vradstaticprops.obj
 0001:0002a5b0       ?CreateCollisionModel@CVradStaticPropMgr@@AAEXPBD@Z 1002b5b0 f   vradstaticprops.obj
 0001:0002a940       ?UnserializeModelDict@CVradStaticPropMgr@@AAEXAAVCUtlBuffer@@@Z 1002b940 f   vradstaticprops.obj
 0001:0002a990       ?VMPI_ReceiveStaticPropResults_Static@CVradStaticPropMgr@@CAX_KPAVMessageBuffer@@H@Z 1002b990 f   vradstaticprops.obj
 0001:0002a9b0       ?ComputeLighting@CVradStaticPropMgr@@UAEXH@Z 1002b9b0 f   vradstaticprops.obj
 0001:0002aa40       ??4?$CUtlVector@UMeshData_t@CVradStaticPropMgr@@V?$CUtlMemory@UMeshData_t@CVradStaticPropMgr@@H@@@@QAEAAV0@ABV0@@Z 1002ba40 f i vradstaticprops.obj
 0001:0002aab0       ??4CStaticProp@CVradStaticPropMgr@@QAEAAU01@ABU01@@Z 1002bab0 f i vradstaticprops.obj
 0001:0002ab40       ?InsertMultipleBefore@?$CUtlVector@UCStaticProp@CVradStaticPropMgr@@V?$CUtlMemory@UCStaticProp@CVradStaticPropMgr@@H@@@@QAEHHHPBUCStaticProp@CVradStaticPropMgr@@@Z 1002bb40 f i vradstaticprops.obj
 0001:0002ac30       ?RemoveAll@?$CUtlVector@UCStaticProp@CVradStaticPropMgr@@V?$CUtlMemory@UCStaticProp@CVradStaticPropMgr@@H@@@@QAEXXZ 1002bc30 f i vradstaticprops.obj
 0001:0002acd0       ?UnserializeModels@CVradStaticPropMgr@@AAEXAAVCUtlBuffer@@@Z 1002bcd0 f   vradstaticprops.obj
 0001:0002ad90       ?UnserializeStaticProps@CVradStaticPropMgr@@AAEXXZ 1002bd90 f   vradstaticprops.obj
 0001:0002ae60       ?Init@CVradStaticPropMgr@@UAEXXZ 1002be60 f   vradstaticprops.obj
 0001:0002aec0       ?Shutdown@CVradStaticPropMgr@@UAEXXZ 1002bec0 f   vradstaticprops.obj
 0001:0002af90       ??1?$CUtlVector@UCStaticProp@CVradStaticPropMgr@@V?$CUtlMemory@UCStaticProp@CVradStaticPropMgr@@H@@@@QAE@XZ 1002bf90 f i vradstaticprops.obj
 0001:0002aff0       ??_GCVradStaticPropMgr@@UAEPAXI@Z 1002bff0 f i vradstaticprops.obj
 0001:0002aff0       ??_ECVradStaticPropMgr@@UAEPAXI@Z 1002bff0 f i vradstaticprops.obj
 0001:0002b030       ?CreateTempFile@CWin32File@@SAPAXAAVCUtlString@@0@Z 1002c030 f i zip_utils.obj
 0001:0002b140       ?FileTell@CWin32File@@SAIPAX@Z 1002c140 f i zip_utils.obj
 0001:0002b190       ?Put@CFileStream@@UAEXPBXH@Z 1002c190 f i zip_utils.obj
 0001:0002b1d0       ?Tell@CFileStream@@UAEIXZ  1002c1d0 f i zip_utils.obj
 0001:0002b230       ??0CZipEntry@CZipFile@@QAE@ABV01@@Z 1002c230 f   zip_utils.obj
 0001:0002b2a0       ?ZipFileLessFunc@CZipEntry@CZipFile@@SA_NABV12@0@Z 1002c2a0 f   zip_utils.obj
 0001:0002b2c0       ?ZipFileLessFunc_CaselessSort@CZipEntry@CZipFile@@SA_NABV12@0@Z 1002c2c0 f   zip_utils.obj
 0001:0002b320       ?ParseXZipCommentString@CZipFile@@AAEXPBD@Z 1002c320 f   zip_utils.obj
 0001:0002b390       ?SetBigEndian@CZip@@UAEX_N@Z 1002c390 f   zip_utils.obj
 0001:0002b3c0       ?ActivateByteSwapping@CZip@@UAEX_N@Z 1002c3c0 f   zip_utils.obj
 0001:0002b3f0       ?ForceAlignment@CZip@@UAEX_N0I@Z 1002c3f0 f   zip_utils.obj
 0001:0002b420       ?GetAlignment@CZip@@UAEIXZ 1002c420 f   zip_utils.obj
 0001:0002b430       ?Put@CBufferStream@@UAEXPBXH@Z 1002c430 f i zip_utils.obj
 0001:0002b440       ?Tell@CBufferStream@@UAEIXZ 1002c440 f i zip_utils.obj
 0001:0002b450       ?Color@?$CUtlRBTree@VCZipEntry@CZipFile@@HP6A_NABV12@0@ZV?$CUtlMemory@U?$UtlRBTreeNode_t@VCZipEntry@CZipFile@@H@@H@@@@IBE?AW4NodeColor_t@1@H@Z 1002c450 f i zip_utils.obj
 0001:0002b4a0       ?Grow@?$CUtlMemory@U?$UtlRBTreeNode_t@VCZipEntry@CZipFile@@H@@H@@QAEXH@Z 1002c4a0 f i zip_utils.obj
 0001:0002b550       ??$GetObjects@UZIP_EndOfCentralDirRecord@@@CUtlBuffer@@QAEXPAUZIP_EndOfCentralDirRecord@@H@Z 1002c550 f i zip_utils.obj
 0001:0002b5d0       ??$GetObjects@UZIP_FileHeader@@@CUtlBuffer@@QAEXPAUZIP_FileHeader@@H@Z 1002c5d0 f i zip_utils.obj
 0001:0002b640       ?Parent@?$CUtlRBTree@VCZipEntry@CZipFile@@HP6A_NABV12@0@ZV?$CUtlMemory@U?$UtlRBTreeNode_t@VCZipEntry@CZipFile@@H@@H@@@@QBEHH@Z 1002c640 f i zip_utils.obj
 0001:0002b690       ?LeftChild@?$CUtlRBTree@VCZipEntry@CZipFile@@HP6A_NABV12@0@ZV?$CUtlMemory@U?$UtlRBTreeNode_t@VCZipEntry@CZipFile@@H@@H@@@@QBEHH@Z 1002c690 f i zip_utils.obj
 0001:0002b6e0       ?RightChild@?$CUtlRBTree@VCZipEntry@CZipFile@@HP6A_NABV12@0@ZV?$CUtlMemory@U?$UtlRBTreeNode_t@VCZipEntry@CZipFile@@H@@H@@@@QBEHH@Z 1002c6e0 f i zip_utils.obj
 0001:0002b730       ?IsRightChild@?$CUtlRBTree@VCZipEntry@CZipFile@@HP6A_NABV12@0@ZV?$CUtlMemory@U?$UtlRBTreeNode_t@VCZipEntry@CZipFile@@H@@H@@@@QBE_NH@Z 1002c730 f i zip_utils.obj
 0001:0002b7e0       ?FindInsertionPosition@?$CUtlRBTree@VCZipEntry@CZipFile@@HP6A_NABV12@0@ZV?$CUtlMemory@U?$UtlRBTreeNode_t@VCZipEntry@CZipFile@@H@@H@@@@IAEXABVCZipEntry@CZipFile@@AAHAA_N@Z 1002c7e0 f i zip_utils.obj
 0001:0002b8d0       ?NewNode@?$CUtlRBTree@VCZipEntry@CZipFile@@HP6A_NABV12@0@ZV?$CUtlMemory@U?$UtlRBTreeNode_t@VCZipEntry@CZipFile@@H@@H@@@@QAEHXZ 1002c8d0 f i zip_utils.obj
 0001:0002b9d0       ?IsLeftChild@?$CUtlRBTree@VCZipEntry@CZipFile@@HP6A_NABV12@0@ZV?$CUtlMemory@U?$UtlRBTreeNode_t@VCZipEntry@CZipFile@@H@@H@@@@QBE_NH@Z 1002c9d0 f i zip_utils.obj
 0001:0002ba80       ?RotateLeft@?$CUtlRBTree@VCZipEntry@CZipFile@@HP6A_NABV12@0@ZV?$CUtlMemory@U?$UtlRBTreeNode_t@VCZipEntry@CZipFile@@H@@H@@@@IAEXH@Z 1002ca80 f i zip_utils.obj
 0001:0002bc80       ?RotateRight@?$CUtlRBTree@VCZipEntry@CZipFile@@HP6A_NABV12@0@ZV?$CUtlMemory@U?$UtlRBTreeNode_t@VCZipEntry@CZipFile@@H@@H@@@@IAEXH@Z 1002cc80 f i zip_utils.obj
 0001:0002bfa0       ?Find@?$CUtlRBTree@VCZipEntry@CZipFile@@HP6A_NABV12@0@ZV?$CUtlMemory@U?$UtlRBTreeNode_t@VCZipEntry@CZipFile@@H@@H@@@@QBEHABVCZipEntry@CZipFile@@@Z 1002cfa0 f i zip_utils.obj
 0001:0002c090       ?RemoveAll@?$CUtlRBTree@VCZipEntry@CZipFile@@HP6A_NABV12@0@ZV?$CUtlMemory@U?$UtlRBTreeNode_t@VCZipEntry@CZipFile@@H@@H@@@@QAEXXZ 1002d090 f i zip_utils.obj
 0001:0002c170       ?FirstInorder@?$CUtlRBTree@VCZipEntry@CZipFile@@HP6A_NABV12@0@ZV?$CUtlMemory@U?$UtlRBTreeNode_t@VCZipEntry@CZipFile@@H@@H@@@@QBEHXZ 1002d170 f i zip_utils.obj
 0001:0002c200       ?NextInorder@?$CUtlRBTree@VCZipEntry@CZipFile@@HP6A_NABV12@0@ZV?$CUtlMemory@U?$UtlRBTreeNode_t@VCZipEntry@CZipFile@@H@@H@@@@QBEHH@Z 1002d200 f i zip_utils.obj
 0001:0002c3b0       ?InsertRebalance@?$CUtlRBTree@VCZipEntry@CZipFile@@HP6A_NABV12@0@ZV?$CUtlMemory@U?$UtlRBTreeNode_t@VCZipEntry@CZipFile@@H@@H@@@@IAEXH@Z 1002d3b0 f i zip_utils.obj
 0001:0002c800       ?RemoveRebalance@?$CUtlRBTree@VCZipEntry@CZipFile@@HP6A_NABV12@0@ZV?$CUtlMemory@U?$UtlRBTreeNode_t@VCZipEntry@CZipFile@@H@@H@@@@IAEXH@Z 1002d800 f i zip_utils.obj
 0001:0002d1d0       ??1CDatadescGeneratedNameHolder@@QAE@XZ 1002e1d0 f i zip_utils.obj
 0001:0002d250       ?ReadFileFromZip@CZipFile@@QAE_NPBD_NAAVCUtlBuffer@@@Z 1002e250 f   zip_utils.obj
 0001:0002d360       ?ReadFileFromZip@CZipFile@@QAE_NPAXPBD_NAAVCUtlBuffer@@@Z 1002e360 f   zip_utils.obj
 0001:0002d4f0       ?FileExistsInZip@CZipFile@@QAE_NPBD@Z 1002e4f0 f   zip_utils.obj
 0001:0002d5a0       ?CalculateSize@CZipFile@@QAEIXZ 1002e5a0 f   zip_utils.obj
 0001:0002d690       ?PrintDirectory@CZipFile@@QAEXXZ 1002e690 f   zip_utils.obj
 0001:0002d6e0       ?SaveDirectory@CZipFile@@AAEXAAVIWriteStream@@@Z 1002e6e0 f   zip_utils.obj
 0001:0002dbe0       ?FileExistsInZip@CZip@@UAE_NPBD@Z 1002ebe0 f   zip_utils.obj
 0001:0002dbf0       ?ReadFileFromZip@CZip@@UAE_NPBD_NAAVCUtlBuffer@@@Z 1002ebf0 f   zip_utils.obj
 0001:0002dc00       ?ReadFileFromZip@CZip@@UAE_NPAXPBD_NAAVCUtlBuffer@@@Z 1002ec00 f   zip_utils.obj
 0001:0002dc10       ?GetNextFilename@CZip@@UAEHHPADHAAH@Z 1002ec10 f   zip_utils.obj
 0001:0002dc80       ?PrintDirectory@CZip@@UAEXXZ 1002ec80 f   zip_utils.obj
 0001:0002dc90       ?Reset@CZip@@UAEXXZ        1002ec90 f   zip_utils.obj
 0001:0002dce0       ?EstimateSize@CZip@@UAEIXZ 1002ece0 f   zip_utils.obj
 0001:0002dcf0       ??1?$CUtlRBTree@VCZipEntry@CZipFile@@HP6A_NABV12@0@ZV?$CUtlMemory@U?$UtlRBTreeNode_t@VCZipEntry@CZipFile@@H@@H@@@@QAE@XZ 1002ecf0 f i zip_utils.obj
 0001:0002dd50       ?LinkToParent@?$CUtlRBTree@VCZipEntry@CZipFile@@HP6A_NABV12@0@ZV?$CUtlMemory@U?$UtlRBTreeNode_t@VCZipEntry@CZipFile@@H@@H@@@@IAEXHH_N@Z 1002ed50 f i zip_utils.obj
 0001:0002ddc0       ?Unlink@?$CUtlRBTree@VCZipEntry@CZipFile@@HP6A_NABV12@0@ZV?$CUtlMemory@U?$UtlRBTreeNode_t@VCZipEntry@CZipFile@@H@@H@@@@IAEXH@Z 1002edc0 f i zip_utils.obj
 0001:0002e0b0       ??$DataMapInit@UZIP_EndOfCentralDirRecord@@@@YAPAUdatamap_t@@PAUZIP_EndOfCentralDirRecord@@@Z 1002f0b0 f   zip_utils.obj
 0001:0002e130       ??$DataMapInit@UZIP_FileHeader@@@@YAPAUdatamap_t@@PAUZIP_FileHeader@@@Z 1002f130 f   zip_utils.obj
 0001:0002e1b0       ??$DataMapInit@UZIP_LocalFileHeader@@@@YAPAUdatamap_t@@PAUZIP_LocalFileHeader@@@Z 1002f1b0 f   zip_utils.obj
 0001:0002e230       ??$DataMapInit@UZIP_PreloadHeader@@@@YAPAUdatamap_t@@PAUZIP_PreloadHeader@@@Z 1002f230 f   zip_utils.obj
 0001:0002e2b0       ??$DataMapInit@UZIP_PreloadDirectoryEntry@@@@YAPAUdatamap_t@@PAUZIP_PreloadDirectoryEntry@@@Z 1002f2b0 f   zip_utils.obj
 0001:0002e330       ??0CZipFile@@QAE@PBD_N@Z   1002f330 f   zip_utils.obj
 0001:0002e3e0       ??1CZipFile@@QAE@XZ        1002f3e0 f   zip_utils.obj
 0001:0002e480       ??0CZip@@QAE@PBD_N@Z       1002f480 f   zip_utils.obj
 0001:0002e4f0       ?SaveToBuffer@CZip@@UAEXAAVCUtlBuffer@@@Z 1002f4f0 f   zip_utils.obj
 0001:0002e520       ?SaveToDisk@CZip@@UAEXPAU_iobuf@@@Z 1002f520 f   zip_utils.obj
 0001:0002e550       ?SaveToDisk@CZip@@UAEXPAX@Z 1002f550 f   zip_utils.obj
 0001:0002e580       ??_ECZip@@UAEPAXI@Z        1002f580 f i zip_utils.obj
 0001:0002e580       ??_GCZip@@UAEPAXI@Z        1002f580 f i zip_utils.obj
 0001:0002e5b0       ?Remove@?$CUtlRBTree@VCZipEntry@CZipFile@@HP6A_NABV12@0@ZV?$CUtlMemory@U?$UtlRBTreeNode_t@VCZipEntry@CZipFile@@H@@H@@@@QAE_NABVCZipEntry@CZipFile@@@Z 1002f5b0 f i zip_utils.obj
 0001:0002e620       ?FindAndRemove@?$CUtlLinkedList@PAVCZip@@G$0A@GV?$CUtlMemory@U?$UtlLinkedListElem_t@PAVCZip@@G@@G@@@@QAE_NABQAVCZip@@@Z 1002f620 f i zip_utils.obj
 0001:0002e6a0       ?ParseFromBuffer@CZipFile@@QAEXPAXH@Z 1002f6a0 f   zip_utils.obj
 0001:0002eb10       ?ParseFromDisk@CZipFile@@QAEPAXPBD@Z 1002fb10 f   zip_utils.obj
 0001:0002eef0       ?AddBufferToZip@CZipFile@@QAEXPBDPAXH_N@Z 1002fef0 f   zip_utils.obj
 0001:0002f160       ?AddFileToZip@CZipFile@@QAEXPBD0@Z 10030160 f   zip_utils.obj
 0001:0002f1e0       ?RemoveFileFromZip@CZipFile@@QAEXPBD@Z 100301e0 f   zip_utils.obj
 0001:0002f290       ?CreateZip@IZip@@SAPAV1@PBD_N@Z 10030290 f   zip_utils.obj
 0001:0002f2f0       ?ReleaseZip@IZip@@SAXPAV1@@Z 100302f0 f   zip_utils.obj
 0001:0002f320       ?AddFileToZip@CZip@@UAEXPBD0@Z 10030320 f   zip_utils.obj
 0001:0002f330       ?RemoveFileFromZip@CZip@@UAEXPBD@Z 10030330 f   zip_utils.obj
 0001:0002f340       ?AddBufferToZip@CZip@@UAEXPBDPAXH_N@Z 10030340 f   zip_utils.obj
 0001:0002f350       ?ParseFromBuffer@CZip@@UAEXPAXH@Z 10030350 f   zip_utils.obj
 0001:0002f3c0       ?ParseFromDisk@CZip@@UAEPAXPBD@Z 100303c0 f   zip_utils.obj
 0001:0002f420       ?GetPakFile@@YAPAVIZip@@XZ 10030420 f   bsplib.obj
 0001:0002f440       ?ReleasePakFileLumps@@YAXXZ 10030440 f   bsplib.obj
 0001:0002f460       ?AddBufferToPak@@YAXPAVIZip@@PBDPAXH_N@Z 10030460 f   bsplib.obj
 0001:0002f480       ?InvalidGameLump@CGameLump@@QAEGXZ 10030480 f   bsplib.obj
 0001:0002f490       ?DecompressVis@@YAXPAE0@Z  10030490 f   bsplib.obj
 0001:0002f520       ?ArrayUsage@@YAHPADHHH@Z   10030520 f   bsplib.obj
 0001:0002f5f0       ?GlobUsage@@YAHPADHH@Z     100305f0 f   bsplib.obj
 0001:0002f6b0       ?ParseEpair@@YAPAUepair_t@@XZ 100306b0 f   bsplib.obj
 0001:0002f790       ?SetKeyValue@@YAXPAUentity_t@@PBD1@Z 10030790 f   bsplib.obj
 0001:0002f810       ?ValueForKey@@YAPADPAUentity_t@@PAD@Z 10030810 f   bsplib.obj
 0001:0002f850       ?FloatForKey@@YAMPAUentity_t@@PAD@Z 10030850 f   bsplib.obj
 0001:0002f8a0       ?FloatForKeyWithDefault@@YAMPAUentity_t@@PADM@Z 100308a0 f   bsplib.obj
 0001:0002f8e0       ?IntForKey@@YAHPAUentity_t@@PAD@Z 100308e0 f   bsplib.obj
 0001:0002f930       ?GetAnglesForKey@@YAXPAUentity_t@@PADAAVQAngle@@@Z 10030930 f   bsplib.obj
 0001:0002f930       ?GetVectorForKey@@YAXPAUentity_t@@PADAAVVector@@@Z 10030930 f   bsplib.obj
 0001:0002f9b0       ?LeafCount@CToolBSPTree@@UBEHXZ 100309b0 f   bsplib.obj
 0001:0002f9c0       ?EnumerateLeavesAtPoint@CToolBSPTree@@UAE_NABVVector@@PAVISpatialLeafEnumerator@@H@Z 100309c0 f   bsplib.obj
 0001:0002fb70       ?EnumerateLeavesInBox@CToolBSPTree@@UAE_NABVVector@@0PAVISpatialLeafEnumerator@@H@Z 10030b70 f   bsplib.obj
 0001:0002fc60       ?EnumerateLeavesInSphere@CToolBSPTree@@UAE_NABVVector@@MPAVISpatialLeafEnumerator@@H@Z 10030c60 f   bsplib.obj
 0001:0002fe60       ?EnumerateLeavesAlongRay@CToolBSPTree@@UAE_NABURay_t@@PAVISpatialLeafEnumerator@@H@Z 10030e60 f   bsplib.obj
 0001:000300e0       ?EnumerateNodesAlongRay@@YA_NABURay_t@@PAVIBSPNodeEnumerator@@H@Z 100310e0 f   bsplib.obj
 0001:00030110       ?GetPlatformMapPath@@YAXPBDPADHH@Z 10031110 f   bsplib.obj
 0001:00030140       ?SetHDRMode@@YAX_N@Z       10031140 f   bsplib.obj
 0001:000301d0       ??$SwapFieldsToTargetEndian@UStaticPropDictLump_t@@@CByteswap@@QAEXPAUStaticPropDictLump_t@@PAXI@Z 100311d0 f i bsplib.obj
 0001:00030220       ??$SwapFieldsToTargetEndian@UStaticPropLeafLump_t@@@CByteswap@@QAEXPAUStaticPropLeafLump_t@@PAXI@Z 10031220 f i bsplib.obj
 0001:00030270       ??$SwapFieldsToTargetEndian@UDetailObjectDictLump_t@@@CByteswap@@QAEXPAUDetailObjectDictLump_t@@PAXI@Z 10031270 f i bsplib.obj
 0001:000302c0       ??$SwapFieldsToTargetEndian@UDetailPropLightstylesLump_t@@@CByteswap@@QAEXPAUDetailPropLightstylesLump_t@@PAXI@Z 100312c0 f i bsplib.obj
 0001:00030310       ??$SwapFieldsToTargetEndian@Udgamelumpheader_t@@@CByteswap@@QAEXPAUdgamelumpheader_t@@PAXI@Z 10031310 f i bsplib.obj
 0001:00030360       ??$SwapFieldsToTargetEndian@Udheader_t@@@CByteswap@@QAEXPAUdheader_t@@PAXI@Z 10031360 f i bsplib.obj
 0001:000303b0       ??$SwapFieldsToTargetEndian@Udleafambientlighting_t@@@CByteswap@@QAEXPAUdleafambientlighting_t@@PAXI@Z 100313b0 f i bsplib.obj
 0001:00030400       ??$SwapFieldsToTargetEndian@Udleafambientindex_t@@@CByteswap@@QAEXPAUdleafambientindex_t@@PAXI@Z 10031400 f i bsplib.obj
 0001:00030450       ??$SwapFieldsToTargetEndian@Udflagslump_t@@@CByteswap@@QAEXPAUdflagslump_t@@PAXI@Z 10031450 f i bsplib.obj
 0001:000304a0       ??$SwapFieldsToTargetEndian@Udface_t@@@CByteswap@@QAEXPAUdface_t@@PAXI@Z 100314a0 f i bsplib.obj
 0001:000304f0       ??$SwapFieldsToTargetEndian@Udworldlight_t@@@CByteswap@@QAEXPAUdworldlight_t@@PAXI@Z 100314f0 f i bsplib.obj
 0001:00030540       ??$SwapFieldsToTargetEndian@Udmodel_t@@@CByteswap@@QAEXPAUdmodel_t@@PAXI@Z 10031540 f i bsplib.obj
 0001:00030590       ??$SwapFieldsToTargetEndian@Udvertex_t@@@CByteswap@@QAEXPAUdvertex_t@@PAXI@Z 10031590 f i bsplib.obj
 0001:000305e0       ??$SwapFieldsToTargetEndian@Udplane_t@@@CByteswap@@QAEXPAUdplane_t@@PAXI@Z 100315e0 f i bsplib.obj
 0001:00030630       ??$SwapFieldsToTargetEndian@Utexinfo_s@@@CByteswap@@QAEXPAUtexinfo_s@@PAXI@Z 10031630 f i bsplib.obj
 0001:00030680       ??$SwapFieldsToTargetEndian@Vddispinfo_t@@@CByteswap@@QAEXPAVddispinfo_t@@PAXI@Z 10031680 f i bsplib.obj
 0001:000306d0       ??$SwapFieldsToTargetEndian@VCDispVert@@@CByteswap@@QAEXPAVCDispVert@@PAXI@Z 100316d0 f i bsplib.obj
 0001:00030720       ??$SwapFieldsToTargetEndian@VCDispTri@@@CByteswap@@QAEXPAVCDispTri@@PAXI@Z 10031720 f i bsplib.obj
 0001:00030770       ??$SwapFieldsToTargetEndian@VCFaceMacroTextureInfo@@@CByteswap@@QAEXPAVCFaceMacroTextureInfo@@PAXI@Z 10031770 f i bsplib.obj
 0001:000307c0       ??$SwapFieldsToTargetEndian@Udprimitive_t@@@CByteswap@@QAEXPAUdprimitive_t@@PAXI@Z 100317c0 f i bsplib.obj
 0001:00030810       ??$SwapFieldsToTargetEndian@Udprimvert_t@@@CByteswap@@QAEXPAUdprimvert_t@@PAXI@Z 10031810 f i bsplib.obj
 0001:00030860       ??$SwapFieldsToTargetEndian@Udbrush_t@@@CByteswap@@QAEXPAUdbrush_t@@PAXI@Z 10031860 f i bsplib.obj
 0001:000308b0       ??$SwapFieldsToTargetEndian@Udareaportal_t@@@CByteswap@@QAEXPAUdareaportal_t@@PAXI@Z 100318b0 f i bsplib.obj
 0001:00030900       ??$SwapFieldsToTargetEndian@Udleafwaterdata_t@@@CByteswap@@QAEXPAUdleafwaterdata_t@@PAXI@Z 10031900 f i bsplib.obj
 0001:00030950       ??$SwapFieldsToTargetEndian@Udcubemapsample_t@@@CByteswap@@QAEXPAUdcubemapsample_t@@PAXI@Z 10031950 f i bsplib.obj
 0001:000309a0       ??$SwapFieldsToTargetEndian@Udoverlay_t@@@CByteswap@@QAEXPAUdoverlay_t@@PAXI@Z 100319a0 f i bsplib.obj
 0001:000309f0       ??$SwapFieldsToTargetEndian@Udwateroverlay_t@@@CByteswap@@QAEXPAUdwateroverlay_t@@PAXI@Z 100319f0 f i bsplib.obj
 0001:00030a40       ??$SwapFieldsToTargetEndian@Udoverlayfade_t@@@CByteswap@@QAEXPAUdoverlayfade_t@@PAXI@Z 10031a40 f i bsplib.obj
 0001:00030a90       ??$SwapFieldsToTargetEndian@Udoccluderdata_t@@@CByteswap@@QAEXPAUdoccluderdata_t@@PAXI@Z 10031a90 f i bsplib.obj
 0001:00030ae0       ??$SwapFieldsToTargetEndian@Udoccluderpolydata_t@@@CByteswap@@QAEXPAUdoccluderpolydata_t@@PAXI@Z 10031ae0 f i bsplib.obj
 0001:00030b30       ??$SwapFieldsToTargetEndian@Udfaceid_t@@@CByteswap@@QAEXPAUdfaceid_t@@PAXI@Z 10031b30 f i bsplib.obj
 0001:00030b80       ?Grow@?$CUtlMemory@Utexinfo_s@@H@@QAEXH@Z 10031b80 f i bsplib.obj
 0001:00030c20       ?Grow@?$CUtlMemory@VCUtlString@@H@@QAEXH@Z 10031c20 f i bsplib.obj
 0001:00030cd0       ?Grow@?$CUtlMemory@Udoccluderdata_t@@H@@QAEXH@Z 10031cd0 f i bsplib.obj
 0001:00030d70       ??4ddispinfo_t@@QAEAAV0@ABV0@@Z 10031d70 f i bsplib.obj
 0001:00030ee0       ?Grow@?$CUtlMemory@Vddispinfo_t@@H@@QAEXH@Z 10031ee0 f i bsplib.obj
 0001:000310f0       ??$SwapBufferToTargetEndian@M@CByteswap@@QAEXPAM0H@Z 100320f0 f i bsplib.obj
 0001:00031170       ??$SwapBufferToTargetEndian@G@CByteswap@@QAEXPAG0H@Z 10032170 f i bsplib.obj
 0001:00031170       ??$SwapBufferToTargetEndian@F@CByteswap@@QAEXPAF0H@Z 10032170 f i bsplib.obj
 0001:000311e0       ??$CopyLumpInternal@Udleafambientlighting_t@@@@YAHHPAUdleafambientlighting_t@@H@Z 100321e0 f i bsplib.obj
 0001:000312c0       ??$CopyLumpInternal@Udleafambientindex_t@@@@YAHHPAUdleafambientindex_t@@H@Z 100322c0 f i bsplib.obj
 0001:00031370       ??$CopyLumpInternal@Udmodel_t@@@@YAHHPAUdmodel_t@@H@Z 10032370 f i bsplib.obj
 0001:00031440       ??$CopyLumpInternal@Udvertex_t@@@@YAHHPAUdvertex_t@@H@Z 10032440 f i bsplib.obj
 0001:00031510       ??$CopyLumpInternal@Udplane_t@@@@YAHHPAUdplane_t@@H@Z 10032510 f i bsplib.obj
 0001:000315e0       ??$CopyLumpInternal@Utexinfo_s@@@@YAHHPAUtexinfo_s@@H@Z 100325e0 f i bsplib.obj
 0001:000316b0       ??$CopyLumpInternal@Vddispinfo_t@@@@YAHHPAVddispinfo_t@@H@Z 100326b0 f i bsplib.obj
 0001:00031780       ??$CopyLumpInternal@VCDispVert@@@@YAHHPAVCDispVert@@H@Z 10032780 f i bsplib.obj
 0001:00031850       ??$CopyLumpInternal@Udface_t@@@@YAHHPAUdface_t@@H@Z 10032850 f i bsplib.obj
 0001:00031930       ??$CopyLumpInternal@Udfaceid_t@@@@YAHHPAUdfaceid_t@@H@Z 10032930 f i bsplib.obj
 0001:000319e0       ??$CopyLumpInternal@Udprimitive_t@@@@YAHHPAUdprimitive_t@@H@Z 100329e0 f i bsplib.obj
 0001:00031ab0       ??$CopyLumpInternal@Udprimvert_t@@@@YAHHPAUdprimvert_t@@H@Z 10032ab0 f i bsplib.obj
 0001:00031b80       ??$CopyLumpInternal@Udbrush_t@@@@YAHHPAUdbrush_t@@H@Z 10032b80 f i bsplib.obj
 0001:00031c50       ??$CopyLumpInternal@Udareaportal_t@@@@YAHHPAUdareaportal_t@@H@Z 10032c50 f i bsplib.obj
 0001:00031d20       ??$CopyLumpInternal@Udworldlight_t@@@@YAHHPAUdworldlight_t@@H@Z 10032d20 f i bsplib.obj
 0001:00031de0       ??$CopyLumpInternal@Udleafwaterdata_t@@@@YAHHPAUdleafwaterdata_t@@H@Z 10032de0 f i bsplib.obj
 0001:00031eb0       ??$CopyLumpInternal@Udcubemapsample_t@@@@YAHHPAUdcubemapsample_t@@H@Z 10032eb0 f i bsplib.obj
 0001:00031f90       ??$CopyLumpInternal@Udoverlay_t@@@@YAHHPAUdoverlay_t@@H@Z 10032f90 f i bsplib.obj
 0001:00032060       ??$CopyLumpInternal@Udwateroverlay_t@@@@YAHHPAUdwateroverlay_t@@H@Z 10033060 f i bsplib.obj
 0001:00032130       ??$CopyLumpInternal@Udoverlayfade_t@@@@YAHHPAUdoverlayfade_t@@H@Z 10033130 f i bsplib.obj
 0001:000321e0       ??$CopyLumpInternal@Udflagslump_t@@@@YAHHPAUdflagslump_t@@H@Z 100331e0 f i bsplib.obj
 0001:00032290       ?GetGameLumpVersion@CGameLump@@QAEHG@Z 10033290 f   bsplib.obj
 0001:000322b0       ?GetGameLump@CGameLump@@QAEPAXG@Z 100332b0 f   bsplib.obj
 0001:000322d0       ?GameLumpSize@CGameLump@@QAEHG@Z 100332d0 f   bsplib.obj
 0001:000322f0       ?SwapGameLump@CGameLump@@QAEXHHPAE0H@Z 100332f0 f   bsplib.obj
 0001:00032660       ?TexDataStringTable_GetString@@YAPBDH@Z 10033660 f   bsplib.obj
 0001:00032be0       ?Lumps_Write@@YAXXZ        10033be0 f   bsplib.obj
 0001:00032c50       ?OpenBSPFile@@YAXPBD@Z     10033c50 f   bsplib.obj
 0001:00032d10       ?ParseEntities@@YAXXZ      10033d10 f   bsplib.obj
 0001:00032de0       ?CalcFaceExtents@@YAXPAUdface_t@@QAH1@Z 10033de0 f   bsplib.obj
 0001:000330a0       ?UpdateAllFaceLightmapExtents@@YAXXZ 100340a0 f   bsplib.obj
 0001:000330f0       ?ToolBSPTree@@YAPAVISpatialQuery@@XZ 100340f0 f   bsplib.obj
 0001:00033120       ??$GetObjects@Udoccluderdata_t@@@CUtlBuffer@@QAEXPAUdoccluderdata_t@@H@Z 10034120 f i bsplib.obj
 0001:000331b0       ??$GetObjects@Udoccluderpolydata_t@@@CUtlBuffer@@QAEXPAUdoccluderpolydata_t@@H@Z 100341b0 f i bsplib.obj
 0001:00033210       ?InsertMultipleBefore@?$CUtlVector@Utexinfo_s@@V?$CUtlMemory@Utexinfo_s@@H@@@@QAEHHHPBUtexinfo_s@@@Z 10034210 f i bsplib.obj
 0001:000332c0       ??$CopyLumpInternal@D@@YAHHHPADH@Z 100342c0 f i bsplib.obj
 0001:000332c0       ??$CopyLumpInternal@E@@YAHHHPAEH@Z 100342c0 f i bsplib.obj
 0001:00033400       ??$CopyLumpInternal@G@@YAHHHPAGH@Z 10034400 f i bsplib.obj
 0001:00033540       ??$CopyLumpInternal@H@@YAHHHPAHH@Z 10034540 f i bsplib.obj
 0001:00033680       ??$CopyLumpInternal@M@@YAHHHPAMH@Z 10034680 f i bsplib.obj
 0001:000337c0       ?InsertMultipleBefore@?$CUtlVector@Udoccluderdata_t@@V?$CUtlMemory@Udoccluderdata_t@@H@@@@QAEHHHPBUdoccluderdata_t@@@Z 100347c0 f i bsplib.obj
 0001:00033a10       ?InsertMultipleBefore@?$CUtlVector@Udoccluderpolydata_t@@V?$CUtlMemory@Udoccluderpolydata_t@@H@@@@QAEHHHPBUdoccluderpolydata_t@@@Z 10034a10 f i bsplib.obj
 0001:00033ac0       ?AllocInternal@?$CUtlLinkedList@UGameLump_t@@G$0A@GV?$CUtlMemory@U?$UtlLinkedListElem_t@UGameLump_t@@G@@G@@@@IAEG_N@Z 10034ac0 f i bsplib.obj
 0001:00033be0       ?InsertMultipleBefore@?$CUtlVector@Udleafambientlighting_t@@V?$CUtlMemory@Udleafambientlighting_t@@H@@@@QAEHHHPBUdleafambientlighting_t@@@Z 10034be0 f i bsplib.obj
 0001:00033cb0       ?InsertMultipleBefore@?$CUtlVector@Vddispinfo_t@@V?$CUtlMemory@Vddispinfo_t@@H@@@@QAEHHHPBVddispinfo_t@@@Z 10034cb0 f i bsplib.obj
 0001:00033d60       ?InsertMultipleBefore@?$CUtlVector@VCDispVert@@V?$CUtlMemory@VCDispVert@@H@@@@QAEHHHPBVCDispVert@@@Z 10034d60 f i bsplib.obj
 0001:00033ef0       ?GetGameLumpHandle@CGameLump@@QAEGH@Z 10034ef0 f   bsplib.obj
 0001:00033f30       ?ComputeGameLumpSizeAndCount@CGameLump@@QAEXAAH0@Z 10034f30 f   bsplib.obj
 0001:00034450       ?PrintBSPFileSizes@@YAXXZ  10035450 f   bsplib.obj
 0001:00034a70       ?Unlink@?$CUtlLinkedList@UGameLump_t@@G$0A@GV?$CUtlMemory@U?$UtlLinkedListElem_t@UGameLump_t@@G@@G@@@@QAEXG@Z 10035a70 f i bsplib.obj
 0001:00034bc0       ?Lumps_Parse@@YAXXZ        10035bc0 f   bsplib.obj
 0001:00034c20       ?WriteBSPFile@@YAXPBDPAD@Z 10035c20 f   bsplib.obj
 0001:00035290       ??$CopyLump@D@@YAXHHAAV?$CUtlVector@DV?$CUtlMemory@DH@@@@H@Z 10036290 f i bsplib.obj
 0001:00035310       ??$CopyLump@H@@YAXHHAAV?$CUtlVector@HV?$CUtlMemory@HH@@@@H@Z 10036310 f i bsplib.obj
 0001:00035390       ?LinkBefore@?$CUtlLinkedList@UGameLump_t@@G$0A@GV?$CUtlMemory@U?$UtlLinkedListElem_t@UGameLump_t@@G@@G@@@@QAEXGG@Z 10036390 f i bsplib.obj
 0001:00035420       ??$DataMapInit@Udheader_t@@@@YAPAUdatamap_t@@PAUdheader_t@@@Z 10036420 f   bsplib.obj
 0001:000354a0       ??$DataMapInit@Ulump_t@@@@YAPAUdatamap_t@@PAUlump_t@@@Z 100364a0 f   bsplib.obj
 0001:00035520       ??$DataMapInit@Udflagslump_t@@@@YAPAUdatamap_t@@PAUdflagslump_t@@@Z 10036520 f   bsplib.obj
 0001:000355a0       ??$DataMapInit@Udplane_t@@@@YAPAUdatamap_t@@PAUdplane_t@@@Z 100365a0 f   bsplib.obj
 0001:00035620       ??$DataMapInit@Udleaf_version_0_t@@@@YAPAUdatamap_t@@PAUdleaf_version_0_t@@@Z 10036620 f   bsplib.obj
 0001:000356a0       ??$DataMapInit@Udleaf_t@@@@YAPAUdatamap_t@@PAUdleaf_t@@@Z 100366a0 f   bsplib.obj
 0001:00035720       ??$DataMapInit@UCompressedLightCube@@@@YAPAUdatamap_t@@PAUCompressedLightCube@@@Z 10036720 f   bsplib.obj
 0001:000357a0       ??$DataMapInit@Udleafambientindex_t@@@@YAPAUdatamap_t@@PAUdleafambientindex_t@@@Z 100367a0 f   bsplib.obj
 0001:00035820       ??$DataMapInit@Udleafambientlighting_t@@@@YAPAUdatamap_t@@PAUdleafambientlighting_t@@@Z 10036820 f   bsplib.obj
 0001:000358a0       ??$DataMapInit@Udvertex_t@@@@YAPAUdatamap_t@@PAUdvertex_t@@@Z 100368a0 f   bsplib.obj
 0001:00035920       ??$DataMapInit@Udnode_t@@@@YAPAUdatamap_t@@PAUdnode_t@@@Z 10036920 f   bsplib.obj
 0001:000359a0       ??$DataMapInit@Utexinfo_s@@@@YAPAUdatamap_t@@PAUtexinfo_s@@@Z 100369a0 f   bsplib.obj
 0001:00035a20       ??$DataMapInit@Udtexdata_t@@@@YAPAUdatamap_t@@PAUdtexdata_t@@@Z 10036a20 f   bsplib.obj
 0001:00035aa0       ??$DataMapInit@Vddispinfo_t@@@@YAPAUdatamap_t@@PAVddispinfo_t@@@Z 10036aa0 f   bsplib.obj
 0001:00035b20       ??$DataMapInit@VCDispNeighbor@@@@YAPAUdatamap_t@@PAVCDispNeighbor@@@Z 10036b20 f   bsplib.obj
 0001:00035ba0       ??$DataMapInit@VCDispCornerNeighbors@@@@YAPAUdatamap_t@@PAVCDispCornerNeighbors@@@Z 10036ba0 f   bsplib.obj
 0001:00035c20       ??$DataMapInit@UCDispSubNeighbor@@@@YAPAUdatamap_t@@PAUCDispSubNeighbor@@@Z 10036c20 f   bsplib.obj
 0001:00035ca0       ??$DataMapInit@VCDispVert@@@@YAPAUdatamap_t@@PAVCDispVert@@@Z 10036ca0 f   bsplib.obj
 0001:00035d20       ??$DataMapInit@VCDispTri@@@@YAPAUdatamap_t@@PAVCDispTri@@@Z 10036d20 f   bsplib.obj
 0001:00035da0       ??$DataMapInit@VCFaceMacroTextureInfo@@@@YAPAUdatamap_t@@PAVCFaceMacroTextureInfo@@@Z 10036da0 f   bsplib.obj
 0001:00035e20       ??$DataMapInit@Udprimitive_t@@@@YAPAUdatamap_t@@PAUdprimitive_t@@@Z 10036e20 f   bsplib.obj
 0001:00035ea0       ??$DataMapInit@Udprimvert_t@@@@YAPAUdatamap_t@@PAUdprimvert_t@@@Z 10036ea0 f   bsplib.obj
 0001:00035f20       ??$DataMapInit@Udface_t@@@@YAPAUdatamap_t@@PAUdface_t@@@Z 10036f20 f   bsplib.obj
 0001:00035fa0       ??$DataMapInit@Udfaceid_t@@@@YAPAUdatamap_t@@PAUdfaceid_t@@@Z 10036fa0 f   bsplib.obj
 0001:00036020       ??$DataMapInit@Udbrush_t@@@@YAPAUdatamap_t@@PAUdbrush_t@@@Z 10037020 f   bsplib.obj
 0001:000360a0       ??$DataMapInit@Udbrushside_t@@@@YAPAUdatamap_t@@PAUdbrushside_t@@@Z 100370a0 f   bsplib.obj
 0001:00036120       ??$DataMapInit@Udedge_t@@@@YAPAUdatamap_t@@PAUdedge_t@@@Z 10037120 f   bsplib.obj
 0001:000361a0       ??$DataMapInit@Udmodel_t@@@@YAPAUdatamap_t@@PAUdmodel_t@@@Z 100371a0 f   bsplib.obj
 0001:00036220       ??$DataMapInit@Udphysmodel_t@@@@YAPAUdatamap_t@@PAUdphysmodel_t@@@Z 10037220 f   bsplib.obj
 0001:000362a0       ??$DataMapInit@Udphysdisp_t@@@@YAPAUdatamap_t@@PAUdphysdisp_t@@@Z 100372a0 f   bsplib.obj
 0001:00036320       ??$DataMapInit@Udarea_t@@@@YAPAUdatamap_t@@PAUdarea_t@@@Z 10037320 f   bsplib.obj
 0001:000363a0       ??$DataMapInit@Udareaportal_t@@@@YAPAUdatamap_t@@PAUdareaportal_t@@@Z 100373a0 f   bsplib.obj
 0001:00036420       ??$DataMapInit@Udworldlight_t@@@@YAPAUdatamap_t@@PAUdworldlight_t@@@Z 10037420 f   bsplib.obj
 0001:000364a0       ??$DataMapInit@Udleafwaterdata_t@@@@YAPAUdatamap_t@@PAUdleafwaterdata_t@@@Z 100374a0 f   bsplib.obj
 0001:00036520       ??$DataMapInit@Udoccluderdata_t@@@@YAPAUdatamap_t@@PAUdoccluderdata_t@@@Z 10037520 f   bsplib.obj
 0001:000365a0       ??$DataMapInit@Udoccluderpolydata_t@@@@YAPAUdatamap_t@@PAUdoccluderpolydata_t@@@Z 100375a0 f   bsplib.obj
 0001:00036620       ??$DataMapInit@Udcubemapsample_t@@@@YAPAUdatamap_t@@PAUdcubemapsample_t@@@Z 10037620 f   bsplib.obj
 0001:000366a0       ??$DataMapInit@Udoverlay_t@@@@YAPAUdatamap_t@@PAUdoverlay_t@@@Z 100376a0 f   bsplib.obj
 0001:00036720       ??$DataMapInit@Udwateroverlay_t@@@@YAPAUdatamap_t@@PAUdwateroverlay_t@@@Z 10037720 f   bsplib.obj
 0001:000367a0       ??$DataMapInit@Udoverlayfade_t@@@@YAPAUdatamap_t@@PAUdoverlayfade_t@@@Z 100377a0 f   bsplib.obj
 0001:00036820       ??$DataMapInit@Udgamelumpheader_t@@@@YAPAUdatamap_t@@PAUdgamelumpheader_t@@@Z 10037820 f   bsplib.obj
 0001:000368a0       ??$DataMapInit@Udgamelump_t@@@@YAPAUdatamap_t@@PAUdgamelump_t@@@Z 100378a0 f   bsplib.obj
 0001:00036920       ??$DataMapInit@UStaticPropDictLump_t@@@@YAPAUdatamap_t@@PAUStaticPropDictLump_t@@@Z 10037920 f   bsplib.obj
 0001:000369a0       ??$DataMapInit@UStaticPropLump_t@@@@YAPAUdatamap_t@@PAUStaticPropLump_t@@@Z 100379a0 f   bsplib.obj
 0001:00036a20       ??$DataMapInit@UStaticPropLumpV4_t@@@@YAPAUdatamap_t@@PAUStaticPropLumpV4_t@@@Z 10037a20 f   bsplib.obj
 0001:00036aa0       ??$DataMapInit@UStaticPropLumpV5_t@@@@YAPAUdatamap_t@@PAUStaticPropLumpV5_t@@@Z 10037aa0 f   bsplib.obj
 0001:00036b20       ??$DataMapInit@UStaticPropLeafLump_t@@@@YAPAUdatamap_t@@PAUStaticPropLeafLump_t@@@Z 10037b20 f   bsplib.obj
 0001:00036ba0       ??$DataMapInit@UDetailObjectDictLump_t@@@@YAPAUdatamap_t@@PAUDetailObjectDictLump_t@@@Z 10037ba0 f   bsplib.obj
 0001:00036c20       ??$DataMapInit@UDetailObjectLump_t@@@@YAPAUdatamap_t@@PAUDetailObjectLump_t@@@Z 10037c20 f   bsplib.obj
 0001:00036ca0       ??$DataMapInit@UDetailSpriteDictLump_t@@@@YAPAUdatamap_t@@PAUDetailSpriteDictLump_t@@@Z 10037ca0 f   bsplib.obj
 0001:00036d20       ??$DataMapInit@UDetailPropLightstylesLump_t@@@@YAPAUdatamap_t@@PAUDetailPropLightstylesLump_t@@@Z 10037d20 f   bsplib.obj
 0001:00036da0       ??$DataMapInit@UMeshHeader_t@HardwareVerts@@@HardwareVerts@@YAPAUdatamap_t@@PAUMeshHeader_t@0@@Z 10037da0 f   bsplib.obj
 0001:00036e20       ??$DataMapInit@UFileHeader_t@HardwareVerts@@@HardwareVerts@@YAPAUdatamap_t@@PAUFileHeader_t@0@@Z 10037e20 f   bsplib.obj
 0001:00037070       ??$DataMapInit@Uswapcollideheader_t@@@@YAPAUdatamap_t@@PAUswapcollideheader_t@@@Z 10038070 f   bsplib.obj
 0001:000370f0       ??$DataMapInit@Uswapcompactsurfaceheader_t@@@@YAPAUdatamap_t@@PAUswapcompactsurfaceheader_t@@@Z 100380f0 f   bsplib.obj
 0001:00037170       ??$DataMapInit@Uswapmoppsurfaceheader_t@@@@YAPAUdatamap_t@@PAUswapmoppsurfaceheader_t@@@Z 10038170 f   bsplib.obj
 0001:000371e0       ?LoadLeafs@@YAHXZ          100381e0 f   bsplib.obj
 0001:000373d0       ?RemoveAll@?$CUtlLinkedList@UGameLump_t@@G$0A@GV?$CUtlMemory@U?$UtlLinkedListElem_t@UGameLump_t@@G@@G@@@@QAEXXZ 100383d0 f i bsplib.obj
 0001:00037480       ??$CopyOptionalLump@Udleafambientlighting_t@@@@YAXHAAV?$CUtlVector@Udleafambientlighting_t@@V?$CUtlMemory@Udleafambientlighting_t@@H@@@@H@Z 10038480 f i bsplib.obj
 0001:000374e0       ??$CopyOptionalLump@Udleafambientindex_t@@@@YAXHAAV?$CUtlVector@Udleafambientindex_t@@V?$CUtlMemory@Udleafambientindex_t@@H@@@@H@Z 100384e0 f i bsplib.obj
 0001:00037560       ?LoadLeafAmbientLighting@@YAXH@Z 10038560 f   bsplib.obj
 0001:00037790       ??$CopyOptionalLump@Udfaceid_t@@@@YAXHAAV?$CUtlVector@Udfaceid_t@@V?$CUtlMemory@Udfaceid_t@@H@@@@H@Z 10038790 f i bsplib.obj
 0001:00037810       ?RemoveAll@?$CUtlVector@Uclusterlist_t@@V?$CUtlMemory@Uclusterlist_t@@H@@@@QAEXXZ 10038810 f i bsplib.obj
 0001:000378b0       ?RemoveAll@?$CUtlVector@VCUtlString@@V?$CUtlMemory@VCUtlString@@H@@@@QAEXXZ 100388b0 f i bsplib.obj
 0001:00037910       ?InsertMultipleBefore@?$CUtlVector@Uclusterlist_t@@V?$CUtlMemory@Uclusterlist_t@@H@@@@QAEHHHPBUclusterlist_t@@@Z 10038910 f i bsplib.obj
 0001:00037a10       ?CreateGameLump@CGameLump@@QAEGHHHH@Z 10038a10 f   bsplib.obj
 0001:00037ac0       ?DestroyGameLump@CGameLump@@QAEXG@Z 10038ac0 f   bsplib.obj
 0001:00037b20       ?ParseGameLump@CGameLump@@QAEXPAUdheader_t@@@Z 10038b20 f   bsplib.obj
 0001:00037c20       ?LoadBSPFile@@YAXPBD@Z     10038c20 f   bsplib.obj
 0001:00038c00       ??1?$CUtlVector@Uclusterlist_t@@V?$CUtlMemory@Uclusterlist_t@@H@@@@QAE@XZ 10039c00 f i bsplib.obj
 0001:00038c60       ??1?$CUtlVector@VCUtlString@@V?$CUtlMemory@VCUtlString@@H@@@@QAE@XZ 10039c60 f i bsplib.obj
 0001:00038cc0       ?BuildClusterTable@@YAXXZ  10039cc0 f   bsplib.obj
 0001:00038de0       ?Vector2DClear@@YAXAAVVector2D@@@Z 10039de0 f i builddisp.obj
 0001:00038df0       ?Vector2DSubtract@@YAXABVVector2D@@0AAV1@@Z 10039df0 f i builddisp.obj
 0001:00038e10       ?GetCornerNeighbors@CCoreDispSurface@@QAEPAVCDispCornerNeighbors@@H@Z 10039e10 f i builddisp.obj
 0001:00038e30       ?GetEdgeNeighbor@CCoreDispSurface@@QAEPAVCDispNeighbor@@H@Z 10039e30 f i builddisp.obj
 0001:00038e50       ?GetType@CCodec@ATI_Compress@@UBE?AW4_CodecType@@XZ 10039e50 f i bitmap:Codec.obj
 0001:00038e50       ?GetPointCount@CCoreDispSurface@@QBEHXZ 10039e50 f i builddisp.obj
 0001:00038e60       ?GetTexCoord@CCoreDispSurface@@QBEXHAAVVector2D@@@Z 10039e60 f i builddisp.obj
 0001:00038e80       ?GetLuxelCoord@CCoreDispSurface@@QBEXHHAAVVector2D@@@Z 10039e80 f i builddisp.obj
 0001:00038eb0       ?SetFlags@CCoreDispSurface@@QAEXH@Z 10039eb0 f i builddisp.obj
 0001:00038ec0       ?GetSAxis@CCoreDispSurface@@QAEXAAVVector@@@Z 10039ec0 f i builddisp.obj
 0001:00038ef0       ?GetTAxis@CCoreDispSurface@@QAEXAAVVector@@@Z 10039ef0 f i builddisp.obj
 0001:00038f20       ?GetPointStartIndex@CCoreDispSurface@@QAEHXZ 10039f20 f i builddisp.obj
 0001:00038f30       ?SetBoundingBox@CCoreDispNode@@QAEXABVVector@@0@Z 10039f30 f i builddisp.obj
 0001:00038f60       ?GetBoundingBox@CCoreDispNode@@QAEXAAVVector@@0@Z 10039f60 f i builddisp.obj
 0001:00038f90       ?SetErrorTerm@CCoreDispNode@@QAEXM@Z 10039f90 f i builddisp.obj
 0001:00038fa0       ?GetErrorTerm@CCoreDispNode@@QAEMXZ 10039fa0 f i builddisp.obj
 0001:00038fb0       ?SetCenterVertIndex@CCoreDispNode@@QAEXH@Z 10039fb0 f i builddisp.obj
 0001:00038fc0       ?SetNeighborVertIndex@CCoreDispNode@@QAEXHH@Z 10039fc0 f i builddisp.obj
 0001:00038fe0       ?GetNeighborVertIndex@CCoreDispNode@@QAEHH@Z 10039fe0 f i builddisp.obj
 0001:00038ff0       ?SetTriBoundingBox@CCoreDispNode@@QAEXHABVVector@@0@Z 10039ff0 f i builddisp.obj
 0001:00039030       ?GetTriBoundingBox@CCoreDispNode@@QAEXHAAVVector@@0@Z 1003a030 f i builddisp.obj
 0001:00039070       ?SetTriPlane@CCoreDispNode@@QAEXHABVVector@@M@Z 1003a070 f i builddisp.obj
 0001:000390b0       ?SetRayBoundingBox@CCoreDispNode@@QAEXHABVVector@@0@Z 1003a0b0 f i builddisp.obj
 0001:00039100       ?GetPostSpacing@CCoreDispInfo@@QAEHXZ 1003a100 f i builddisp.obj
 0001:00039110       ?GetSize@CCoreDispInfo@@QBEHXZ 1003a110 f i builddisp.obj
 0001:00039120       ?GetNodeLevel@@YAHH@Z      1003a120 f   builddisp.obj
 0001:00039160       ?GetNodeCount@@YAHH@Z      1003a160 f   builddisp.obj
 0001:00039180       ?GetNodeChild@@YAHHHH@Z    1003a180 f   builddisp.obj
 0001:00039190       ?Init@CCoreDispSurface@@QAEXXZ 1003a190 f   builddisp.obj
 0001:00039350       ?SetNeighborData@CCoreDispSurface@@QAEXQBVCDispNeighbor@@QBVCDispCornerNeighbors@@@Z 1003a350 f   builddisp.obj
 0001:000393d0       ?FindSurfPointStartIndex@CCoreDispSurface@@QAEHXZ 1003a3d0 f   builddisp.obj
 0001:000394c0       ?AdjustSurfPointData@CCoreDispSurface@@QAEXXZ 1003a4c0 f   builddisp.obj
 0001:00039770       ?LongestInU@CCoreDispSurface@@IAE_NABVVector@@0@Z 1003a770 f   builddisp.obj
 0001:000398d0       ?CalcLuxelCoords@CCoreDispSurface@@QAE_NH_NABVVector@@1@Z 1003a8d0 f   builddisp.obj
 0001:00039ce0       ?Init@CCoreDispNode@@QAEXXZ 1003ace0 f   builddisp.obj
 0001:00039e10       ??0CoreDispVert_t@@QAE@XZ  1003ae10 f i builddisp.obj
 0001:00039ea0       ?SetDispUtilsHelperInfo@CCoreDispInfo@@QAEXPAPAV1@H@Z 1003aea0 f   builddisp.obj
 0001:00039ed0       ?GetPowerInfo@CCoreDispInfo@@UBEPBVCPowerInfo@@XZ 1003aed0 f   builddisp.obj
 0001:00039ef0       ?GetEdgeNeighbor@CCoreDispInfo@@UAEPAVCDispNeighbor@@H@Z 1003aef0 f   builddisp.obj
 0001:00039f10       ?GetCornerNeighbors@CCoreDispInfo@@UAEPAVCDispCornerNeighbors@@H@Z 1003af10 f   builddisp.obj
 0001:00039f30       ?GetDispUtilsByIndex@CCoreDispInfo@@UAEPAVCDispUtilsHelper@@H@Z 1003af30 f   builddisp.obj
 0001:00039f70       ?BuildTriTLtoBR@CCoreDispInfo@@AAEXH@Z 1003af70 f   builddisp.obj
 0001:0003a070       ?BuildTriBLtoTR@CCoreDispInfo@@AAEXH@Z 1003b070 f   builddisp.obj
 0001:0003a170       ?GenerateCollisionSurface@CCoreDispInfo@@AAEXXZ 1003b170 f   builddisp.obj
 0001:0003a240       ?GenerateCollisionData@CCoreDispInfo@@AAEXXZ 1003b240 f   builddisp.obj
 0001:0003a260       ?CalcTriSurfPlanes@CCoreDispInfo@@AAEXHQAY02H@Z 1003b260 f   builddisp.obj
 0001:0003a450       ?CalcRayBoundingBoxes@CCoreDispInfo@@AAEXHQAY02H@Z 1003b450 f   builddisp.obj
 0001:0003abb0       ?CalcTriSurfBoundingBoxes@CCoreDispInfo@@AAEXHQAY02H@Z 1003bbb0 f   builddisp.obj
 0001:0003af30       ?CalcTriSurfIndices@CCoreDispInfo@@AAEXHQAY02H@Z 1003bf30 f   builddisp.obj
 0001:0003b190       ?CalcTriSurfInfoAtNode@CCoreDispInfo@@AAEXH@Z 1003c190 f   builddisp.obj
 0001:0003b1e0       ?CalcMinMaxBoundingBoxAtNode@CCoreDispInfo@@AAEXHAAVVector@@0@Z 1003c1e0 f   builddisp.obj
 0001:0003b400       ?CalcBoundingBoxAtNode@CCoreDispInfo@@AAEXH@Z 1003c400 f   builddisp.obj
 0001:0003b9b0       ?GetMaxErrorFromChildren@CCoreDispInfo@@AAEMHH@Z 1003c9b0 f   builddisp.obj
 0001:0003ba40       ?CalcErrorTermAtNode@CCoreDispInfo@@AAEXHH@Z 1003ca40 f   builddisp.obj
 0001:0003c050       ?CalcNeighborVertIndicesAtNode@CCoreDispInfo@@AAEXHH@Z 1003d050 f   builddisp.obj
 0001:0003c1e0       ?CalcNodeInfo@CCoreDispInfo@@AAEXHH@Z 1003d1e0 f   builddisp.obj
 0001:0003c290       ?GetNodeVertIndexFromParentIndex@CCoreDispInfo@@AAEHHHH@Z 1003d290 f   builddisp.obj
 0001:0003c370       ?CalcVertIndicesAtNodes@CCoreDispInfo@@AAEXH@Z 1003d370 f   builddisp.obj
 0001:0003c450       ?GenerateLODTree@CCoreDispInfo@@AAEXXZ 1003d450 f   builddisp.obj
 0001:0003c4c0       ?CalcDispSurfCoords@CCoreDispInfo@@QAEX_NH@Z 1003d4c0 f   builddisp.obj
 0001:0003c7d0       ?GenerateDispSurfTangentSpaces@CCoreDispInfo@@AAEXXZ 1003d7d0 f   builddisp.obj
 0001:0003ca40       ?CalcNormalFromEdges@CCoreDispInfo@@AAEXHHQA_NAAVVector@@@Z 1003da40 f   builddisp.obj
 0001:0003d650       ?DoesEdgeExist@CCoreDispInfo@@AAE_NHHHH@Z 1003e650 f   builddisp.obj
 0001:0003d6e0       ?GenerateDispSurfNormals@CCoreDispInfo@@AAEXXZ 1003e6e0 f   builddisp.obj
 0001:0003d7e0       ?GenerateDispSurf@CCoreDispInfo@@AAEXXZ 1003e7e0 f   builddisp.obj
 0001:0003dd20       ?GetTriCount@CCoreDispInfo@@QAEHXZ 1003ed20 f   builddisp.obj
 0001:0003dd30       ?GetTriIndices@CCoreDispInfo@@QAEXHAAG00@Z 1003ed30 f   builddisp.obj
 0001:0003dd80       ?InitTris@CCoreDispInfo@@AAEXXZ 1003ed80 f   builddisp.obj
 0001:0003ddc0       ?CreateTris@CCoreDispInfo@@AAEXXZ 1003edc0 f   builddisp.obj
 0001:0003de40       ??0CCoreDispSurface@@QAE@XZ 1003ee40 f   builddisp.obj
 0001:0003dee0       ??0CCoreDispNode@@QAE@XZ   1003eee0 f i builddisp.obj
 0001:0003df50       ?Create@CCoreDispInfo@@QAE_NXZ 1003ef50 f   builddisp.obj
 0001:0003dfe0       ?InitDispInfo@CCoreDispInfo@@QAEXHHMPAMPAVVector@@0@Z 1003efe0 f   builddisp.obj
 0001:0003e4d0       ?InitDispInfo@CCoreDispInfo@@QAEXHHMPBVCDispVert@@PBVCDispTri@@@Z 1003f4d0 f   builddisp.obj
 0001:0003e650       ??0?$CBitVec@$0BCB@@@QAE@XZ 1003f650 f i builddisp.obj
 0001:0003e680       ??0CCoreDispInfo@@QAE@XZ   1003f680 f   builddisp.obj
 0001:0003e760       ??1bad_alloc@std@@UAE@XZ   1003f760 f i chunkfile.obj
 0001:0003e770       ??_Ebad_alloc@std@@UAEPAXI@Z 1003f770 f i chunkfile.obj
 0001:0003e770       ??_Gbad_alloc@std@@UAEPAXI@Z 1003f770 f i chunkfile.obj
 0001:0003e7a0       ?_Decref@facet@locale@std@@QAEPAV123@XZ 1003f7a0 f i chunkfile.obj
 0001:0003e7e0       ??1locale@std@@QAE@XZ      1003f7e0 f i chunkfile.obj
 0001:0003e830       ??0CEvent@@QAE@XZ          1003f830 f   vmpi:threadhelpers.obj
 0001:0003e830       ??0CChunkHandlerMap@@QAE@XZ 1003f830 f   chunkfile.obj
 0001:0003e840       ??1CChunkHandlerMap@@QAE@XZ 1003f840 f   chunkfile.obj
 0001:0003e860       ?AddHandler@CChunkHandlerMap@@QAEXPBDP6A?AW4ChunkFileResult_t@@PAVCChunkFile@@PAX@Z2@Z 1003f860 f   chunkfile.obj
 0001:0003e8c0       ?GetHandler@CChunkHandlerMap@@QAEP6A?AW4ChunkFileResult_t@@PAVCChunkFile@@PAX@ZPBDPAPAX@Z 1003f8c0 f   chunkfile.obj
 0001:0003e900       ?GetErrorText@CChunkFile@@QAEPBDW4ChunkFileResult_t@@@Z 1003f900 f   chunkfile.obj
 0001:0003ea00       ?Open@CChunkFile@@QAE?AW4ChunkFileResult_t@@PBDW4ChunkFileOpenMode_t@@@Z 1003fa00 f   chunkfile.obj
 0001:0003ea60       ?PopHandlers@CChunkFile@@QAEXXZ 1003fa60 f   chunkfile.obj
 0001:0003ea80       ?PushHandlers@CChunkFile@@QAEXPAVCChunkHandlerMap@@@Z 1003fa80 f   chunkfile.obj
 0001:0003eab0       ?ReadNext@CChunkFile@@QAE?AW4ChunkFileResult_t@@PAD0HAAW4ChunkType_t@@@Z 1003fab0 f   chunkfile.obj
 0001:0003ec50       ??0bad_alloc@std@@QAE@ABV01@@Z 1003fc50 f i chunkfile.obj
 0001:0003ec70       ?HandleChunk@CChunkFile@@QAE?AW4ChunkFileResult_t@@PBD@Z 1003fc70 f   chunkfile.obj
 0001:0003ed60       ?ReadChunk@CChunkFile@@QAE?AW4ChunkFileResult_t@@P6A?AW42@PBD0PAX@Z1@Z 1003fd60 f   chunkfile.obj
 0001:0003ede0       ??1?$basic_streambuf@DU?$char_traits@D@std@@@std@@UAE@XZ 1003fde0 f i chunkfile.obj
 0001:0003ee60       ?_Lock@?$basic_streambuf@DU?$char_traits@D@std@@@std@@UAEXXZ 1003fe60 f i chunkfile.obj
 0001:0003ee70       ?_Unlock@?$basic_streambuf@DU?$char_traits@D@std@@@std@@UAEXXZ 1003fe70 f i chunkfile.obj
 0001:0003ee80       ?pbackfail@?$basic_streambuf@DU?$char_traits@D@std@@@std@@MAEHH@Z 1003fe80 f i chunkfile.obj
 0001:0003ee80       ?overflow@?$basic_streambuf@DU?$char_traits@D@std@@@std@@MAEHH@Z 1003fe80 f i chunkfile.obj
 0001:0003ee90       ?showmanyc@?$basic_streambuf@DU?$char_traits@D@std@@@std@@MAE_JXZ 1003fe90 f i chunkfile.obj
 0001:0003eea0       ?underflow@?$basic_streambuf@DU?$char_traits@D@std@@@std@@MAEHXZ 1003fea0 f i chunkfile.obj
 0001:0003eeb0       ?setbuf@?$basic_streambuf@DU?$char_traits@D@std@@@std@@MAEPAV12@PAD_J@Z 1003feb0 f i chunkfile.obj
 0001:0003eec0       ?imbue@?$basic_streambuf@DU?$char_traits@D@std@@@std@@MAEXABVlocale@2@@Z 1003fec0 f i chunkfile.obj
 0001:0003eec0       ?Init@CDistributor_DefaultWorker@@UAEXPAVCDSInfo@@@Z 1003fec0 f i vmpi:vmpi_distribute_work_default.obj
 0001:0003eed0       ?_Gnavail@?$basic_streambuf@DU?$char_traits@D@std@@@std@@IBE_JXZ 1003fed0 f i chunkfile.obj
 0001:0003eef0       ?_Pnavail@?$basic_streambuf@DU?$char_traits@D@std@@@std@@IBE_JXZ 1003fef0 f i chunkfile.obj
 0001:0003ef10       ?uflow@?$basic_streambuf@DU?$char_traits@D@std@@@std@@MAEHXZ 1003ff10 f i chunkfile.obj
 0001:0003ef40       ?xsgetn@?$basic_streambuf@DU?$char_traits@D@std@@@std@@MAE_JPAD_J@Z 1003ff40 f i chunkfile.obj
 0001:0003f010       ?xsputn@?$basic_streambuf@DU?$char_traits@D@std@@@std@@MAE_JPBD_J@Z 10040010 f i chunkfile.obj
 0001:0003f0e0       ?seekoff@?$basic_streambuf@DU?$char_traits@D@std@@@std@@MAE?AV?$fpos@H@2@_JHH@Z 100400e0 f i chunkfile.obj
 0001:0003f110       ?seekpos@?$basic_streambuf@DU?$char_traits@D@std@@@std@@MAE?AV?$fpos@H@2@V32@H@Z 10040110 f i chunkfile.obj
 0001:0003f140       ??_E?$basic_istream@DU?$char_traits@D@std@@@std@@UAEPAXI@Z 10040140 f i chunkfile.obj
 0001:0003f140       ??_G?$basic_istream@DU?$char_traits@D@std@@@std@@UAEPAXI@Z 10040140 f i chunkfile.obj
 0001:0003f180       ??_E?$basic_streambuf@DU?$char_traits@D@std@@@std@@UAEPAXI@Z 10040180 f i chunkfile.obj
 0001:0003f180       ??_G?$basic_streambuf@DU?$char_traits@D@std@@@std@@UAEPAXI@Z 10040180 f i chunkfile.obj
 0001:0003f1b0       ?_Reset_back@?$basic_filebuf@DU?$char_traits@D@std@@@std@@AAEXXZ 100401b0 f i chunkfile.obj
 0001:0003f1e0       ?_Chassign@?$basic_string@DU?$char_traits@D@std@@V?$allocator@D@2@@std@@QAEXIID@Z 100401e0 f i chunkfile.obj
 0001:0003f220       ?_Init@?$basic_streambuf@DU?$char_traits@D@std@@@std@@IAEXXZ 10040220 f i chunkfile.obj
 0001:0003f280       ?allocate@?$allocator@D@std@@QAEPADI@Z 10040280 f i chunkfile.obj
 0001:0003f2d0       ?_Init@?$basic_filebuf@DU?$char_traits@D@std@@@std@@IAEXPAU_iobuf@@W4_Initfl@12@@Z 100402d0 f i chunkfile.obj
 0001:0003f370       ?_Copy@?$basic_string@DU?$char_traits@D@std@@V?$allocator@D@2@@std@@QAEXII@Z 10040370 f i chunkfile.obj
 0001:0003f4b0       ??1?$basic_string@DU?$char_traits@D@std@@V?$allocator@D@2@@std@@QAE@XZ 100404b0 f i chunkfile.obj
 0001:0003f4e0       ?_Grow@?$basic_string@DU?$char_traits@D@std@@V?$allocator@D@2@@std@@QAE_NI_N@Z 100404e0 f i chunkfile.obj
 0001:0003f590       ?append@?$basic_string@DU?$char_traits@D@std@@V?$allocator@D@2@@std@@QAEAAV12@ID@Z 10040590 f i chunkfile.obj
 0001:0003f640       ?_Endwrite@?$basic_filebuf@DU?$char_traits@D@std@@@std@@IAE_NXZ 10040640 f i chunkfile.obj
 0001:0003f770       ?close@?$basic_filebuf@DU?$char_traits@D@std@@@std@@QAEPAV12@XZ 10040770 f i chunkfile.obj
 0001:0003f800       ?_Incref@facet@locale@std@@QAEXXZ 10040800 f i chunkfile.obj
 0001:0003f830       ??1facet@locale@std@@UAE@XZ 10040830 f i chunkfile.obj
 0001:0003f840       ??_G?$codecvt@DDH@std@@MAEPAXI@Z 10040840 f i chunkfile.obj
 0001:0003f840       ??_Gfacet@locale@std@@UAEPAXI@Z 10040840 f i chunkfile.obj
 0001:0003f840       ??_Efacet@locale@std@@UAEPAXI@Z 10040840 f i chunkfile.obj
 0001:0003f840       ??_E?$codecvt@DDH@std@@MAEPAXI@Z 10040840 f i chunkfile.obj
 0001:0003f870       ?do_always_noconv@codecvt_base@std@@MBE_NXZ 10040870 f i chunkfile.obj
 0001:0003f880       ??$_Fputc@D@std@@YA_NDPAU_iobuf@@@Z 10040880 f i chunkfile.obj
 0001:0003f8a0       ?_Lock@?$basic_filebuf@DU?$char_traits@D@std@@@std@@UAEXXZ 100408a0 f i chunkfile.obj
 0001:0003f8b0       ?_Unlock@?$basic_filebuf@DU?$char_traits@D@std@@@std@@UAEXXZ 100408b0 f i chunkfile.obj
 0001:0003f8c0       ?sync@?$basic_filebuf@DU?$char_traits@D@std@@@std@@MAEHXZ 100408c0 f i chunkfile.obj
 0001:0003f8f0       ??1?$_Yarn@D@std@@QAE@XZ   100408f0 f i chunkfile.obj
 0001:0003f910       ?underflow@?$basic_filebuf@DU?$char_traits@D@std@@@std@@MAEHXZ 10040910 f i chunkfile.obj
 0001:0003f960       ?_Set_back@?$basic_filebuf@DU?$char_traits@D@std@@@std@@AAEXXZ 10040960 f i chunkfile.obj
 0001:0003f9a0       ?do_in@?$codecvt@DDH@std@@MBEHAAHPBD1AAPBDPAD3AAPAD@Z 100409a0 f i chunkfile.obj
 0001:0003f9a0       ?do_out@?$codecvt@DDH@std@@MBEHAAHPBD1AAPBDPAD3AAPAD@Z 100409a0 f i chunkfile.obj
 0001:0003f9c0       ?do_unshift@?$codecvt@DDH@std@@MBEHAAHPAD1AAPAD@Z 100409c0 f i chunkfile.obj
 0001:0003f9e0       ?do_length@?$codecvt@DDH@std@@MBEHABHPBD1I@Z 100409e0 f i chunkfile.obj
 0001:0003fa00       ??0_Locinfo@std@@QAE@PBD@Z 10040a00 f i chunkfile.obj
 0001:0003fa70       ??0runtime_error@std@@QAE@ABV01@@Z 10040a70 f i chunkfile.obj
 0001:0003fa90       ??1_Locinfo@std@@QAE@XZ    10040a90 f i chunkfile.obj
 0001:0003fb00       ?pbackfail@?$basic_filebuf@DU?$char_traits@D@std@@@std@@MAEHH@Z 10040b00 f i chunkfile.obj
 0001:0003fb90       ?erase@?$basic_string@DU?$char_traits@D@std@@V?$allocator@D@2@@std@@QAEAAV12@II@Z 10040b90 f i chunkfile.obj
 0001:0003fc20       ?_Getcat@?$codecvt@DDH@std@@SAIPAPBVfacet@locale@2@PBV42@@Z 10040c20 f i chunkfile.obj
 0001:0003fca0       ?setbuf@?$basic_filebuf@DU?$char_traits@D@std@@@std@@MAEPAV?$basic_streambuf@DU?$char_traits@D@std@@@2@PAD_J@Z 10040ca0 f i chunkfile.obj
 0001:0003fd00       ??$use_facet@V?$codecvt@DDH@std@@@std@@YAABV?$codecvt@DDH@0@ABVlocale@0@@Z 10040d00 f i chunkfile.obj
 0001:0003fe00       ?imbue@?$basic_filebuf@DU?$char_traits@D@std@@@std@@MAEXABVlocale@2@@Z 10040e00 f i chunkfile.obj
 0001:0003fe40       ?uflow@?$basic_filebuf@DU?$char_traits@D@std@@@std@@MAEHXZ 10040e40 f i chunkfile.obj
 0001:00040010       ?overflow@?$basic_filebuf@DU?$char_traits@D@std@@@std@@MAEHH@Z 10041010 f i chunkfile.obj
 0001:000401f0       ?seekoff@?$basic_filebuf@DU?$char_traits@D@std@@@std@@MAE?AV?$fpos@H@2@_JHH@Z 100411f0 f i chunkfile.obj
 0001:000402e0       ?seekpos@?$basic_filebuf@DU?$char_traits@D@std@@@std@@MAE?AV?$fpos@H@2@V32@H@Z 100412e0 f i chunkfile.obj
 0001:000403c0       ??_G?$basic_filebuf@DU?$char_traits@D@std@@@std@@UAEPAXI@Z 100413c0 f i chunkfile.obj
 0001:000403c0       ??_E?$basic_filebuf@DU?$char_traits@D@std@@@std@@UAEPAXI@Z 100413c0 f i chunkfile.obj
 0001:00040420       ??1?$basic_ifstream@DU?$char_traits@D@std@@@std@@UAE@XZ 10041420 f i chunkfile.obj
 0001:00040480       ??_E?$basic_ifstream@DU?$char_traits@D@std@@@std@@UAEPAXI@Z 10041480 f i chunkfile.obj
 0001:00040480       ??_G?$basic_ifstream@DU?$char_traits@D@std@@@std@@UAEPAXI@Z 10041480 f i chunkfile.obj
 0001:000404c0       ??0CChunkFile@@QAE@XZ      100414c0 f   chunkfile.obj
 0001:000404f0       ??1CChunkFile@@QAE@XZ      100414f0 f   chunkfile.obj
 0001:00040530       ?CmdLib_FGets@@YAPADPADHPAX@Z 10041530 f   cmdlib.obj
 0001:00040610       ?SetConsoleTextColor@@YAGHHHH@Z 10041610 f   cmdlib.obj
 0001:000406a0       ?CmdLib_NewHandler@@YAHI@Z 100416a0 f   cmdlib.obj
 0001:000406c0       ?InstallAllocationFunctions@@YAXXZ 100416c0 f   cmdlib.obj
 0001:000406e0       ?CmdLib_Exit@@YAXH@Z       100416e0 f   cmdlib.obj
 0001:000406f0       ?qprintf@@YAXPADZZ         100416f0 f   cmdlib.obj
 0001:00040740       ?ExpandPath@@YAPADPAD@Z    10041740 f   cmdlib.obj
 0001:00040780       ?copystring@@YAPADPBD@Z    10041780 f   cmdlib.obj
 0001:000407c0       ?GetHourMinuteSecondsString@@YAXHPADH@Z 100417c0 f   cmdlib.obj
 0001:000408d0       ?CmdLib_InitFileSystem@@YAXPBDH@Z 100418d0 f   cmdlib.obj
 0001:00040900       ?SafeOpenWrite@@YAPAXPBD@Z 10041900 f   cmdlib.obj
 0001:00040940       ?CmdLib_HasBasePath@@YA_NPBDAAH@Z 10041940 f   cmdlib.obj
 0001:00040a00       ?SafeOpenRead@@YAPAXPBD@Z  10041a00 f   cmdlib.obj
 0001:00040b20       ?SafeWrite@@YAXPAX0H@Z     10041b20 f   cmdlib.obj
 0001:00040b60       ?LoadFile@@YAHPBDPAPAX@Z   10041b60 f   cmdlib.obj
 0001:00040bf0       ?Grow@?$CUtlMemory@U?$UtlLinkedListElem_t@PAVCZip@@G@@G@@QAEXH@Z 10041bf0 f i zip_utils.obj
 0001:00040bf0       ?Grow@?$CUtlMemory@U?$UtlLinkedListElem_t@PAVCLightFace@@G@@G@@QAEXH@Z 10041bf0 f i incremental.obj
 0001:00040bf0       ?Grow@?$CUtlMemory@U?$UtlLinkedListElem_t@PAVCIncLight@@G@@G@@QAEXH@Z 10041bf0 f i incremental.obj
 0001:00040bf0       ?Grow@?$CUtlMemory@U?$UtlLinkedListElem_t@P6AXXZG@@G@@QAEXH@Z 10041bf0 f i cmdlib.obj
 0001:00040bf0       ?Grow@?$CUtlMemory@U?$UtlLinkedListElem_t@P6AXPBD@ZG@@G@@QAEXH@Z 10041bf0 f i cmdlib.obj
 0001:00040cb0       ?RemoveAll@?$CUtlLinkedList@P6AXXZG$0A@GV?$CUtlMemory@U?$UtlLinkedListElem_t@P6AXXZG@@G@@@@QAEXXZ 10041cb0 f i cmdlib.obj
 0001:00040cb0       ?RemoveAll@?$CUtlLinkedList@PAVCZip@@G$0A@GV?$CUtlMemory@U?$UtlLinkedListElem_t@PAVCZip@@G@@G@@@@QAEXXZ 10041cb0 f i zip_utils.obj
 0001:00040cb0       ?RemoveAll@?$CUtlLinkedList@P6AXPBD@ZG$0A@GV?$CUtlMemory@U?$UtlLinkedListElem_t@P6AXPBD@ZG@@G@@@@QAEXXZ 10041cb0 f i cmdlib.obj
 0001:00040cb0       ?RemoveAll@?$CUtlLinkedList@PAVCLightFace@@G$0A@GV?$CUtlMemory@U?$UtlLinkedListElem_t@PAVCLightFace@@G@@G@@@@QAEXXZ 10041cb0 f i incremental.obj
 0001:00040cb0       ?RemoveAll@?$CUtlLinkedList@PAVCIncLight@@G$0A@GV?$CUtlMemory@U?$UtlLinkedListElem_t@PAVCIncLight@@G@@G@@@@QAEXXZ 10041cb0 f i incremental.obj
 0001:00040d20       ?CmdLib_Cleanup@@YAXXZ     10041d20 f   cmdlib.obj
 0001:00040d90       ?Unlink@?$CUtlLinkedList@PAVCIncLight@@G$0A@GV?$CUtlMemory@U?$UtlLinkedListElem_t@PAVCIncLight@@G@@G@@@@QAEXG@Z 10041d90 f i incremental.obj
 0001:00040d90       ?Unlink@?$CUtlLinkedList@PAVCZip@@G$0A@GV?$CUtlMemory@U?$UtlLinkedListElem_t@PAVCZip@@G@@G@@@@QAEXG@Z 10041d90 f i zip_utils.obj
 0001:00040d90       ?Unlink@?$CUtlLinkedList@P6AXPBD@ZG$0A@GV?$CUtlMemory@U?$UtlLinkedListElem_t@P6AXPBD@ZG@@G@@@@QAEXG@Z 10041d90 f i cmdlib.obj
 0001:00040d90       ?Unlink@?$CUtlLinkedList@PAVCLightFace@@G$0A@GV?$CUtlMemory@U?$UtlLinkedListElem_t@PAVCLightFace@@G@@G@@@@QAEXG@Z 10041d90 f i incremental.obj
 0001:00040d90       ?Unlink@?$CUtlLinkedList@P6AXXZG$0A@GV?$CUtlMemory@U?$UtlLinkedListElem_t@P6AXXZG@@G@@@@QAEXG@Z 10041d90 f i cmdlib.obj
 0001:00040e20       ?LinkBefore@?$CUtlLinkedList@P6AXXZG$0A@GV?$CUtlMemory@U?$UtlLinkedListElem_t@P6AXXZG@@G@@@@QAEXGG@Z 10041e20 f i cmdlib.obj
 0001:00040e20       ?LinkBefore@?$CUtlLinkedList@PAVCZip@@G$0A@GV?$CUtlMemory@U?$UtlLinkedListElem_t@PAVCZip@@G@@G@@@@QAEXGG@Z 10041e20 f i zip_utils.obj
 0001:00040e20       ?LinkBefore@?$CUtlLinkedList@P6AXPBD@ZG$0A@GV?$CUtlMemory@U?$UtlLinkedListElem_t@P6AXPBD@ZG@@G@@@@QAEXGG@Z 10041e20 f i cmdlib.obj
 0001:00040e20       ?LinkBefore@?$CUtlLinkedList@PAVCIncLight@@G$0A@GV?$CUtlMemory@U?$UtlLinkedListElem_t@PAVCIncLight@@G@@G@@@@QAEXGG@Z 10041e20 f i incremental.obj
 0001:00040ea0       ?CmdLib_FPrintf@@YAXPAXPBDZZ 10041ea0 f   cmdlib.obj
 0001:00041030       ?CmdLib_SpewOutputFunc@@YA?AW4SpewRetval_t@@W4SpewType_t@@PBD@Z 10042030 f   cmdlib.obj
 0001:00041390       ?InstallSpewFunction@@YAXXZ 10042390 f   cmdlib.obj
 0001:000413d0       ?SetSpewFunctionLogFile@@YAXPBD@Z 100423d0 f   cmdlib.obj
 0001:00041420       ?InstallExtraSpewHook@@YAXP6AXPBD@Z@Z 10042420 f   cmdlib.obj
 0001:00041460       ?CmdLib_AtCleanup@@YAXP6AXXZ@Z 10042460 f   cmdlib.obj
 0001:000414a0       ?Grow@?$CUtlMemoryAligned@VCDispCollNode@@$0BA@@@QAEXH@Z 100424a0 f i dispcoll_common.obj
 0001:00041530       ?Grow@?$CUtlMemoryAligned@VCDispCollLeaf@@$0BA@@@QAEXH@Z 10042530 f i dispcoll_common.obj
 0001:000415c0       ?Grow@?$CUtlMemoryAligned@VVector@@$0BA@@@QAEXH@Z 100425c0 f i dispcoll_common.obj
 0001:00041650       ?Grow@?$CUtlMemoryAligned@VCDispCollTri@@$0BA@@@QAEXH@Z 10042650 f i dispcoll_common.obj
 0001:000416e0       ?Grow@?$CUtlMemory@V?$CUtlVector@UPatchSampleData_t@@V?$CUtlMemory@UPatchSampleData_t@@H@@@@H@@QAEXH@Z 100426e0 f i samplehash.obj
 0001:000416e0       ?Grow@?$CUtlMemory@V?$CUtlVector@Uambientsample_t@@V?$CUtlMemory@Uambientsample_t@@H@@@@H@@QAEXH@Z 100426e0 f i leaf_ambient_lighting.obj
 0001:000416e0       ?Grow@?$CUtlMemory@Udplane_t@@H@@QAEXH@Z 100426e0 f i leaf_ambient_lighting.obj
 0001:000416e0       ?Grow@?$CUtlMemory@U?$UtlRBTreeNode_t@MH@@H@@QAEXH@Z 100426e0 f i radial.obj
 0001:000416e0       ?Grow@?$CUtlMemory@UClusterDispList_t@@H@@QAEXH@Z 100426e0 f i vismat.obj
 0001:000416e0       ?Grow@?$CUtlMemory@VCDispVert@@H@@QAEXH@Z 100426e0 f i bsplib.obj
 0001:000416e0       ?Grow@?$CUtlMemory@V?$CUtlVector@USampleData_t@@V?$CUtlMemory@USampleData_t@@H@@@@H@@QAEXH@Z 100426e0 f i samplehash.obj
 0001:000416e0       ?Grow@?$CUtlMemory@V?$CUtlVector@UDispCollPlaneIndex_t@@V?$CUtlMemory@UDispCollPlaneIndex_t@@H@@@@H@@QAEXH@Z 100426e0 f i dispcoll_common.obj
 0001:000416e0       ?Grow@?$CUtlMemory@V?$CUtlVector@PAVCLightFace@@V?$CUtlMemory@PAVCLightFace@@H@@@@H@@QAEXH@Z 100426e0 f i incremental.obj
 0001:00041780       ?CalcPlane@CDispCollTri@@QAEXAAV?$CDispVector@VVector@@@@@Z 10042780 f   dispcoll_common.obj
 0001:000418b0       ?FindMinMax@CDispCollTri@@QAEXAAV?$CDispVector@VVector@@@@@Z 100428b0 f   dispcoll_common.obj
 0001:00041b00       ?AABBTree_GenerateBoxes_r@CDispCollTree@@IAEXHPAVVector@@0@Z 10042b00 f   dispcoll_common.obj
 0001:00041d10       ?AABBTree_TreeTrisRayBarycentricTest@CDispCollTree@@IAEXABURay_t@@ABVVector@@HAAURayDispOutput_t@@PAPAVCDispCollTri@@@Z 10042d10 f   dispcoll_common.obj
 0001:00042140       ?AABBTree_TreeTrisRayTest@CDispCollTree@@IAEXABURay_t@@ABVVector@@HPAVCBaseTrace@@_NPAPAVCDispCollTri@@@Z 10043140 f   dispcoll_common.obj
 0001:000424e0       ?InsertMultipleBefore@?$CUtlVector@VVector@@V?$CUtlMemoryAligned@VVector@@$0BA@@@@@QAEHHHPBVVector@@@Z 100434e0 f i dispcoll_common.obj
 0001:00042630       ?AABBTree_Ray@CDispCollTree@@QAE_NABURay_t@@ABVVector@@AAURayDispOutput_t@@@Z 10043630 f   dispcoll_common.obj
 0001:000426b0       ?AABBTree_Ray@CDispCollTree@@QAE_NABURay_t@@ABVVector@@PAVCBaseTrace@@_N@Z 100436b0 f   dispcoll_common.obj
 0001:00042740       ?InsertMultipleBefore@?$CUtlVector@VCDispCollNode@@V?$CUtlMemoryAligned@VCDispCollNode@@$0BA@@@@@QAEHHHPBVCDispCollNode@@@Z 10043740 f i dispcoll_common.obj
 0001:00042810       ?InsertMultipleBefore@?$CUtlVector@VCDispCollTri@@V?$CUtlMemoryAligned@VCDispCollTri@@$0BA@@@@@QAEHHHPBVCDispCollTri@@@Z 10043810 f i dispcoll_common.obj
 0001:00042c50       ?AABBTree_Ray@CDispCollTree@@QAE_NABURay_t@@AAURayDispOutput_t@@@Z 10043c50 f   dispcoll_common.obj
 0001:00042cb0       ?Purge@?$CUtlHash@UDispCollPlaneIndex_t@@VCPlaneIndexHashFuncs@@V2@@@QAEXXZ 10043cb0 f i dispcoll_common.obj
 0001:00042d10       ?AABBTree_CreateLeafs@CDispCollTree@@IAEXXZ 10043d10 f   dispcoll_common.obj
 0001:00042e60       ??0CDispCollTree@@QAE@XZ   10043e60 f   dispcoll_common.obj
 0001:00043030       ?AABBTree_CopyDispData@CDispCollTree@@IAEXPAVCCoreDispInfo@@@Z 10044030 f   dispcoll_common.obj
 0001:00043400       ?AABBTree_Create@CDispCollTree@@IAE_NPAVCCoreDispInfo@@@Z 10044400 f   dispcoll_common.obj
 0001:00043480       ?Create@CDispCollTree@@UAE_NPAVCCoreDispInfo@@@Z 10044480 f   dispcoll_common.obj
 0001:00043490       ?LoadEntityKeyCallback@@YA?AW4ChunkFileResult_t@@PBD0PAULoadEntity_t@@@Z 10044490 f   map_shared.obj
 0001:00043640       ?LoadEntsFromMapFile@@YA_NPBD@Z 10044640 f   map_shared.obj
 0001:00043710       ?AllocWinding@@YAPAUwinding_t@@H@Z 10044710 f   polylib.obj
 0001:000437a0       ?FreeWinding@@YAXPAUwinding_t@@@Z 100447a0 f   polylib.obj
 0001:000437f0       ?RemoveColinearPoints@@YAXPAUwinding_t@@@Z 100447f0 f   polylib.obj
 0001:00043930       ?WindingArea@@YAMPAUwinding_t@@@Z 10044930 f   polylib.obj
 0001:000439d0       ?WindingBounds@@YAXPAUwinding_t@@AAVVector@@1@Z 100449d0 f   polylib.obj
 0001:00043a80       ?WindingCenter@@YAXPAUwinding_t@@AAVVector@@@Z 10044a80 f   polylib.obj
 0001:00043b00       ?WindingAreaAndBalancePoint@@YAMPAUwinding_t@@AAVVector@@@Z 10044b00 f   polylib.obj
 0001:00043c80       ?BaseWindingForPlane@@YAPAUwinding_t@@ABVVector@@M@Z 10044c80 f   polylib.obj
 0001:00043ed0       ?CopyWinding@@YAPAUwinding_t@@PAU1@@Z 10044ed0 f   polylib.obj
 0001:00043f10       ?ClipWindingEpsilon@@YAXPAUwinding_t@@ABVVector@@MMPAPAU1@2@Z 10044f10 f   polylib.obj
 0001:00044510       ?ChopWindingInPlace@@YAXPAPAUwinding_t@@ABVVector@@MM@Z 10045510 f   polylib.obj
 0001:000447f0       ?PointInWinding@@YA_NABVVector@@PAUwinding_t@@@Z 100457f0 f   polylib.obj
 0001:00044930       ?AddScriptToStack@@YAXPADW4ScriptPathMode_t@@@Z 10045930 f   scriplib.obj
 0001:00044a10       ?AddMacroToStack@@YA_NPAD@Z 10045a10 f   scriplib.obj
 0001:00044bd0       ?ExpandMacroToken@@YA_NAAPAD@Z 10045bd0 f   scriplib.obj
 0001:00044d00       ?ParseFromMemory@@YAXPADH@Z 10045d00 f   scriplib.obj
 0001:00044d70       ?EndOfScript@@YAHH@Z       10045d70 f   scriplib.obj
 0001:00044e30       ?TokenAvailable@@YAHXZ     10045e30 f   scriplib.obj
 0001:00044e90       ?DoesFileExist@CScriptLib@@UAE_NPBD@Z 10045e90 f   scriplib.obj
 0001:00044eb0       ?ReadFileToBuffer@CScriptLib@@UAE_NPBDAAVCUtlBuffer@@_N2@Z 10045eb0 f   scriplib.obj
 0001:00044f30       ?WriteBufferToFile@CScriptLib@@UAE_NPBDAAVCUtlBuffer@@W4DiskWriteMode_t@@@Z 10045f30 f   scriplib.obj
 0001:00044ff0       ?CompareFileTime@CScriptLib@@UAEHPBD0@Z 10045ff0 f   scriplib.obj
 0001:00045050       ?MakeTemporaryFilename@CScriptLib@@UAEPADPBDPADH@Z 10046050 f   scriplib.obj
 0001:000450c0       ?DefineMacro@@YAXPAD@Z     100460c0 f   scriplib.obj
 0001:00045260       ?ExpandVariableToken@@YA_NAAPAD@Z 10046260 f   scriplib.obj
 0001:00045390       ?InsertBefore@?$CUtlVector@Uvariable_t@@V?$CUtlMemory@Uvariable_t@@H@@@@QAEHHABUvariable_t@@@Z 10046390 f i scriplib.obj
 0001:00045400       ?InsertBefore@?$CUtlVector@VCUtlString@@V?$CUtlMemory@VCUtlString@@H@@@@QAEHH@Z 10046400 f i scriplib.obj
 0001:00045470       ?DefineVariable@@YAXPAD@Z  10046470 f   scriplib.obj
 0001:00045530       ?GetToken@@YAHH@Z          10046530 f   scriplib.obj
 0001:00045930       ?InsertBefore@?$CUtlVector@UfileList_t@@V?$CUtlMemory@UfileList_t@@H@@@@QAEHH@Z 10046930 f i scriplib.obj
 0001:000459a0       ?InsertMultipleBefore@?$CUtlVector@UfileList_t@@V?$CUtlMemory@UfileList_t@@H@@@@QAEHHHPBUfileList_t@@@Z 100469a0 f i scriplib.obj
 0001:00045aa0       ?RemoveAll@?$CUtlVector@UfileList_t@@V?$CUtlMemory@UfileList_t@@H@@@@QAEXXZ 10046aa0 f i scriplib.obj
 0001:00045b10       ?GetFileList@CScriptLib@@AAEHPBD0AAV?$CUtlVector@UfileList_t@@V?$CUtlMemory@UfileList_t@@H@@@@@Z 10046b10 f   scriplib.obj
 0001:00045d70       ??1?$CUtlVector@UfileList_t@@V?$CUtlMemory@UfileList_t@@H@@@@QAE@XZ 10046d70 f i scriplib.obj
 0001:00045dd0       ?DeleteTemporaryFiles@CScriptLib@@UAEXPBD@Z 10046dd0 f   scriplib.obj
 0001:00045f00       ?RecurseFileTree_r@CScriptLib@@AAEXPBDHAAV?$CUtlVector@VCUtlString@@V?$CUtlMemory@VCUtlString@@H@@@@@Z 10046f00 f   scriplib.obj
 0001:00046020       ?FindFiles@CScriptLib@@UAEHPAD_NAAV?$CUtlVector@UfileList_t@@V?$CUtlMemory@UfileList_t@@H@@@@@Z 10047020 f   scriplib.obj
 0001:000462f0       ?SetLowPriority@@YAXXZ     100472f0 f   threads.obj
 0001:00046300       ?ThreadSetDefault@@YAXXZ   10047300 f   threads.obj
 0001:00046350       ?ThreadLock@@YAXXZ         10047350 f   threads.obj
 0001:00046390       ?ThreadUnlock@@YAXXZ       10047390 f   threads.obj
 0001:000463d0       ?InternalRunThreadsFn@@YGKPAX@Z 100473d0 f   threads.obj
 0001:000463f0       ?RunThreads_Start@@YAXP6AXHPAX@Z0W4ERunThreadsPriority@@@Z 100473f0 f   threads.obj
 0001:00046480       ?RunThreads_End@@YAXXZ     10047480 f   threads.obj
 0001:000464e0       ?RunThreadsOn@@YAXHHP6AXHPAX@Z0@Z 100474e0 f   threads.obj
 0001:00046560       ?GetThreadWork@@YAHXZ      10047560 f   threads.obj
 0001:00046640       ?ThreadWorkerFunction@@YAXHPAX@Z 10047640 f   threads.obj
 0001:00046740       ?RunThreadsOnIndividual@@YAXHHP6AXHH@Z@Z 10047740 f   threads.obj
 0001:00046800       ?EnableFullMinidumps@@YAX_N@Z 10047800 f   tools_minidump.obj
 0001:00046810       ?SetupDefaultToolsMinidumpHandler@@YAXXZ 10047810 f   tools_minidump.obj
 0001:00046820       ?SetupToolsMinidumpHandler@@YAXP6AXKPAX@Z@Z 10047820 f   tools_minidump.obj
 0001:000468b0       ?IntersectRayWithTriangle@@YAMABURay_t@@ABVVector@@11_N@Z 100478b0 f   collisionutils.obj
 0001:00046b00       ?ComputeIntersectionBarycentricCoordinates@@YA_NABURay_t@@ABVVector@@11AAM2PAM@Z 10047b00 f   collisionutils.obj
 0001:00046c80       ?IsBoxIntersectingRay@@YI_NABVVector@@000M@Z 10047c80 f   collisionutils.obj
 0001:00046de0       ?IntersectRayWithRay@@YA_NABURay_t@@0AAM1@Z 10047de0 f   collisionutils.obj
 0001:00046fa0       ?GetNonMajorAxes@@YAXABVVector@@AAVVector2D@@@Z 10047fa0 f   collisionutils.obj
 0001:00047010       ?ResolveQuadratic@@YAXNNVVector@@00000HAAN1@Z 10048010 f   collisionutils.obj
 0001:00047200       ?ComputePointFromBarycentric@@YAXABVVector2D@@00MMAAV1@@Z 10048200 f   collisionutils.obj
 0001:00047250       ?QuadWithParallelEdges@@YA?AW4QuadBarycentricRetval_t@@ABVVector@@0M0M0AAVVector2D@@@Z 10048250 f   collisionutils.obj
 0001:000473d0       ?PointInQuadToBarycentric@@YA?AW4QuadBarycentricRetval_t@@ABVVector@@0000AAVVector2D@@@Z 100483d0 f   collisionutils.obj
 0001:00047920       ??4BGRA5551_t@@QAEAAU0@ABUBGRA8888_t@@@Z 10048920 f i bitmap:colorconversion.obj
 0001:000479a0       ??4BGRA4444_t@@QAEAAU0@ABUBGRA8888_t@@@Z 100489a0 f i bitmap:colorconversion.obj
 0001:00047a20       ?SizeInBytes@ImageLoader@@YAHW4ImageFormat@@@Z 10048a20 f i bitmap:colorconversion.obj
 0001:00047a40       ?ConvertFloatTo16bits@float16@@KAGM@Z 10048a40 f i bitmap:colorconversion.obj
 0001:00047b80       ?Convert16bitFloatTo32bits@float16@@KAMG@Z 10048b80 f i bitmap:colorconversion.obj
 0001:00047c50       ?PixRGBAF_to_8@@YA?AUPixRGBA8@@ABUPixRGBAF@@@Z 10048c50 f i bitmap:colorconversion.obj
 0001:00047fc0       ?ConvertToATIxN@ImageLoader@@YA_NPBEW4ImageFormat@@PAE1HHHH@Z 10048fc0 f   bitmap:colorconversion.obj
 0001:000480d0       ?ConvertToDXT@ImageLoader@@YA_NPBEW4ImageFormat@@PAE1HHHH@Z 100490d0 f   bitmap:colorconversion.obj
 0001:000482b0       ?ConvertImageFormat_RGBA16161616_To_RGB323232F@ImageLoader@@YAXPAGPAMHH@Z 100492b0 f   bitmap:colorconversion.obj
 0001:00048410       ?ConvertImageFormat_RGB323232F_To_RGBA16161616@ImageLoader@@YAXPAMPAGHH@Z 10049410 f   bitmap:colorconversion.obj
 0001:00048520       ?ConvertImageFormat_RGB323232F_To_RGBA8888@ImageLoader@@YAXPAMPAEHH@Z 10049520 f   bitmap:colorconversion.obj
 0001:000487e0       ?ConvertImageFormat_RGB323232F_To_BGRA8888@ImageLoader@@YAXPAMPAEHH@Z 100497e0 f   bitmap:colorconversion.obj
 0001:00048aa0       ?ConvertNormalMapRGBA8888ToDUDVMapUVWQ8888@ImageLoader@@YAXPBEHHPAE@Z 10049aa0 f   bitmap:colorconversion.obj
 0001:00048b00       ?ConvertNormalMapRGBA8888ToDUDVMapUVLX8888@ImageLoader@@YAXPBEHHPAE@Z 10049b00 f   bitmap:colorconversion.obj
 0001:00048b50       ?ConvertNormalMapRGBA8888ToDUDVMapUV88@ImageLoader@@YAXPBEHHPAE@Z 10049b50 f   bitmap:colorconversion.obj
 0001:00048b90       ?NormalizeNormalMapRGBA8888@ImageLoader@@YAXPAEH@Z 10049b90 f   bitmap:colorconversion.obj
 0001:00048cc0       ?RotateImageLeft@ImageLoader@@YA_NPBEPAEHW4ImageFormat@@@Z 10049cc0 f   bitmap:colorconversion.obj
 0001:00048e70       ?RotateImage180@ImageLoader@@YA_NPBEPAEHW4ImageFormat@@@Z 10049e70 f   bitmap:colorconversion.obj
 0001:00048eb0       ?FlipImageVertically@ImageLoader@@YA_NPAX0HHW4ImageFormat@@H@Z 10049eb0 f   bitmap:colorconversion.obj
 0001:00048f90       ?FlipImageHorizontally@ImageLoader@@YA_NPAX0HHW4ImageFormat@@H@Z 10049f90 f   bitmap:colorconversion.obj
 0001:0004b240       ?ConvertImageFormat_RGBA16161616F_To_RGB323232F@ImageLoader@@YAXPAVfloat16@@PAMHH@Z 1004c240 f   bitmap:colorconversion.obj
 0001:0004b2a0       ?ConvertImageFormat_RGBA16161616F_To_RGBA323232F@ImageLoader@@YAXPAVfloat16@@PAMHHI@Z 1004c2a0 f   bitmap:colorconversion.obj
 0001:0004b340       ?ConvertImageFormat_RGB323232F_To_RGBA16161616F@ImageLoader@@YAXPAMPAVfloat16@@HH@Z 1004c340 f   bitmap:colorconversion.obj
 0001:0004b3a0       ?ConvertImageFormat_RGBA16161616_To_RGBA16161616F@ImageLoader@@YAXPAGPAMHH@Z 1004c3a0 f   bitmap:colorconversion.obj
 0001:0004b460       ?ConvertImageFormat_RGBA16161616F_To_RGBA16161616@ImageLoader@@YAXPAVfloat16@@PAGHH@Z 1004c460 f   bitmap:colorconversion.obj
 0001:0004c950       ?ConvertImageFormat@ImageLoader@@YA_NPBEW4ImageFormat@@PAE1HHHH@Z 1004d950 f   bitmap:colorconversion.obj
 0001:0004d060       ?ImageFormatInfo@ImageLoader@@YAABUImageFormatInfo_t@@W4ImageFormat@@@Z 1004e060 f   bitmap:imageformat.obj
 0001:0004d080       ?GetNumMipMapLevels@ImageLoader@@YAHHHH@Z 1004e080 f   bitmap:imageformat.obj
 0001:0004d0f0       ?GetMemRequired@ImageLoader@@YAHHHHW4ImageFormat@@_N@Z 1004e0f0 f   bitmap:imageformat.obj
 0001:0004d230       ?GetProcessorCount@@YAKXZ  1004e230 f   bitmap:ATI_Compress.obj
 0001:0004d250       ?GetCodecType@@YA?AW4_CodecType@@W4ATI_TC_FORMAT@@@Z 1004e250 f   bitmap:ATI_Compress.obj
 0001:0004d300       ?GetError@@YA?AW4ATI_TC_ERROR@@W4_CODECError@@@Z 1004e300 f   bitmap:ATI_Compress.obj
 0001:0004d330       ?CalcBufferSize@@YAKW4ATI_TC_FORMAT@@KKK@Z 1004e330 f   bitmap:ATI_Compress.obj
 0001:0004d3c0       ?CompressTexture@@YA?AW4ATI_TC_ERROR@@PBU_ATI_TC_Texture@@PAU2@PBU_ATI_TC_CompressOptions@@P6A_NMKK@ZKKW4_CodecType@@@Z 1004e3c0 f   bitmap:ATI_Compress.obj
 0001:0004d650       ??0CATICompressThreadData@@QAE@XZ 1004e650 f   bitmap:ATI_Compress.obj
 0001:0004d660       ??1CATICompressThreadData@@QAE@XZ 1004e660 f   bitmap:ATI_Compress.obj
 0001:0004d6b0       ?ThreadedCompressProc@@YGKPAX@Z 1004e6b0 f   bitmap:ATI_Compress.obj
 0001:0004d710       ?ThreadedCompressTexture@@YA?AW4ATI_TC_ERROR@@PBU_ATI_TC_Texture@@PAU2@PBU_ATI_TC_CompressOptions@@P6A_NMKK@ZKKW4_CodecType@@@Z 1004e710 f   bitmap:ATI_Compress.obj
 0001:0004db90       _ATI_TC_CalculateBufferSize 1004eb90 f   bitmap:ATI_Compress.obj
 0001:0004dbd0       ?CheckTexture@@YA?AW4ATI_TC_ERROR@@PBU_ATI_TC_Texture@@_N@Z 1004ebd0 f   bitmap:ATI_Compress.obj
 0001:0004dc50       _ATI_TC_ConvertTexture     1004ec50 f   bitmap:ATI_Compress.obj
 0001:0004e1a0       ?S3TCencode@@YAXPAU_DDSURFACEDESC@@PAUtagPALETTEENTRY@@0PAXIPAM@Z 1004f1a0 f   bitmap:S3_intrf.obj
 0001:0004eec0       ??0FloatBitMap_t@@QAE@HH@Z 1004fec0 f   bitmap:float_bm.obj
 0001:0004ef10       ??1FloatBitMap_t@@QAE@XZ   1004ff10 f   bitmap:float_bm.obj
 0001:0004ef20       ?CompressTo8Bits@FloatBitMap_t@@QAEXM@Z 1004ff20 f   bitmap:float_bm2.obj
 0001:0004f210       ??0CCodec@ATI_Compress@@QAE@W4_CodecType@@@Z 10050210 f   bitmap:Codec.obj
 0001:0004f230       ??1CCodec@ATI_Compress@@UAE@XZ 10050230 f   bitmap:Codec.obj
 0001:0004f240       ?SetParameter@CCodec@ATI_Compress@@UAE_NPBDK@Z 10050240 f   bitmap:Codec.obj
 0001:0004f250       ?GetParameter@CCodec@ATI_Compress@@UAE_NPBDAAK@Z 10050250 f   bitmap:Codec.obj
 0001:0004f260       ?SetParameter@CCodec@ATI_Compress@@UAE_NPBDM@Z 10050260 f   bitmap:Codec.obj
 0001:0004f270       ?GetParameter@CCodec@ATI_Compress@@UAE_NPBDAAM@Z 10050270 f   bitmap:Codec.obj
 0001:0004f280       ?SupportsSSE2@@YA_NXZ      10050280 f   bitmap:Codec.obj
 0001:0004f290       ?CreateCodec@@YAPAVCCodec@ATI_Compress@@W4_CodecType@@@Z 10050290 f   bitmap:Codec.obj
 0001:0004f5c0       ?CalcBufferSize@@YAKW4_CodecType@@KK@Z 100505c0 f   bitmap:Codec.obj
 0001:0004f630       ?DeriveB@@YAEEE@Z          10050630 f   bitmap:Codec.obj
 0001:0004f740       ?DeriveB@@YAMMM@Z          10050740 f   bitmap:Codec.obj
 0001:0004f7d0       ??_ECCodec@ATI_Compress@@UAEPAXI@Z 100507d0 f i bitmap:Codec.obj
 0001:0004f7d0       ??_GCCodec@ATI_Compress@@UAEPAXI@Z 100507d0 f i bitmap:Codec.obj
 0001:0004f7f0       ??0half@@QAE@M@Z           100507f0 f i bitmap:CodecBuffer.obj
 0001:0004f860       ?CreateCodecBuffer@@YAPAVCCodecBuffer@@W4_CodecBufferType@@KKKPAE@Z 10050860 f   bitmap:CodecBuffer.obj
 0001:0004fa90       ??0CCodecBuffer@@QAE@KKKPAE@Z 10050a90 f   bitmap:CodecBuffer.obj
 0001:0004fad0       ??1CCodecBuffer@@UAE@XZ    10050ad0 f   bitmap:CodecBuffer.obj
 0001:0004fb00       ?Copy@CCodecBuffer@@UAEXAAV1@@Z 10050b00 f   bitmap:CodecBuffer.obj
 0001:0004fbc0       ?WriteBlock@CCodecBuffer@@UAE_NKKPAKK@Z 10050bc0 f   bitmap:CodecBuffer.obj
 0001:0004fbd0       ?ReadBlock@CCodecBuffer@@UAE_NKKPAKK@Z 10050bd0 f   bitmap:CodecBuffer.obj
 0001:0004fbe0       ?ConvertBlock@CCodecBuffer@@IAEXQANQAMK@Z 10050be0 f   bitmap:CodecBuffer.obj
 0001:0004fc60       ?ConvertBlock@CCodecBuffer@@IAEXQANQAVhalf@@K@Z 10050c60 f   bitmap:CodecBuffer.obj
 0001:0004fd10       ?ConvertBlock@CCodecBuffer@@IAEXQANQAGK@Z 10050d10 f   bitmap:CodecBuffer.obj
 0001:0004fde0       ?ConvertBlock@CCodecBuffer@@IAEXQANQAEK@Z 10050de0 f   bitmap:CodecBuffer.obj
 0001:0004fea0       ?ConvertBlock@CCodecBuffer@@IAEXQAMQANK@Z 10050ea0 f   bitmap:CodecBuffer.obj
 0001:0004ff20       ?ConvertBlock@CCodecBuffer@@IAEXQAMQAVhalf@@K@Z 10050f20 f   bitmap:CodecBuffer.obj
 0001:0004ffd0       ?ConvertBlock@CCodecBuffer@@IAEXQAMQAGK@Z 10050fd0 f   bitmap:CodecBuffer.obj
 0001:000500a0       ?ConvertBlock@CCodecBuffer@@IAEXQAMQAEK@Z 100510a0 f   bitmap:CodecBuffer.obj
 0001:00050160       ?ConvertBlock@CCodecBuffer@@IAEXQAVhalf@@QANK@Z 10051160 f   bitmap:CodecBuffer.obj
 0001:000501b0       ?ConvertBlock@CCodecBuffer@@IAEXQAVhalf@@QAMK@Z 100511b0 f   bitmap:CodecBuffer.obj
 0001:00050200       ?ConvertBlock@CCodecBuffer@@IAEXQAVhalf@@QAGK@Z 10051200 f   bitmap:CodecBuffer.obj
 0001:00050260       ?ConvertBlock@CCodecBuffer@@IAEXQAVhalf@@QAEK@Z 10051260 f   bitmap:CodecBuffer.obj
 0001:000502c0       ?ConvertBlock@CCodecBuffer@@IAEXQAGQANK@Z 100512c0 f   bitmap:CodecBuffer.obj
 0001:00050330       ?ConvertBlock@CCodecBuffer@@IAEXQAGQAMK@Z 10051330 f   bitmap:CodecBuffer.obj
 0001:000503a0       ?ConvertBlock@CCodecBuffer@@IAEXQAGQAVhalf@@K@Z 100513a0 f   bitmap:CodecBuffer.obj
 0001:00050410       ?ConvertBlock@CCodecBuffer@@IAEXQAGQAEK@Z 10051410 f   bitmap:CodecBuffer.obj
 0001:00050450       ?ConvertBlock@CCodecBuffer@@IAEXQAEQANK@Z 10051450 f   bitmap:CodecBuffer.obj
 0001:000504c0       ?ConvertBlock@CCodecBuffer@@IAEXQAEQAMK@Z 100514c0 f   bitmap:CodecBuffer.obj
 0001:00050530       ?ConvertBlock@CCodecBuffer@@IAEXQAEQAVhalf@@K@Z 10051530 f   bitmap:CodecBuffer.obj
 0001:000505b0       ?ConvertBlock@CCodecBuffer@@IAEXQAEQAGK@Z 100515b0 f   bitmap:CodecBuffer.obj
 0001:00050630       ?SwizzleBlock@CCodecBuffer@@IAEXQANK@Z 10051630 f   bitmap:CodecBuffer.obj
 0001:000506d0       ?SwizzleBlock@CCodecBuffer@@IAEXQAMK@Z 100516d0 f   bitmap:CodecBuffer.obj
 0001:00050790       ?SwizzleBlock@CCodecBuffer@@IAEXQAVhalf@@K@Z 10051790 f   bitmap:CodecBuffer.obj
 0001:000507d0       ?SwizzleBlock@CCodecBuffer@@IAEXQAGK@Z 100517d0 f   bitmap:CodecBuffer.obj
 0001:00050810       ?ReadBlockR@CCodecBuffer@@UAE_NKKEEQAE@Z 10051810 f   bitmap:CodecBuffer.obj
 0001:000509d0       ?ReadBlockG@CCodecBuffer@@UAE_NKKEEQAE@Z 100519d0 f   bitmap:CodecBuffer.obj
 0001:00050b90       ?ReadBlockB@CCodecBuffer@@UAE_NKKEEQAE@Z 10051b90 f   bitmap:CodecBuffer.obj
 0001:00050d50       ?ReadBlockA@CCodecBuffer@@UAE_NKKEEQAE@Z 10051d50 f   bitmap:CodecBuffer.obj
 0001:00050f10       ?ReadBlockR@CCodecBuffer@@UAE_NKKEEQAG@Z 10051f10 f   bitmap:CodecBuffer.obj
 0001:000510f0       ?ReadBlockG@CCodecBuffer@@UAE_NKKEEQAG@Z 100520f0 f   bitmap:CodecBuffer.obj
 0001:000512d0       ?ReadBlockB@CCodecBuffer@@UAE_NKKEEQAG@Z 100522d0 f   bitmap:CodecBuffer.obj
 0001:000514b0       ?ReadBlockA@CCodecBuffer@@UAE_NKKEEQAG@Z 100524b0 f   bitmap:CodecBuffer.obj
 0001:00051690       ?ReadBlockR@CCodecBuffer@@UAE_NKKEEQAVhalf@@@Z 10052690 f   bitmap:CodecBuffer.obj
 0001:00051890       ?ReadBlockG@CCodecBuffer@@UAE_NKKEEQAVhalf@@@Z 10052890 f   bitmap:CodecBuffer.obj
 0001:00051a90       ?ReadBlockB@CCodecBuffer@@UAE_NKKEEQAVhalf@@@Z 10052a90 f   bitmap:CodecBuffer.obj
 0001:00051c90       ?ReadBlockA@CCodecBuffer@@UAE_NKKEEQAVhalf@@@Z 10052c90 f   bitmap:CodecBuffer.obj
 0001:00051e90       ?ReadBlockR@CCodecBuffer@@UAE_NKKEEQAM@Z 10052e90 f   bitmap:CodecBuffer.obj
 0001:00051ff0       ?ReadBlockG@CCodecBuffer@@UAE_NKKEEQAM@Z 10052ff0 f   bitmap:CodecBuffer.obj
 0001:00052150       ?ReadBlockB@CCodecBuffer@@UAE_NKKEEQAM@Z 10053150 f   bitmap:CodecBuffer.obj
 0001:000522b0       ?ReadBlockA@CCodecBuffer@@UAE_NKKEEQAM@Z 100532b0 f   bitmap:CodecBuffer.obj
 0001:00052410       ?ReadBlockR@CCodecBuffer@@UAE_NKKEEQAN@Z 10053410 f   bitmap:CodecBuffer.obj
 0001:00052560       ?ReadBlockG@CCodecBuffer@@UAE_NKKEEQAN@Z 10053560 f   bitmap:CodecBuffer.obj
 0001:000526b0       ?ReadBlockB@CCodecBuffer@@UAE_NKKEEQAN@Z 100536b0 f   bitmap:CodecBuffer.obj
 0001:00052800       ?ReadBlockA@CCodecBuffer@@UAE_NKKEEQAN@Z 10053800 f   bitmap:CodecBuffer.obj
 0001:00052950       ?WriteBlockR@CCodecBuffer@@UAE_NKKEEQAE@Z 10053950 f   bitmap:CodecBuffer.obj
 0001:00052ad0       ?WriteBlockG@CCodecBuffer@@UAE_NKKEEQAE@Z 10053ad0 f   bitmap:CodecBuffer.obj
 0001:00052c50       ?WriteBlockB@CCodecBuffer@@UAE_NKKEEQAE@Z 10053c50 f   bitmap:CodecBuffer.obj
 0001:00052de0       ?WriteBlockA@CCodecBuffer@@UAE_NKKEEQAE@Z 10053de0 f   bitmap:CodecBuffer.obj
 0001:00052f70       ?WriteBlockR@CCodecBuffer@@UAE_NKKEEQAG@Z 10053f70 f   bitmap:CodecBuffer.obj
 0001:00053100       ?WriteBlockG@CCodecBuffer@@UAE_NKKEEQAG@Z 10054100 f   bitmap:CodecBuffer.obj
 0001:00053290       ?WriteBlockB@CCodecBuffer@@UAE_NKKEEQAG@Z 10054290 f   bitmap:CodecBuffer.obj
 0001:00053430       ?WriteBlockA@CCodecBuffer@@UAE_NKKEEQAG@Z 10054430 f   bitmap:CodecBuffer.obj
 0001:000535d0       ?WriteBlockR@CCodecBuffer@@UAE_NKKEEQAVhalf@@@Z 100545d0 f   bitmap:CodecBuffer.obj
 0001:00053710       ?WriteBlockG@CCodecBuffer@@UAE_NKKEEQAVhalf@@@Z 10054710 f   bitmap:CodecBuffer.obj
 0001:00053850       ?WriteBlockB@CCodecBuffer@@UAE_NKKEEQAVhalf@@@Z 10054850 f   bitmap:CodecBuffer.obj
 0001:00053990       ?WriteBlockA@CCodecBuffer@@UAE_NKKEEQAVhalf@@@Z 10054990 f   bitmap:CodecBuffer.obj
 0001:00053ad0       ?WriteBlockR@CCodecBuffer@@UAE_NKKEEQAM@Z 10054ad0 f   bitmap:CodecBuffer.obj
 0001:00053cc0       ?WriteBlockG@CCodecBuffer@@UAE_NKKEEQAM@Z 10054cc0 f   bitmap:CodecBuffer.obj
 0001:00053ec0       ?WriteBlockB@CCodecBuffer@@UAE_NKKEEQAM@Z 10054ec0 f   bitmap:CodecBuffer.obj
 0001:000540c0       ?WriteBlockA@CCodecBuffer@@UAE_NKKEEQAM@Z 100550c0 f   bitmap:CodecBuffer.obj
 0001:000542c0       ?WriteBlockR@CCodecBuffer@@UAE_NKKEEQAN@Z 100552c0 f   bitmap:CodecBuffer.obj
 0001:000544a0       ?WriteBlockG@CCodecBuffer@@UAE_NKKEEQAN@Z 100554a0 f   bitmap:CodecBuffer.obj
 0001:00054680       ?WriteBlockB@CCodecBuffer@@UAE_NKKEEQAN@Z 10055680 f   bitmap:CodecBuffer.obj
 0001:00054870       ?WriteBlockA@CCodecBuffer@@UAE_NKKEEQAN@Z 10055870 f   bitmap:CodecBuffer.obj
 0001:00054a60       ?WriteBlockRGBA@CCodecBuffer@@UAE_NKKEEQAK@Z 10055a60 f   bitmap:CodecBuffer.obj
 0001:00054c50       ?ReadBlockRGBA@CCodecBuffer@@UAE_NKKEEQAK@Z 10055c50 f   bitmap:CodecBuffer.obj
 0001:00054e50       ?WriteBlockRGBA@CCodecBuffer@@UAE_NKKEEQAG@Z 10055e50 f   bitmap:CodecBuffer.obj
 0001:00054fe0       ?ReadBlockRGBA@CCodecBuffer@@UAE_NKKEEQAG@Z 10055fe0 f   bitmap:CodecBuffer.obj
 0001:000551a0       ?WriteBlockRGBA@CCodecBuffer@@UAE_NKKEEQAVhalf@@@Z 100561a0 f   bitmap:CodecBuffer.obj
 0001:00055330       ?ReadBlockRGBA@CCodecBuffer@@UAE_NKKEEQAVhalf@@@Z 10056330 f   bitmap:CodecBuffer.obj
 0001:000554f0       ?WriteBlockRGBA@CCodecBuffer@@UAE_NKKEEQAM@Z 100564f0 f   bitmap:CodecBuffer.obj
 0001:00055680       ?ReadBlockRGBA@CCodecBuffer@@UAE_NKKEEQAM@Z 10056680 f   bitmap:CodecBuffer.obj
 0001:00055840       ?WriteBlockRGBA@CCodecBuffer@@UAE_NKKEEQAN@Z 10056840 f   bitmap:CodecBuffer.obj
 0001:000559d0       ?ReadBlockRGBA@CCodecBuffer@@UAE_NKKEEQAN@Z 100569d0 f   bitmap:CodecBuffer.obj
 0001:00055b90       ??_ECCodecBuffer@@UAEPAXI@Z 10056b90 f i bitmap:CodecBuffer.obj
 0001:00055b90       ??_GCCodecBuffer@@UAEPAXI@Z 10056b90 f i bitmap:CodecBuffer.obj
 0001:00055be0       _CodeRGBBlock              10056be0 f   bitmap:S3_quant.obj
 0001:00058c10       _CodeAlphaBlock            10059c10 f   bitmap:S3_quant.obj
 0001:000599d0       ??0CCodec_ATI2N_DXT5@@QAE@XZ 1005a9d0 f   bitmap:Codec_ATI2N_DXT5.obj
 0001:000599f0       ??1CCodec_ATI2N_DXT5@@UAE@XZ 1005a9f0 f   bitmap:Codec_ATI2N_DXT5.obj
 0001:00059a00       ?Compress@CCodec_ATI2N_DXT5@@UAE?AW4_CODECError@@AAVCCodecBuffer@@0P6A_NMKK@ZKK@Z 1005aa00 f   bitmap:Codec_ATI2N_DXT5.obj
 0001:00059c90       ?Decompress@CCodec_ATI2N_DXT5@@UAE?AW4_CODECError@@AAVCCodecBuffer@@0@Z 1005ac90 f   bitmap:Codec_ATI2N_DXT5.obj
 0001:00059e80       ?GetBufferType@CCodecBuffer_RGBA16F@@UBE?BW4_CodecBufferType@@XZ 1005ae80 f i bitmap:CodecBuffer_RGBA16F.obj
 0001:00059e80       ?GetBlockHeight@CCodec_Block_4x4@@UAEKXZ 1005ae80 f i bitmap:Codec_ATI2N_DXT5.obj
 0001:00059e90       ??_GCCodec_ATI2N_DXT5@@UAEPAXI@Z 1005ae90 f i bitmap:Codec_ATI2N_DXT5.obj
 0001:00059e90       ??_ECCodec_ATI2N_DXT5@@UAEPAXI@Z 1005ae90 f i bitmap:Codec_ATI2N_DXT5.obj
 0001:00059ec0       ??0CCodec_ATI2N@@QAE@W4_CodecType@@@Z 1005aec0 f   bitmap:Codec_ATI2N.obj
 0001:00059ee0       ??1CCodec_ATI2N@@UAE@XZ    1005aee0 f   bitmap:Codec_ATI2N.obj
 0001:00059ef0       ?Compress@CCodec_ATI2N@@UAE?AW4_CODECError@@AAVCCodecBuffer@@0P6A_NMKK@ZKK@Z 1005aef0 f   bitmap:Codec_ATI2N.obj
 0001:0005a160       ?Decompress@CCodec_ATI2N@@UAE?AW4_CODECError@@AAVCCodecBuffer@@0@Z 1005b160 f   bitmap:Codec_ATI2N.obj
 0001:0005a430       ?DeriveBlockB@CCodec_ATI2N@@MAEXQAE00@Z 1005b430 f   bitmap:Codec_ATI2N.obj
 0001:0005a480       ?DeriveBlockB@CCodec_ATI2N@@MAEXQAM00@Z 1005b480 f   bitmap:Codec_ATI2N.obj
 0001:0005a4d0       ??_ECCodec_ATI2N@@UAEPAXI@Z 1005b4d0 f i bitmap:Codec_ATI2N.obj
 0001:0005a4d0       ??_GCCodec_ATI2N@@UAEPAXI@Z 1005b4d0 f i bitmap:Codec_ATI2N.obj
 0001:0005a500       ??0CCodec_ATI1N@@QAE@W4_CodecType@@@Z 1005b500 f   bitmap:Codec_ATI1N.obj
 0001:0005a520       ??1CCodec_ATI1N@@UAE@XZ    1005b520 f   bitmap:Codec_ATI1N.obj
 0001:0005a530       ?CreateBuffer@CCodec_ATI1N@@UBEPAVCCodecBuffer@@KKKPAE@Z 1005b530 f   bitmap:Codec_ATI1N.obj
 0001:0005a560       ?Compress@CCodec_ATI1N@@UAE?AW4_CODECError@@AAVCCodecBuffer@@0P6A_NMKK@ZKK@Z 1005b560 f   bitmap:Codec_ATI1N.obj
 0001:0005a750       ?Decompress@CCodec_ATI1N@@UAE?AW4_CODECError@@AAVCCodecBuffer@@0@Z 1005b750 f   bitmap:Codec_ATI1N.obj
 0001:0005a930       ??_GCCodec_ATI1N@@UAEPAXI@Z 1005b930 f i bitmap:Codec_ATI1N.obj
 0001:0005a930       ??_ECCodec_ATI1N@@UAEPAXI@Z 1005b930 f i bitmap:Codec_ATI1N.obj
 0001:0005a960       ??0CCodec_DXT5_xGxR@@QAE@XZ 1005b960 f   bitmap:Codec_DXT5_xGxR.obj
 0001:0005a980       ??1CCodec_DXT5_xGxR@@UAE@XZ 1005b980 f   bitmap:Codec_DXT5_xGxR.obj
 0001:0005a990       ?ReadBlock@CCodec_DXT5_xGxR@@MAEXAAVCCodecBuffer@@KKQAK@Z 1005b990 f   bitmap:Codec_DXT5_xGxR.obj
 0001:0005aa50       ?WriteBlock@CCodec_DXT5_xGxR@@MAEXAAVCCodecBuffer@@KKQAK@Z 1005ba50 f   bitmap:Codec_DXT5_xGxR.obj
 0001:0005ab10       ?ReadBlock@CCodec_DXT5_xGxR@@MAEXAAVCCodecBuffer@@KKQAM@Z 1005bb10 f   bitmap:Codec_DXT5_xGxR.obj
 0001:0005ab80       ?WriteBlock@CCodec_DXT5_xGxR@@MAEXAAVCCodecBuffer@@KKQAM@Z 1005bb80 f   bitmap:Codec_DXT5_xGxR.obj
 0001:0005ac00       ??_ECCodec_DXT5_xGxR@@UAEPAXI@Z 1005bc00 f i bitmap:Codec_DXT5_xGxR.obj
 0001:0005ac00       ??_GCCodec_DXT5_xGxR@@UAEPAXI@Z 1005bc00 f i bitmap:Codec_DXT5_xGxR.obj
 0001:0005ac30       ??0CCodec_DXT5_RGxB@@QAE@XZ 1005bc30 f   bitmap:Codec_DXT5_RGxB.obj
 0001:0005ac50       ??1CCodec_DXT5_RGxB@@UAE@XZ 1005bc50 f   bitmap:Codec_DXT5_RGxB.obj
 0001:0005ac60       ?ReadBlock@CCodec_DXT5_RGxB@@MAEXAAVCCodecBuffer@@KKQAK@Z 1005bc60 f   bitmap:Codec_DXT5_RGxB.obj
 0001:0005ad60       ?WriteBlock@CCodec_DXT5_RGxB@@MAEXAAVCCodecBuffer@@KKQAK@Z 1005bd60 f   bitmap:Codec_DXT5_RGxB.obj
 0001:0005ae40       ?ReadBlock@CCodec_DXT5_RGxB@@MAEXAAVCCodecBuffer@@KKQAM@Z 1005be40 f   bitmap:Codec_DXT5_RGxB.obj
 0001:0005aec0       ?WriteBlock@CCodec_DXT5_RGxB@@MAEXAAVCCodecBuffer@@KKQAM@Z 1005bec0 f   bitmap:Codec_DXT5_RGxB.obj
 0001:0005af50       ??_GCCodec_DXT5_RGxB@@UAEPAXI@Z 1005bf50 f i bitmap:Codec_DXT5_RGxB.obj
 0001:0005af50       ??_ECCodec_DXT5_RGxB@@UAEPAXI@Z 1005bf50 f i bitmap:Codec_DXT5_RGxB.obj
 0001:0005af80       ??0CCodec_DXT5_xRBG@@QAE@XZ 1005bf80 f   bitmap:Codec_DXT5_xRBG.obj
 0001:0005afa0       ??1CCodec_DXT5_xRBG@@UAE@XZ 1005bfa0 f   bitmap:Codec_DXT5_xRBG.obj
 0001:0005afb0       ?ReadBlock@CCodec_DXT5_xRBG@@MAEXAAVCCodecBuffer@@KKQAK@Z 1005bfb0 f   bitmap:Codec_DXT5_xRBG.obj
 0001:0005b0a0       ?WriteBlock@CCodec_DXT5_xRBG@@MAEXAAVCCodecBuffer@@KKQAK@Z 1005c0a0 f   bitmap:Codec_DXT5_xRBG.obj
 0001:0005b180       ?ReadBlock@CCodec_DXT5_xRBG@@MAEXAAVCCodecBuffer@@KKQAM@Z 1005c180 f   bitmap:Codec_DXT5_xRBG.obj
 0001:0005b200       ?WriteBlock@CCodec_DXT5_xRBG@@MAEXAAVCCodecBuffer@@KKQAM@Z 1005c200 f   bitmap:Codec_DXT5_xRBG.obj
 0001:0005b280       ?SetParameter@CCodec_DXT5_xRBG@@UAE_NPBDM@Z 1005c280 f   bitmap:Codec_DXT5_xRBG.obj
 0001:0005b310       ?GetParameter@CCodec_DXT5_xRBG@@UAE_NPBDAAM@Z 1005c310 f   bitmap:Codec_DXT5_xRBG.obj
 0001:0005b390       ??_ECCodec_DXT5_xRBG@@UAEPAXI@Z 1005c390 f i bitmap:Codec_DXT5_xRBG.obj
 0001:0005b390       ??_GCCodec_DXT5_xRBG@@UAEPAXI@Z 1005c390 f i bitmap:Codec_DXT5_xRBG.obj
 0001:0005b3c0       ??0CCodec_DXT5_RBxG@@QAE@XZ 1005c3c0 f   bitmap:Codec_DXT5_RBxG.obj
 0001:0005b3e0       ??1CCodec_DXT5_RBxG@@UAE@XZ 1005c3e0 f   bitmap:Codec_DXT5_RBxG.obj
 0001:0005b3f0       ?ReadBlock@CCodec_DXT5_RBxG@@MAEXAAVCCodecBuffer@@KKQAK@Z 1005c3f0 f   bitmap:Codec_DXT5_RBxG.obj
 0001:0005b4e0       ?WriteBlock@CCodec_DXT5_RBxG@@MAEXAAVCCodecBuffer@@KKQAK@Z 1005c4e0 f   bitmap:Codec_DXT5_RBxG.obj
 0001:0005b5c0       ?ReadBlock@CCodec_DXT5_RBxG@@MAEXAAVCCodecBuffer@@KKQAM@Z 1005c5c0 f   bitmap:Codec_DXT5_RBxG.obj
 0001:0005b640       ?WriteBlock@CCodec_DXT5_RBxG@@MAEXAAVCCodecBuffer@@KKQAM@Z 1005c640 f   bitmap:Codec_DXT5_RBxG.obj
 0001:0005b6c0       ?SetParameter@CCodec_DXT5_RBxG@@UAE_NPBDM@Z 1005c6c0 f   bitmap:Codec_DXT5_RBxG.obj
 0001:0005b750       ?GetParameter@CCodec_DXT5_RBxG@@UAE_NPBDAAM@Z 1005c750 f   bitmap:Codec_DXT5_RBxG.obj
 0001:0005b7d0       ??_GCCodec_DXT5_RBxG@@UAEPAXI@Z 1005c7d0 f i bitmap:Codec_DXT5_RBxG.obj
 0001:0005b7d0       ??_ECCodec_DXT5_RBxG@@UAEPAXI@Z 1005c7d0 f i bitmap:Codec_DXT5_RBxG.obj
 0001:0005b800       ??0CCodec_DXT5_RxBG@@QAE@XZ 1005c800 f   bitmap:Codec_DXT5_RxBG.obj
 0001:0005b820       ??1CCodec_DXT5_RxBG@@UAE@XZ 1005c820 f   bitmap:Codec_DXT5_RxBG.obj
 0001:0005b830       ?ReadBlock@CCodec_DXT5_RxBG@@MAEXAAVCCodecBuffer@@KKQAK@Z 1005c830 f   bitmap:Codec_DXT5_RxBG.obj
 0001:0005b910       ?WriteBlock@CCodec_DXT5_RxBG@@MAEXAAVCCodecBuffer@@KKQAK@Z 1005c910 f   bitmap:Codec_DXT5_RxBG.obj
 0001:0005b9f0       ?ReadBlock@CCodec_DXT5_RxBG@@MAEXAAVCCodecBuffer@@KKQAM@Z 1005c9f0 f   bitmap:Codec_DXT5_RxBG.obj
 0001:0005ba70       ?WriteBlock@CCodec_DXT5_RxBG@@MAEXAAVCCodecBuffer@@KKQAM@Z 1005ca70 f   bitmap:Codec_DXT5_RxBG.obj
 0001:0005baf0       ??_ECCodec_DXT5_RxBG@@UAEPAXI@Z 1005caf0 f i bitmap:Codec_DXT5_RxBG.obj
 0001:0005baf0       ??_GCCodec_DXT5_RxBG@@UAEPAXI@Z 1005caf0 f i bitmap:Codec_DXT5_RxBG.obj
 0001:0005bb20       ??0CCodec_DXT5_xGBR@@QAE@XZ 1005cb20 f   bitmap:Codec_DXT5_xGBR.obj
 0001:0005bb40       ??1CCodec_DXT5_xGBR@@UAE@XZ 1005cb40 f   bitmap:Codec_DXT5_xGBR.obj
 0001:0005bb50       ?ReadBlock@CCodec_DXT5_xGBR@@MAEXAAVCCodecBuffer@@KKQAK@Z 1005cb50 f   bitmap:Codec_DXT5_xGBR.obj
 0001:0005bc40       ?WriteBlock@CCodec_DXT5_xGBR@@MAEXAAVCCodecBuffer@@KKQAK@Z 1005cc40 f   bitmap:Codec_DXT5_xGBR.obj
 0001:0005bd20       ?ReadBlock@CCodec_DXT5_xGBR@@MAEXAAVCCodecBuffer@@KKQAM@Z 1005cd20 f   bitmap:Codec_DXT5_xGBR.obj
 0001:0005bda0       ?WriteBlock@CCodec_DXT5_xGBR@@MAEXAAVCCodecBuffer@@KKQAM@Z 1005cda0 f   bitmap:Codec_DXT5_xGBR.obj
 0001:0005be30       ??_GCCodec_DXT5_xGBR@@UAEPAXI@Z 1005ce30 f i bitmap:Codec_DXT5_xGBR.obj
 0001:0005be30       ??_ECCodec_DXT5_xGBR@@UAEPAXI@Z 1005ce30 f i bitmap:Codec_DXT5_xGBR.obj
 0001:0005be60       ??0CCodec_DXT5@@QAE@XZ     1005ce60 f   bitmap:Codec_DXT5.obj
 0001:0005be80       ??1CCodec_DXT5@@UAE@XZ     1005ce80 f   bitmap:Codec_DXT5.obj
 0001:0005be90       ?Compress@CCodec_DXT5@@UAE?AW4_CODECError@@AAVCCodecBuffer@@0P6A_NMKK@ZKK@Z 1005ce90 f   bitmap:Codec_DXT5.obj
 0001:0005c070       ?Decompress@CCodec_DXT5@@UAE?AW4_CODECError@@AAVCCodecBuffer@@0@Z 1005d070 f   bitmap:Codec_DXT5.obj
 0001:0005c1b0       ??_GCCodec_DXT5@@UAEPAXI@Z 1005d1b0 f i bitmap:Codec_DXT5.obj
 0001:0005c1b0       ??_ECCodec_DXT5@@UAEPAXI@Z 1005d1b0 f i bitmap:Codec_DXT5.obj
 0001:0005c1e0       ??0CCodec_DXT3@@QAE@XZ     1005d1e0 f   bitmap:Codec_DXT3.obj
 0001:0005c200       ??1CCodec_DXT3@@UAE@XZ     1005d200 f   bitmap:Codec_DXT3.obj
 0001:0005c210       ?Compress@CCodec_DXT3@@UAE?AW4_CODECError@@AAVCCodecBuffer@@0P6A_NMKK@ZKK@Z 1005d210 f   bitmap:Codec_DXT3.obj
 0001:0005c3f0       ?Decompress@CCodec_DXT3@@UAE?AW4_CODECError@@AAVCCodecBuffer@@0@Z 1005d3f0 f   bitmap:Codec_DXT3.obj
 0001:0005c530       ??_ECCodec_DXT3@@UAEPAXI@Z 1005d530 f i bitmap:Codec_DXT3.obj
 0001:0005c530       ??_GCCodec_DXT3@@UAEPAXI@Z 1005d530 f i bitmap:Codec_DXT3.obj
 0001:0005c560       ??0CCodec_DXT1@@QAE@XZ     1005d560 f   bitmap:Codec_DXT1.obj
 0001:0005c580       ??1CCodec_DXT1@@UAE@XZ     1005d580 f   bitmap:Codec_DXT1.obj
 0001:0005c590       ?CreateBuffer@CCodec_DXT1@@UBEPAVCCodecBuffer@@KKKPAE@Z 1005d590 f   bitmap:Codec_DXT1.obj
 0001:0005c5c0       ?Compress@CCodec_DXT1@@UAE?AW4_CODECError@@AAVCCodecBuffer@@0P6A_NMKK@ZKK@Z 1005d5c0 f   bitmap:Codec_DXT1.obj
 0001:0005c7e0       ?Decompress@CCodec_DXT1@@UAE?AW4_CODECError@@AAVCCodecBuffer@@0@Z 1005d7e0 f   bitmap:Codec_DXT1.obj
 0001:0005c920       ?SetParameter@CCodec_DXT1@@UAE_NPBDK@Z 1005d920 f   bitmap:Codec_DXT1.obj
 0001:0005c980       ?GetParameter@CCodec_DXT1@@UAE_NPBDAAK@Z 1005d980 f   bitmap:Codec_DXT1.obj
 0001:0005c9f0       ??_ECCodec_DXT1@@UAEPAXI@Z 1005d9f0 f i bitmap:Codec_DXT1.obj
 0001:0005c9f0       ??_GCCodec_DXT1@@UAEPAXI@Z 1005d9f0 f i bitmap:Codec_DXT1.obj
 0001:0005ca20       ?overflow@half@@CAMXZ      1005da20 f   bitmap:half.obj
 0001:0005ca50       ?convert@half@@CAFH@Z      1005da50 f   bitmap:half.obj
 0001:0005cb10       ??0CCodecBuffer_Block@@QAE@W4_CodecBufferType@@KKKPAE@Z 1005db10 f   bitmap:CodecBuffer_Block.obj
 0001:0005cc30       ??1CCodecBuffer_Block@@UAE@XZ 1005dc30 f   bitmap:CodecBuffer_Block.obj
 0001:0005cc40       ?ReadBlock@CCodecBuffer_Block@@UAE_NKKPAKK@Z 1005dc40 f   bitmap:CodecBuffer_Block.obj
 0001:0005ccb0       ?WriteBlock@CCodecBuffer_Block@@UAE_NKKPAKK@Z 1005dcb0 f   bitmap:CodecBuffer_Block.obj
 0001:0005cd20       ?MipCount@CVTFTexture@@UBEHXZ 1005dd20 f i vtf:vtf.obj
 0001:0005cd20       ?GetBufferType@CCodecBuffer_Block@@UBE?BW4_CodecBufferType@@XZ 1005dd20 f i bitmap:CodecBuffer_Block.obj
 0001:0005cd20       ?GetCenterVertIndex@CCoreDispNode@@QAEHXZ 1005dd20 f i builddisp.obj
 0001:0005cd30       ??_ECCodecBuffer_Block@@UAEPAXI@Z 1005dd30 f i bitmap:CodecBuffer_Block.obj
 0001:0005cd30       ??_GCCodecBuffer_Block@@UAEPAXI@Z 1005dd30 f i bitmap:CodecBuffer_Block.obj
 0001:0005cd60       ??0CCodecBuffer_RGBA32F@@QAE@KKKPAE@Z 1005dd60 f   bitmap:CodecBuffer_RGBA32F.obj
 0001:0005cdc0       ??1CCodecBuffer_RGBA32F@@UAE@XZ 1005ddc0 f   bitmap:CodecBuffer_RGBA32F.obj
 0001:0005cdd0       ?Copy@CCodecBuffer_RGBA32F@@UAEXAAVCCodecBuffer@@@Z 1005ddd0 f   bitmap:CodecBuffer_RGBA32F.obj
 0001:0005ce90       ?WriteBlock@CCodecBuffer_RGBA32F@@MAE_NKKEEQAMK@Z 1005de90 f   bitmap:CodecBuffer_RGBA32F.obj
 0001:0005d000       ?ReadBlockA@CCodecBuffer_RGBA32F@@UAE_NKKEEQAM@Z 1005e000 f   bitmap:CodecBuffer_RGBA32F.obj
 0001:0005d030       ?ReadBlockR@CCodecBuffer_RGBA32F@@UAE_NKKEEQAM@Z 1005e030 f   bitmap:CodecBuffer_RGBA32F.obj
 0001:0005d060       ?ReadBlockG@CCodecBuffer_RGBA32F@@UAE_NKKEEQAM@Z 1005e060 f   bitmap:CodecBuffer_RGBA32F.obj
 0001:0005d090       ?ReadBlockB@CCodecBuffer_RGBA32F@@UAE_NKKEEQAM@Z 1005e090 f   bitmap:CodecBuffer_RGBA32F.obj
 0001:0005d0c0       ?WriteBlockA@CCodecBuffer_RGBA32F@@UAE_NKKEEQAM@Z 1005e0c0 f   bitmap:CodecBuffer_RGBA32F.obj
 0001:0005d0f0       ?WriteBlockR@CCodecBuffer_RGBA32F@@UAE_NKKEEQAM@Z 1005e0f0 f   bitmap:CodecBuffer_RGBA32F.obj
 0001:0005d120       ?WriteBlockG@CCodecBuffer_RGBA32F@@UAE_NKKEEQAM@Z 1005e120 f   bitmap:CodecBuffer_RGBA32F.obj
 0001:0005d150       ?WriteBlockB@CCodecBuffer_RGBA32F@@UAE_NKKEEQAM@Z 1005e150 f   bitmap:CodecBuffer_RGBA32F.obj
 0001:0005d180       ?WriteBlockRGBA@CCodecBuffer_RGBA32F@@UAE_NKKEEQAM@Z 1005e180 f   bitmap:CodecBuffer_RGBA32F.obj
 0001:0005d220       ?ReadBlock@CCodecBuffer_RGBA32F@@MAE_NKKEEQAMK@Z 1005e220 f   bitmap:CodecBuffer_RGBA32F.obj
 0001:0005d440       ?ReadBlockRGBA@CCodecBuffer_RGBA32F@@UAE_NKKEEQAM@Z 1005e440 f   bitmap:CodecBuffer_RGBA32F.obj
 0001:0005d5a0       ?GetBufferType@CCodecBuffer_RGBA32F@@UBE?BW4_CodecBufferType@@XZ 1005e5a0 f i bitmap:CodecBuffer_RGBA32F.obj
 0001:0005d5b0       ??$PadLine@K@@YAXKEQAK@Z   1005e5b0 f i bitmap:CodecBuffer_RGBA2101010.obj
 0001:0005d5b0       ??$PadLine@M@@YAXKEQAM@Z   1005e5b0 f i bitmap:CodecBuffer_RGBA32F.obj
 0001:0005d5f0       ??$PadBlock@K@@YAXKEEQAK@Z 1005e5f0 f i bitmap:CodecBuffer_RGBA2101010.obj
 0001:0005d5f0       ??$PadBlock@M@@YAXKEEQAM@Z 1005e5f0 f i bitmap:CodecBuffer_RGBA32F.obj
 0001:0005d640       ??_ECCodecBuffer_RGBA32F@@UAEPAXI@Z 1005e640 f i bitmap:CodecBuffer_RGBA32F.obj
 0001:0005d640       ??_GCCodecBuffer_RGBA32F@@UAEPAXI@Z 1005e640 f i bitmap:CodecBuffer_RGBA32F.obj
 0001:0005d670       ??0CCodecBuffer_RGBA16F@@QAE@KKKPAE@Z 1005e670 f   bitmap:CodecBuffer_RGBA16F.obj
 0001:0005d6d0       ??1CCodecBuffer_RGBA16F@@UAE@XZ 1005e6d0 f   bitmap:CodecBuffer_RGBA16F.obj
 0001:0005d6e0       ?WriteBlock@CCodecBuffer_RGBA16F@@MAE_NKKEEQAVhalf@@K@Z 1005e6e0 f   bitmap:CodecBuffer_RGBA16F.obj
 0001:0005d780       ?ReadBlockA@CCodecBuffer_RGBA16F@@UAE_NKKEEQAVhalf@@@Z 1005e780 f   bitmap:CodecBuffer_RGBA16F.obj
 0001:0005d7b0       ?ReadBlockR@CCodecBuffer_RGBA16F@@UAE_NKKEEQAVhalf@@@Z 1005e7b0 f   bitmap:CodecBuffer_RGBA16F.obj
 0001:0005d7e0       ?ReadBlockG@CCodecBuffer_RGBA16F@@UAE_NKKEEQAVhalf@@@Z 1005e7e0 f   bitmap:CodecBuffer_RGBA16F.obj
 0001:0005d810       ?ReadBlockB@CCodecBuffer_RGBA16F@@UAE_NKKEEQAVhalf@@@Z 1005e810 f   bitmap:CodecBuffer_RGBA16F.obj
 0001:0005d840       ?WriteBlockA@CCodecBuffer_RGBA16F@@UAE_NKKEEQAVhalf@@@Z 1005e840 f   bitmap:CodecBuffer_RGBA16F.obj
 0001:0005d870       ?WriteBlockR@CCodecBuffer_RGBA16F@@UAE_NKKEEQAVhalf@@@Z 1005e870 f   bitmap:CodecBuffer_RGBA16F.obj
 0001:0005d8a0       ?WriteBlockG@CCodecBuffer_RGBA16F@@UAE_NKKEEQAVhalf@@@Z 1005e8a0 f   bitmap:CodecBuffer_RGBA16F.obj
 0001:0005d8d0       ?WriteBlockB@CCodecBuffer_RGBA16F@@UAE_NKKEEQAVhalf@@@Z 1005e8d0 f   bitmap:CodecBuffer_RGBA16F.obj
 0001:0005d900       ?WriteBlockRGBA@CCodecBuffer_RGBA16F@@UAE_NKKEEQAVhalf@@@Z 1005e900 f   bitmap:CodecBuffer_RGBA16F.obj
 0001:0005d9a0       ?Copy@CCodecBuffer_RGBA16F@@UAEXAAVCCodecBuffer@@@Z 1005e9a0 f   bitmap:CodecBuffer_RGBA16F.obj
 0001:0005da80       ?ReadBlock@CCodecBuffer_RGBA16F@@MAE_NKKEEQAVhalf@@K@Z 1005ea80 f   bitmap:CodecBuffer_RGBA16F.obj
 0001:0005dbc0       ?ReadBlockRGBA@CCodecBuffer_RGBA16F@@UAE_NKKEEQAVhalf@@@Z 1005ebc0 f   bitmap:CodecBuffer_RGBA16F.obj
 0001:0005dd00       ??_ECCodecBuffer_RGBA16F@@UAEPAXI@Z 1005ed00 f i bitmap:CodecBuffer_RGBA16F.obj
 0001:0005dd00       ??_GCCodecBuffer_RGBA16F@@UAEPAXI@Z 1005ed00 f i bitmap:CodecBuffer_RGBA16F.obj
 0001:0005dd30       ??0CCodecBuffer_RGBA16@@QAE@KKKPAE@Z 1005ed30 f   bitmap:CodecBuffer_RGBA16.obj
 0001:0005dd90       ??1CCodecBuffer_RGBA16@@UAE@XZ 1005ed90 f   bitmap:CodecBuffer_RGBA16.obj
 0001:0005dda0       ?Copy@CCodecBuffer_RGBA16@@UAEXAAVCCodecBuffer@@@Z 1005eda0 f   bitmap:CodecBuffer_RGBA16.obj
 0001:0005de80       ?WriteBlock@CCodecBuffer_RGBA16@@MAE_NKKEEQAGK@Z 1005ee80 f   bitmap:CodecBuffer_RGBA16.obj
 0001:0005df20       ?ReadBlockA@CCodecBuffer_RGBA16@@UAE_NKKEEQAG@Z 1005ef20 f   bitmap:CodecBuffer_RGBA16.obj
 0001:0005df50       ?ReadBlockR@CCodecBuffer_RGBA16@@UAE_NKKEEQAG@Z 1005ef50 f   bitmap:CodecBuffer_RGBA16.obj
 0001:0005df80       ?ReadBlockG@CCodecBuffer_RGBA16@@UAE_NKKEEQAG@Z 1005ef80 f   bitmap:CodecBuffer_RGBA16.obj
 0001:0005dfb0       ?ReadBlockB@CCodecBuffer_RGBA16@@UAE_NKKEEQAG@Z 1005efb0 f   bitmap:CodecBuffer_RGBA16.obj
 0001:0005dfe0       ?WriteBlockA@CCodecBuffer_RGBA16@@UAE_NKKEEQAG@Z 1005efe0 f   bitmap:CodecBuffer_RGBA16.obj
 0001:0005e010       ?WriteBlockR@CCodecBuffer_RGBA16@@UAE_NKKEEQAG@Z 1005f010 f   bitmap:CodecBuffer_RGBA16.obj
 0001:0005e040       ?WriteBlockG@CCodecBuffer_RGBA16@@UAE_NKKEEQAG@Z 1005f040 f   bitmap:CodecBuffer_RGBA16.obj
 0001:0005e070       ?WriteBlockB@CCodecBuffer_RGBA16@@UAE_NKKEEQAG@Z 1005f070 f   bitmap:CodecBuffer_RGBA16.obj
 0001:0005e0a0       ?WriteBlockRGBA@CCodecBuffer_RGBA16@@UAE_NKKEEQAG@Z 1005f0a0 f   bitmap:CodecBuffer_RGBA16.obj
 0001:0005e140       ?ReadBlock@CCodecBuffer_RGBA16@@MAE_NKKEEQAGK@Z 1005f140 f   bitmap:CodecBuffer_RGBA16.obj
 0001:0005e280       ?ReadBlockRGBA@CCodecBuffer_RGBA16@@UAE_NKKEEQAG@Z 1005f280 f   bitmap:CodecBuffer_RGBA16.obj
 0001:0005e3c0       ?GetBufferType@CCodecBuffer_RGBA16@@UBE?BW4_CodecBufferType@@XZ 1005f3c0 f i bitmap:CodecBuffer_RGBA16.obj
 0001:0005e3d0       ??$PadLine@G@@YAXKEQAG@Z   1005f3d0 f i bitmap:CodecBuffer_RGBA16.obj
 0001:0005e3d0       ??$PadLine@Vhalf@@@@YAXKEQAVhalf@@@Z 1005f3d0 f i bitmap:CodecBuffer_RGBA16F.obj
 0001:0005e410       ??$PadBlock@Vhalf@@@@YAXKEEQAVhalf@@@Z 1005f410 f i bitmap:CodecBuffer_RGBA16F.obj
 0001:0005e410       ??$PadBlock@G@@YAXKEEQAG@Z 1005f410 f i bitmap:CodecBuffer_RGBA16.obj
 0001:0005e460       ??_ECCodecBuffer_RGBA16@@UAEPAXI@Z 1005f460 f i bitmap:CodecBuffer_RGBA16.obj
 0001:0005e460       ??_GCCodecBuffer_RGBA16@@UAEPAXI@Z 1005f460 f i bitmap:CodecBuffer_RGBA16.obj
 0001:0005e490       ??0CCodecBuffer_RGBA2101010@@QAE@KKKPAE@Z 1005f490 f   bitmap:CodecBuffer_RGBA2101010.obj
 0001:0005e4f0       ??1CCodecBuffer_RGBA2101010@@UAE@XZ 1005f4f0 f   bitmap:CodecBuffer_RGBA2101010.obj
 0001:0005e500       ?Copy@CCodecBuffer_RGBA2101010@@UAEXAAVCCodecBuffer@@@Z 1005f500 f   bitmap:CodecBuffer_RGBA2101010.obj
 0001:0005e5c0       ?WriteBlock@CCodecBuffer_RGBA2101010@@MAE_NKKEEQAGKK@Z 1005f5c0 f   bitmap:CodecBuffer_RGBA2101010.obj
 0001:0005e680       ?ReadBlockA@CCodecBuffer_RGBA2101010@@UAE_NKKEEQAG@Z 1005f680 f   bitmap:CodecBuffer_RGBA2101010.obj
 0001:0005e6b0       ?ReadBlockR@CCodecBuffer_RGBA2101010@@UAE_NKKEEQAG@Z 1005f6b0 f   bitmap:CodecBuffer_RGBA2101010.obj
 0001:0005e6e0       ?ReadBlockG@CCodecBuffer_RGBA2101010@@UAE_NKKEEQAG@Z 1005f6e0 f   bitmap:CodecBuffer_RGBA2101010.obj
 0001:0005e710       ?ReadBlockB@CCodecBuffer_RGBA2101010@@UAE_NKKEEQAG@Z 1005f710 f   bitmap:CodecBuffer_RGBA2101010.obj
 0001:0005e740       ?WriteBlockA@CCodecBuffer_RGBA2101010@@UAE_NKKEEQAG@Z 1005f740 f   bitmap:CodecBuffer_RGBA2101010.obj
 0001:0005e770       ?WriteBlockR@CCodecBuffer_RGBA2101010@@UAE_NKKEEQAG@Z 1005f770 f   bitmap:CodecBuffer_RGBA2101010.obj
 0001:0005e7a0       ?WriteBlockG@CCodecBuffer_RGBA2101010@@UAE_NKKEEQAG@Z 1005f7a0 f   bitmap:CodecBuffer_RGBA2101010.obj
 0001:0005e7d0       ?WriteBlockB@CCodecBuffer_RGBA2101010@@UAE_NKKEEQAG@Z 1005f7d0 f   bitmap:CodecBuffer_RGBA2101010.obj
 0001:0005e800       ?WriteBlockRGBA@CCodecBuffer_RGBA2101010@@UAE_NKKEEQAK@Z 1005f800 f   bitmap:CodecBuffer_RGBA2101010.obj
 0001:0005e8c0       ?WriteBlockRGBA@CCodecBuffer_RGBA2101010@@UAE_NKKEEQAG@Z 1005f8c0 f   bitmap:CodecBuffer_RGBA2101010.obj
 0001:0005e9c0       ?ReadBlock@CCodecBuffer_RGBA2101010@@MAE_NKKEEQAGKK@Z 1005f9c0 f   bitmap:CodecBuffer_RGBA2101010.obj
 0001:0005eb10       ?ReadBlockRGBA@CCodecBuffer_RGBA2101010@@UAE_NKKEEQAK@Z 1005fb10 f   bitmap:CodecBuffer_RGBA2101010.obj
 0001:0005ec50       ?ReadBlockRGBA@CCodecBuffer_RGBA2101010@@UAE_NKKEEQAG@Z 1005fc50 f   bitmap:CodecBuffer_RGBA2101010.obj
 0001:0005ee20       ?GetBufferType@CCodecBuffer_RGBA2101010@@UBE?BW4_CodecBufferType@@XZ 1005fe20 f i bitmap:CodecBuffer_RGBA2101010.obj
 0001:0005ee30       ??_GCCodecBuffer_RGBA2101010@@UAEPAXI@Z 1005fe30 f i bitmap:CodecBuffer_RGBA2101010.obj
 0001:0005ee30       ??_ECCodecBuffer_RGBA2101010@@UAEPAXI@Z 1005fe30 f i bitmap:CodecBuffer_RGBA2101010.obj
 0001:0005ee60       ??0CCodecBuffer_RGBA8888@@QAE@KKKPAE@Z 1005fe60 f   bitmap:CodecBuffer_RGBA8888.obj
 0001:0005eec0       ??1CCodecBuffer_RGBA8888@@UAE@XZ 1005fec0 f   bitmap:CodecBuffer_RGBA8888.obj
 0001:0005eed0       ?Copy@CCodecBuffer_RGBA8888@@UAEXAAVCCodecBuffer@@@Z 1005fed0 f   bitmap:CodecBuffer_RGBA8888.obj
 0001:0005ef90       ?WriteBlock@CCodecBuffer_RGBA8888@@MAE_NKKEEQAEK@Z 1005ff90 f   bitmap:CodecBuffer_RGBA8888.obj
 0001:0005f050       ?ReadBlockA@CCodecBuffer_RGBA8888@@UAE_NKKEEQAE@Z 10060050 f   bitmap:CodecBuffer_RGBA8888.obj
 0001:0005f080       ?ReadBlockR@CCodecBuffer_RGBA8888@@UAE_NKKEEQAE@Z 10060080 f   bitmap:CodecBuffer_RGBA8888.obj
 0001:0005f0b0       ?ReadBlockG@CCodecBuffer_RGBA8888@@UAE_NKKEEQAE@Z 100600b0 f   bitmap:CodecBuffer_RGBA8888.obj
 0001:0005f0e0       ?ReadBlockB@CCodecBuffer_RGBA8888@@UAE_NKKEEQAE@Z 100600e0 f   bitmap:CodecBuffer_RGBA8888.obj
 0001:0005f110       ?WriteBlockA@CCodecBuffer_RGBA8888@@UAE_NKKEEQAE@Z 10060110 f   bitmap:CodecBuffer_RGBA8888.obj
 0001:0005f140       ?WriteBlockR@CCodecBuffer_RGBA8888@@UAE_NKKEEQAE@Z 10060140 f   bitmap:CodecBuffer_RGBA8888.obj
 0001:0005f170       ?WriteBlockG@CCodecBuffer_RGBA8888@@UAE_NKKEEQAE@Z 10060170 f   bitmap:CodecBuffer_RGBA8888.obj
 0001:0005f1a0       ?WriteBlockB@CCodecBuffer_RGBA8888@@UAE_NKKEEQAE@Z 100601a0 f   bitmap:CodecBuffer_RGBA8888.obj
 0001:0005f1d0       ?WriteBlockRGBA@CCodecBuffer_RGBA8888@@UAE_NKKEEQAK@Z 100601d0 f   bitmap:CodecBuffer_RGBA8888.obj
 0001:0005f290       ?ReadBlock@CCodecBuffer_RGBA8888@@MAE_NKKEEQAEK@Z 10060290 f   bitmap:CodecBuffer_RGBA8888.obj
 0001:0005f3e0       ?ReadBlockRGBA@CCodecBuffer_RGBA8888@@UAE_NKKEEQAK@Z 100603e0 f   bitmap:CodecBuffer_RGBA8888.obj
 0001:0005f520       ?do_max_length@codecvt_base@std@@MBEHXZ 10060520 f i chunkfile.obj
 0001:0005f520       ?GetBlockHeight@CCodec@ATI_Compress@@UAEKXZ 10060520 f i bitmap:Codec.obj
 0001:0005f520       ?do_encoding@codecvt_base@std@@MBEHXZ 10060520 f i chunkfile.obj
 0001:0005f520       ?GetBufferType@CCodecBuffer_RGBA8888@@UBE?BW4_CodecBufferType@@XZ 10060520 f i bitmap:CodecBuffer_RGBA8888.obj
 0001:0005f530       ??$PadLine@E@@YAXKEQAE@Z   10060530 f i bitmap:CodecBuffer_RGBA8888.obj
 0001:0005f570       ??$PadBlock@E@@YAXKEEQAE@Z 10060570 f i bitmap:CodecBuffer_RGBA8888.obj
 0001:0005f5c0       ??_ECCodecBuffer_RGBA8888@@UAEPAXI@Z 100605c0 f i bitmap:CodecBuffer_RGBA8888.obj
 0001:0005f5c0       ??_GCCodecBuffer_RGBA8888@@UAEPAXI@Z 100605c0 f i bitmap:CodecBuffer_RGBA8888.obj
 0001:0005f650       ?ConstructGammaTable@ImageLoader@@YAXPAEMM@Z 10060650 f   bitmap:resample.obj
 0001:0005f6c0       ?GammaCorrectRGBA8888@ImageLoader@@YAXPAE0HHH0@Z 100606c0 f   bitmap:resample.obj
 0001:0005f7a0       ?GammaCorrectRGBA8888@ImageLoader@@YAXPAE0HHHMM@Z 100607a0 f   bitmap:resample.obj
 0001:0005fc00       ?ResampleRGBA8888@ImageLoader@@YA_NABUResampleInfo_t@1@@Z 10060c00 f   bitmap:resample.obj
 0001:0005ffc0       ?ResampleRGB323232F@ImageLoader@@YA_NABUResampleInfo_t@1@@Z 10060fc0 f   bitmap:resample.obj
 0001:00060160       ?ComputeAveragedColor@?$CKernelWrapper@$0A@$0A@@ImageLoader@@SAXABUKernelInfo_t@2@ABUResampleInfo_t@2@HHHPAM2@Z 10061160 f i bitmap:resample.obj
 0001:00060330       ?ComputeAveragedColor@?$CKernelWrapper@$00$0A@@ImageLoader@@SAXABUKernelInfo_t@2@ABUResampleInfo_t@2@HHHPAM2@Z 10061330 f i bitmap:resample.obj
 0001:00060500       ?ComputeAveragedColor@?$CKernelWrapper@$01$0A@@ImageLoader@@SAXABUKernelInfo_t@2@ABUResampleInfo_t@2@HHHPAM2@Z 10061500 f i bitmap:resample.obj
 0001:000606b0       ?AddAlphaToAlphaResult@?$CKernelWrapper@$01$0A@@ImageLoader@@SAXABUKernelInfo_t@2@ABUResampleInfo_t@2@HHHMPAM@Z 100616b0 f i bitmap:resample.obj
 0001:000607f0       ?AdjustAlphaChannel@?$CKernelWrapper@$01$0A@@ImageLoader@@SAXABUKernelInfo_t@2@ABUResampleInfo_t@2@HHHPAM@Z 100617f0 f i bitmap:resample.obj
 0001:000607f0       ?AdjustAlphaChannel@?$CKernelWrapper@$01$00@ImageLoader@@SAXABUKernelInfo_t@2@ABUResampleInfo_t@2@HHHPAM@Z 100617f0 f i bitmap:resample.obj
 0001:00060c50       ?ComputeAveragedColor@?$CKernelWrapper@$0A@$00@ImageLoader@@SAXABUKernelInfo_t@2@ABUResampleInfo_t@2@HHHPAM2@Z 10061c50 f i bitmap:resample.obj
 0001:00060e30       ?ComputeAveragedColor@?$CKernelWrapper@$00$00@ImageLoader@@SAXABUKernelInfo_t@2@ABUResampleInfo_t@2@HHHPAM2@Z 10061e30 f i bitmap:resample.obj
 0001:00061010       ?ComputeAveragedColor@?$CKernelWrapper@$01$00@ImageLoader@@SAXABUKernelInfo_t@2@ABUResampleInfo_t@2@HHHPAM2@Z 10062010 f i bitmap:resample.obj
 0001:00061200       ?AddAlphaToAlphaResult@?$CKernelWrapper@$01$00@ImageLoader@@SAXABUKernelInfo_t@2@ABUResampleInfo_t@2@HHHMPAM@Z 10062200 f i bitmap:resample.obj
 0001:00061370       ?ApplyKernel@?$CKernelWrapper@$0A@$0A@@ImageLoader@@SAXABUKernelInfo_t@2@ABUResampleInfo_t@2@HHHPAM2@Z 10062370 f i bitmap:resample.obj
 0001:00061550       ?ApplyKernel@?$CKernelWrapper@$00$0A@@ImageLoader@@SAXABUKernelInfo_t@2@ABUResampleInfo_t@2@HHHPAM2@Z 10062550 f i bitmap:resample.obj
 0001:000616d0       ?ApplyKernel@?$CKernelWrapper@$01$0A@@ImageLoader@@SAXABUKernelInfo_t@2@ABUResampleInfo_t@2@HHHPAM2@Z 100626d0 f i bitmap:resample.obj
 0001:00061940       ?ApplyKernel@?$CKernelWrapper@$0A@$00@ImageLoader@@SAXABUKernelInfo_t@2@ABUResampleInfo_t@2@HHHPAM2@Z 10062940 f i bitmap:resample.obj
 0001:00061b20       ?ApplyKernel@?$CKernelWrapper@$00$00@ImageLoader@@SAXABUKernelInfo_t@2@ABUResampleInfo_t@2@HHHPAM2@Z 10062b20 f i bitmap:resample.obj
 0001:00061ca0       ?ApplyKernel@?$CKernelWrapper@$01$00@ImageLoader@@SAXABUKernelInfo_t@2@ABUResampleInfo_t@2@HHHPAM2@Z 10062ca0 f i bitmap:resample.obj
 0001:00061f10       ?GenerateMipmapLevels@ImageLoader@@YAXPAE0HHHW4ImageFormat@@MMH@Z 10062f10 f   bitmap:resample.obj
 0001:000620b0       ??0CCodec_DXTC@@QAE@W4_CodecType@@@Z 100630b0 f   bitmap:Codec_DXTC.obj
 0001:00062150       ??1CCodec_DXTC@@UAE@XZ     10063150 f   bitmap:Codec_DXTC.obj
 0001:00062160       ?SetParameter@CCodec_DXTC@@UAE_NPBDK@Z 10063160 f   bitmap:Codec_DXTC.obj
 0001:00062260       ?GetParameter@CCodec_DXTC@@UAE_NPBDAAK@Z 10063260 f   bitmap:Codec_DXTC.obj
 0001:00062350       ?SetParameter@CCodec_DXTC@@UAE_NPBDM@Z 10063350 f   bitmap:Codec_DXTC.obj
 0001:00062400       ?GetParameter@CCodec_DXTC@@UAE_NPBDAAM@Z 10063400 f   bitmap:Codec_DXTC.obj
 0001:000624b0       ??_ECCodec_DXTC@@UAEPAXI@Z 100634b0 f i bitmap:Codec_DXTC.obj
 0001:000624b0       ??_GCCodec_DXTC@@UAEPAXI@Z 100634b0 f i bitmap:Codec_DXTC.obj
 0001:000624e0       ??0CCodec_Block_4x4@@QAE@W4_CodecType@@@Z 100634e0 f   bitmap:Codec_Block_4x4.obj
 0001:00062500       ??1CCodec_Block_4x4@@UAE@XZ 10063500 f   bitmap:Codec_Block_4x4.obj
 0001:00062510       ?CreateBuffer@CCodec_Block_4x4@@UBEPAVCCodecBuffer@@KKKPAE@Z 10063510 f   bitmap:Codec_Block_4x4.obj
 0001:00062540       ??_ECCodec_Block_4x4@@UAEPAXI@Z 10063540 f i bitmap:Codec_Block_4x4.obj
 0001:00062540       ??_GCCodec_Block_4x4@@UAEPAXI@Z 10063540 f i bitmap:Codec_Block_4x4.obj
 0001:00062570       ?EncodeAlphaBlock@CCodec_DXTC@@IAEXQAKQAE1@Z 10063570 f   bitmap:Codec_DXTC_Alpha.obj
 0001:000626d0       ?CompressExplicitAlphaBlock@CCodec_DXTC@@MAE?AW4_CODECError@@QAEQAK@Z 100636d0 f   bitmap:Codec_DXTC_Alpha.obj
 0001:00062860       ?CompressExplicitAlphaBlock@CCodec_DXTC@@MAE?AW4_CODECError@@QAMQAK@Z 10063860 f   bitmap:Codec_DXTC_Alpha.obj
 0001:00062900       ?DecompressExplicitAlphaBlock@CCodec_DXTC@@MAEXQAEQAK@Z 10063900 f   bitmap:Codec_DXTC_Alpha.obj
 0001:00062940       ?DecompressExplicitAlphaBlock@CCodec_DXTC@@MAEXQAMQAK@Z 10063940 f   bitmap:Codec_DXTC_Alpha.obj
 0001:00062b10       ?GetCompressedAlphaRamp@CCodec_DXTC@@IAEXQAEQAK@Z 10063b10 f   bitmap:Codec_DXTC_Alpha.obj
 0001:00062c80       ?GetCompressedAlphaRamp@CCodec_DXTC@@IAEXQAMQAK@Z 10063c80 f   bitmap:Codec_DXTC_Alpha.obj
 0001:00062da0       ?CompressAlphaBlock@CCodec_DXTC@@MAE?AW4_CODECError@@QAEQAK@Z 10063da0 f   bitmap:Codec_DXTC_Alpha.obj
 0001:00062e70       ?CompressAlphaBlock@CCodec_DXTC@@MAE?AW4_CODECError@@QAMQAK@Z 10063e70 f   bitmap:Codec_DXTC_Alpha.obj
 0001:00062f40       ?DecompressAlphaBlock@CCodec_DXTC@@MAEXQAEQAK@Z 10063f40 f   bitmap:Codec_DXTC_Alpha.obj
 0001:000630e0       ?DecompressAlphaBlock@CCodec_DXTC@@MAEXQAMQAK@Z 100640e0 f   bitmap:Codec_DXTC_Alpha.obj
 0001:00063380       ?CompressRGBABlock@CCodec_DXTC@@MAE?AW4_CODECError@@QAK0PAM@Z 10064380 f   bitmap:Codec_DXTC_RGBA.obj
 0001:000633f0       ?DecompressRGBABlock@CCodec_DXTC@@MAEXQAK0@Z 100643f0 f   bitmap:Codec_DXTC_RGBA.obj
 0001:000634b0       ?CompressRGBABlock_ExplicitAlpha@CCodec_DXTC@@MAE?AW4_CODECError@@QAK0PAM@Z 100644b0 f   bitmap:Codec_DXTC_RGBA.obj
 0001:00063520       ?DecompressRGBABlock_ExplicitAlpha@CCodec_DXTC@@MAEXQAK0@Z 10064520 f   bitmap:Codec_DXTC_RGBA.obj
 0001:000635e0       ?CompressRGBBlock@CCodec_DXTC@@MAE?AW4_CODECError@@QAK0PAM_N2E@Z 100645e0 f   bitmap:Codec_DXTC_RGBA.obj
 0001:000638a0       ?CompressRGBABlock@CCodec_DXTC@@MAE?AW4_CODECError@@QAMQAKPAM@Z 100648a0 f   bitmap:Codec_DXTC_RGBA.obj
 0001:00063940       ?CompressRGBABlock_ExplicitAlpha@CCodec_DXTC@@MAE?AW4_CODECError@@QAMQAKPAM@Z 10064940 f   bitmap:Codec_DXTC_RGBA.obj
 0001:000639e0       ?CompressRGBBlock@CCodec_DXTC@@MAE?AW4_CODECError@@QAMQAKPAM_N3M@Z 100649e0 f   bitmap:Codec_DXTC_RGBA.obj
 0001:00063ca0       ?DecompressRGBABlock@CCodec_DXTC@@MAEXQAMQAK@Z 10064ca0 f   bitmap:Codec_DXTC_RGBA.obj
 0001:00063d20       ?DecompressRGBABlock_ExplicitAlpha@CCodec_DXTC@@MAEXQAMQAK@Z 10064d20 f   bitmap:Codec_DXTC_RGBA.obj
 0001:00063da0       ?DecompressRGBBlock@CCodec_DXTC@@MAEXQAK0_N@Z 10064da0 f   bitmap:Codec_DXTC_RGBA.obj
 0001:00063fe0       ?DecompressRGBBlock@CCodec_DXTC@@MAEXQAMQAK_N@Z 10064fe0 f   bitmap:Codec_DXTC_RGBA.obj
 0001:00064350       ?CalculateColourWeightings@CCodec_DXTC@@IAEPAMQAK@Z 10065350 f   bitmap:Codec_DXTC_RGBA.obj
 0001:00064730       ?CalculateColourWeightings@CCodec_DXTC@@IAEPAMQAM@Z 10065730 f   bitmap:Codec_DXTC_RGBA.obj
 0001:00064a60       ??0CCodec_DXT5_Swizzled@@QAE@W4_CodecType@@@Z 10065a60 f   bitmap:Codec_DXT5_Swizzled.obj
 0001:00064a80       ??1CCodec_DXT5_Swizzled@@UAE@XZ 10065a80 f   bitmap:Codec_DXT5_Swizzled.obj
 0001:00064a90       ?Compress@CCodec_DXT5_Swizzled@@UAE?AW4_CODECError@@AAVCCodecBuffer@@0P6A_NMKK@ZKK@Z 10065a90 f   bitmap:Codec_DXT5_Swizzled.obj
 0001:00064c60       ?Decompress@CCodec_DXT5_Swizzled@@UAE?AW4_CODECError@@AAVCCodecBuffer@@0@Z 10065c60 f   bitmap:Codec_DXT5_Swizzled.obj
 0001:00064da0       ??_ECCodec_DXT5_Swizzled@@UAEPAXI@Z 10065da0 f i bitmap:Codec_DXT5_Swizzled.obj
 0001:00064da0       ??_GCCodec_DXT5_Swizzled@@UAEPAXI@Z 10065da0 f i bitmap:Codec_DXT5_Swizzled.obj
 0001:00064dd0       ??0CCodec_Block@@QAE@W4_CodecType@@@Z 10065dd0 f   bitmap:Codec_Block.obj
 0001:00064df0       ??1CCodec_Block@@UAE@XZ    10065df0 f   bitmap:Codec_Block.obj
 0001:00064e00       ??_ECCodec_Block@@UAEPAXI@Z 10065e00 f i bitmap:Codec_Block.obj
 0001:00064e00       ??_GCCodec_Block@@UAEPAXI@Z 10065e00 f i bitmap:Codec_Block.obj
 0001:00064e30       ?ConstructColor@@YAKEEEEEE@Z 10065e30 f   bitmap:ATiXCodec.obj
 0001:000668d0       ?CompBlock1X@@YAMPAMGQAEPAEE_N3HH3@Z 100678d0 f   bitmap:ATiXCodec.obj
 0001:000669b0       ?CompBlock1X@@YAMPAEGQAE0E_N2HH2@Z 100679b0 f   bitmap:ATiXCodec.obj
 0001:00066d20       ?Clstr@@YAMQAKGQAY01EPAEEPAM_NEEEE@Z 10067d20 f   bitmap:ATiXCodec.obj
 0001:000670e0       ?Clstr@@YAMQAMGQAY01EPAEEPAM_NMEEE@Z 100680e0 f   bitmap:ATiXCodec.obj
 0001:0006b6e0       ?CompressRGBBlockXSSE2@@YAXQAY01MQAY03MQAMHE_NEPAMEEE@Z 1006c6e0 f   bitmap:ATiXCodec.obj
 0001:0006c8a0       ?CompRGBBlock@@YAMPAMGEEEQAY01EPAEE_N3E03M@Z 1006d8a0 f   bitmap:ATiXCodec.obj
 0001:0006ce20       ?CompRGBBlock@@YAMPAKGEEEQAY01EPAEE_N3EPAM3E@Z 1006de20 f   bitmap:ATiXCodec.obj
 0001:0006d160       ?MkWkRmpPts@@YAXPA_NQAY01M1EEE@Z 1006e160 f i bitmap:ATiXCodec.obj
 0001:0006d2c0       ?BldClrRmp@@YAXQAM0E@Z     1006e2c0 f i bitmap:ATiXCodec.obj
 0001:0006d3a0       ?SinCos@@YAXMPAM0@Z        1006e3a0 f i mathlib:mathlib_base.obj
 0001:0006d3c0       ?_sqrtf@@YAMM@Z            1006e3c0 f   mathlib:mathlib_base.obj
 0001:0006d3d0       ?_rsqrtf@@YAMM@Z           1006e3d0 f   mathlib:mathlib_base.obj
 0001:0006d3e0       ?_VectorNormalize@@YIMAAVVector@@@Z 1006e3e0 f   mathlib:mathlib_base.obj
 0001:0006d420       ?_VectorNormalizeFast@@YIXAAVVector@@@Z 1006e420 f   mathlib:mathlib_base.obj
 0001:0006d460       ?_InvRSquared@@YAMPBM@Z    1006e460 f   mathlib:mathlib_base.obj
 0001:0006d4a0       ?InitSinCosTable@@YAXXZ    1006e4a0 f   mathlib:mathlib_base.obj
 0001:0006d4f0       ?VectorTransform@@YAXPBMABUmatrix3x4_t@@PAM@Z 1006e4f0 f   mathlib:mathlib_base.obj
 0001:0006d550       ?VectorIRotate@@YAXPBMABUmatrix3x4_t@@PAM@Z 1006e550 f   mathlib:mathlib_base.obj
 0001:0006d5b0       ?MatrixGetColumn@@YAXABUmatrix3x4_t@@HAAVVector@@@Z 1006e5b0 f   mathlib:mathlib_base.obj
 0001:0006d5e0       ?ConcatTransforms@@YAXABUmatrix3x4_t@@0AAU1@@Z 1006e5e0 f   mathlib:mathlib_base.obj
 0001:0006d770       ?AngleVectors@@YAXABVQAngle@@PAVVector@@11@Z 1006e770 f   mathlib:mathlib_base.obj
 0001:0006d8a0       ?AngleMatrix@@YAXABVQAngle@@AAUmatrix3x4_t@@@Z 1006e8a0 f   mathlib:mathlib_base.obj
 0001:0006d9a0       ?ClearBounds@@YAXAAVVector@@0@Z 1006e9a0 f   mathlib:mathlib_base.obj
 0001:0006d9d0       ?AddPointToBounds@@YAXABVVector@@AAV1@1@Z 1006e9d0 f   mathlib:mathlib_base.obj
 0001:0006da40       ?SolveInverseQuadratic@@YA_NMMMMMMAAM00@Z 1006ea40 f   mathlib:mathlib_base.obj
 0001:0006db30       ?MathLib_Init@@YAXMMMH_N000@Z 1006eb30 f   mathlib:mathlib_base.obj
 0001:0006dcd0       ?AngleMatrix@@YAXABVQAngle@@ABVVector@@AAUmatrix3x4_t@@@Z 1006ecd0 f   mathlib:mathlib_base.obj
 0001:0006dd00       ?SolveInverseQuadraticMonotonic@@YA_NMMMMMMAAM00@Z 1006ed00 f   mathlib:mathlib_base.obj
 0001:0006ded0       ?TextureToLinear@@YAMH@Z   1006eed0 f   mathlib:color_conversion.obj
 0001:0006df00       ?LinearToScreenGamma@@YAHM@Z 1006ef00 f   mathlib:color_conversion.obj
 0001:0006df40       ?ColorRGBExp32ToVector@@YAXABUColorRGBExp32@@AAVVector@@@Z 1006ef40 f   mathlib:color_conversion.obj
 0001:0006dfb0       ?VectorToColorRGBExp32@@YAXABVVector@@AAUColorRGBExp32@@@Z 1006efb0 f   mathlib:color_conversion.obj
 0001:0006e070       ?BuildGammaTable@@YAXMMMH@Z 1006f070 f   mathlib:color_conversion.obj
 0001:0006e310       ?Pow_FixedPoint_Exponent_SIMD@@YA?AT__m128@@ABT1@H@Z 1006f310 f   mathlib:powsse.obj
 0001:0006e360       ??0HaltonSequenceGenerator_t@@QAE@H@Z 1006f360 f   mathlib:halton.obj
 0001:0006e380       ?GetElement@HaltonSequenceGenerator_t@@QAEMH@Z 1006f380 f   mathlib:halton.obj
 0001:0006e3c0       ?GetBumpNormals@@YAXABVVector@@000QAV1@@Z 1006f3c0 f   mathlib:bumpvects.obj
 0001:0006e4c0       ?SetupMatrixOrgAngles@VMatrix@@QAEXABVVector@@ABVQAngle@@@Z 1006f4c0 f   mathlib:vmatrix.obj
 0001:0006e5f0       ?MatrixSetIdentity@@YAXAAVVMatrix@@@Z 1006f5f0 f   mathlib:vmatrix.obj
 0001:0006e630       ?_SSE_Sqrt@@YAMM@Z         1006f630 f   mathlib:sse.obj
 0001:0006e650       ?_SSE_RSqrtAccurate@@YAMM@Z 1006f650 f   mathlib:sse.obj
 0001:0006e6a0       ?_SSE_RSqrtFast@@YAMM@Z    1006f6a0 f   mathlib:sse.obj
 0001:0006e6c0       ?_SSE_VectorNormalizeFast@@YIXAAVVector@@@Z 1006f6c0 f   mathlib:sse.obj
 0001:0006e750       ?_SSE_InvRSquared@@YAMPBM@Z 1006f750 f   mathlib:sse.obj
 0001:0006e7a0       ?_SSE_SinCos@@YAXMPAM0@Z   1006f7a0 f   mathlib:sse.obj
 0001:0006e8e0       ?_SSE_cos@@YAMM@Z          1006f8e0 f   mathlib:sse.obj
 0001:0006e9b0       ?_SSE2_SinCos@@YAXMPAM0@Z  1006f9b0 f   mathlib:sse.obj
 0001:0006ead0       ?_SSE2_cos@@YAMM@Z         1006fad0 f   mathlib:sse.obj
 0001:0006eba0       ?_3DNow_Sqrt@@YAMM@Z       1006fba0 f   mathlib:3dnow.obj
 0001:0006ebd0       ?_3DNow_RSqrt@@YAMM@Z      1006fbd0 f   mathlib:3dnow.obj
 0001:0006ebf0       ?_3DNow_VectorNormalize@@YIMAAVVector@@@Z 1006fbf0 f   mathlib:3dnow.obj
 0001:0006ec80       ?_3DNow_VectorNormalizeFast@@YIXAAVVector@@@Z 1006fc80 f   mathlib:3dnow.obj
 0001:0006ec90       ?_3DNow_InvRSquared@@YAMPBM@Z 1006fc90 f   mathlib:3dnow.obj
 0001:0006ecd0       ?CalculateDirectionSignMask@FourRays@@QBEHXZ 1006fcd0 f   raytrace:raytrace.obj
 0001:0006ed70       ?ChangeIntoIntersectionFormat@CacheOptimizedTriangle@@QAEXXZ 1006fd70 f   raytrace:raytrace.obj
 0001:0006eff0       ?ClassifyAgainstAxisSplit@CacheOptimizedTriangle@@QAEHHM@Z 1006fff0 f   raytrace:raytrace.obj
 0001:0006f090       ?Grow@?$CUtlMemory@VCMachineRecord@CTransmitRateMgr@@H@@QAEXH@Z 10070090 f i vmpi:vmpi_filesystem_master.obj
 0001:0006f090       ?Grow@?$CUtlMemory@UResourceEntryInfo@@H@@QAEXH@Z 10070090 f i vtf:vtf.obj
 0001:0006f090       ?Grow@?$CUtlMemory@UCacheOptimizedKDNode@@H@@QAEXH@Z 10070090 f i raytrace:raytrace.obj
 0001:0006f090       ?Grow@?$CUtlMemory@_KH@@QAEXH@Z 10070090 f i vmpi:vmpi_distribute_work.obj
 0001:0006f140       ?GrowVector@?$CUtlVector@UCacheOptimizedTriangle@@V?$CUtlBlockMemory@UCacheOptimizedTriangle@@H@@@@IAEXH@Z 10070140 f i raytrace:raytrace.obj
 0001:0006f1a0       ?Trace4Rays@RayTracingEnvironment@@QAEXABVFourRays@@T__m128@@1HPAURayTracingResult@@HPAVITransparentTriangleCallback@@@Z 100701a0 f   raytrace:raytrace.obj
 0001:0006f870       ?CalculateTriangleListBounds@RayTracingEnvironment@@QAEXPBHHAAVVector@@1@Z 10070870 f   raytrace:raytrace.obj
 0001:0006f990       ?CalculateCostsOfSplit@RayTracingEnvironment@@QAEMHPBHHVVector@@1AAMAAH33@Z 10070990 f   raytrace:raytrace.obj
 0001:0006fc50       ?InsertBefore@?$CUtlVector@UCacheOptimizedKDNode@@V?$CUtlMemory@UCacheOptimizedKDNode@@H@@@@QAEHHABUCacheOptimizedKDNode@@@Z 10070c50 f i raytrace:raytrace.obj
 0001:0006fc50       ?InsertBefore@?$CUtlVector@_KV?$CUtlMemory@_KH@@@@QAEHHAB_K@Z 10070c50 f i vmpi:vmpi_distribute_work.obj
 0001:0006fcc0       ?InsertBefore@?$CUtlVector@UCacheOptimizedTriangle@@V?$CUtlBlockMemory@UCacheOptimizedTriangle@@H@@@@QAEHHABUCacheOptimizedTriangle@@@Z 10070cc0 f i raytrace:raytrace.obj
 0001:0006fd60       ?Trace4Rays@RayTracingEnvironment@@QAEXABVFourRays@@T__m128@@1PAURayTracingResult@@HPAVITransparentTriangleCallback@@@Z 10070d60 f   raytrace:raytrace.obj
 0001:0006ffd0       ?AddTriangle@RayTracingEnvironment@@QAEXHABVVector@@000GH@Z 10070fd0 f   raytrace:raytrace.obj
 0001:00070080       ?RefineNode@RayTracingEnvironment@@QAEXHPBHHVVector@@1H@Z 10071080 f   raytrace:raytrace.obj
 0001:000705b0       ?SetupAccelerationStructure@RayTracingEnvironment@@QAEXXZ 100715b0 f   raytrace:raytrace.obj
 0001:000706a0       ?AddTriangle@RayTracingEnvironment@@QAEXHABVVector@@000@Z 100716a0 f   raytrace:raytrace.obj
 0001:000706d0       ?AddAxisAlignedRectangularSolid@RayTracingEnvironment@@QAEXHVVector@@0ABV2@@Z 100716d0 f   raytrace:raytrace.obj
 0001:00070a00       ?FlushStreamEntry@RayTracingEnvironment@@QAEXAAVRayStream@@H@Z 10071a00 f i raytrace:trace2.obj
 0001:00070ba0       ?AddToRayStream@RayTracingEnvironment@@QAEXAAVRayStream@@ABVVector@@1PAURayTracingSingleResult@@@Z 10071ba0 f   raytrace:trace2.obj
 0001:00070c80       ?FinishRayStream@RayTracingEnvironment@@QAEXAAVRayStream@@@Z 10071c80 f   raytrace:trace2.obj
 0001:00070e40       ?GetCStringCharConversion@@YAPAVCUtlCharConversion@@XZ 10071e40 f   tier1:utlbuffer.obj
 0001:00070e50       ?GetNoEscCharConversion@@YAPAVCUtlCharConversion@@XZ 10071e50 f   tier1:utlbuffer.obj
 0001:00070e60       ?FindConversion@CUtlCStringConversion@@UAEDPBDPAH@Z 10071e60 f   tier1:utlbuffer.obj
 0001:00070e80       ??0CUtlCharConversion@@QAE@DPBDHPAUConversionArray_t@0@@Z 10071e80 f   tier1:utlbuffer.obj
 0001:00070f20       ?FindConversion@CUtlCharConversion@@UAEDPBDPAH@Z 10071f20 f   tier1:utlbuffer.obj
 0001:00070fa0       ?SetBufferType@CUtlBuffer@@QAEX_N0@Z 10071fa0 f   tier1:utlbuffer.obj
 0001:00070fd0       ?GetOverflow@CUtlBuffer@@IAE_NH@Z 10071fd0 f   tier1:utlbuffer.obj
 0001:00070fe0       ?ActivateByteSwapping@CUtlBuffer@@QAEX_N@Z 10071fe0 f   tier1:utlbuffer.obj
 0001:00071010       ?FindConversion@CUtlNoEscConversion@@UAEDPBDPAH@Z 10072010 f i tier1:utlbuffer.obj
 0001:00071030       ?CheckGet@CUtlBuffer@@IAE_NH@Z 10072030 f   tier1:utlbuffer.obj
 0001:00071090       ?CheckArbitraryPeekGet@CUtlBuffer@@IAE_NHAAH@Z 10072090 f   tier1:utlbuffer.obj
 0001:00071100       ?PeekGet@CUtlBuffer@@QAEPBXHH@Z 10072100 f   tier1:utlbuffer.obj
 0001:00071140       ?SeekGet@CUtlBuffer@@QAEXW4SeekType_t@1@H@Z 10072140 f   tier1:utlbuffer.obj
 0001:000711a0       ?CheckPut@CUtlBuffer@@IAE_NH@Z 100721a0 f   tier1:utlbuffer.obj
 0001:000711f0       ?AddNullTermination@CUtlBuffer@@IAEXXZ 100721f0 f   tier1:utlbuffer.obj
 0001:00071240       ?ConvertToGrowableMemory@?$CUtlMemory@EH@@QAEXH@Z 10072240 f i tier1:utlbuffer.obj
 0001:00071290       ?EnsureCapacity@CUtlBuffer@@QAEXH@Z 10072290 f   tier1:utlbuffer.obj
 0001:000712f0       ?Get@CUtlBuffer@@QAEXPAXH@Z 100722f0 f   tier1:utlbuffer.obj
 0001:00071360       ?EatWhiteSpace@CUtlBuffer@@QAEXXZ 10072360 f   tier1:utlbuffer.obj
 0001:000713c0       ?PeekWhiteSpace@CUtlBuffer@@IAEHH@Z 100723c0 f   tier1:utlbuffer.obj
 0001:00071460       ?PeekStringLength@CUtlBuffer@@QAEHXZ 10072460 f   tier1:utlbuffer.obj
 0001:000715b0       ?PeekStringMatch@CUtlBuffer@@IAE_NHPBDH@Z 100725b0 f   tier1:utlbuffer.obj
 0001:00071610       ?Put@CUtlBuffer@@QAEXPBXH@Z 10072610 f   tier1:utlbuffer.obj
 0001:00071680       ?PutOverflow@CUtlBuffer@@IAE_NH@Z 10072680 f   tier1:utlbuffer.obj
 0001:000716d0       ?SeekPut@CUtlBuffer@@QAEXW4SeekType_t@1@H@Z 100726d0 f   tier1:utlbuffer.obj
 0001:00071750       ??0CUtlBuffer@@QAE@HHH@Z   10072750 f   tier1:utlbuffer.obj
 0001:000717d0       ??0CUtlBuffer@@QAE@PBXHH@Z 100727d0 f   tier1:utlbuffer.obj
 0001:00071850       ?PutString@CUtlBuffer@@QAEXPBD@Z 10072850 f   tier1:utlbuffer.obj
 0001:00071930       ?Printf@CUtlBuffer@@QAAXPBDZZ 10072930 f   tier1:utlbuffer.obj
 0001:00071970       ?EatCPPComment@CUtlBuffer@@QAE_NXZ 10072970 f   tier1:utlbuffer.obj
 0001:000719e0       ?GetString@CUtlBuffer@@QAEXPADH@Z 100729e0 f   tier1:utlbuffer.obj
 0001:00071ab0       ?GetDelimitedCharInternal@CUtlBuffer@@IAEDPAVCUtlCharConversion@@@Z 10072ab0 f   tier1:utlbuffer.obj
 0001:00071b70       ?GetDelimitedString@CUtlBuffer@@QAEXPAVCUtlCharConversion@@PADH@Z 10072b70 f   tier1:utlbuffer.obj
 0001:00071ce0       ?VaScanf@CUtlBuffer@@QAEHPBDPAD@Z 10072ce0 f   tier1:utlbuffer.obj
 0001:00071f90       ?Scanf@CUtlBuffer@@QAAHPBDZZ 10072f90 f   tier1:utlbuffer.obj
 0001:00071fb0       ?ReportError@CKeyValuesErrorStack@@QAEXPBD@Z 10072fb0 f i tier1:KeyValues.obj
 0001:00072050       ?GetName@KeyValues@@QBEPBDXZ 10073050 f   tier1:KeyValues.obj
 0001:00072070       ?ReadToken@KeyValues@@AAEPBDAAVCUtlBuffer@@AA_N1@Z 10073070 f   tier1:KeyValues.obj
 0001:00072200       ?RemoveSubKey@KeyValues@@QAEXPAV1@@Z 10073200 f   tier1:KeyValues.obj
 0001:00072260       ?GetFirstValue@KeyValues@@QAEPAV1@XZ 10073260 f   tier1:KeyValues.obj
 0001:00072280       ?GetNextValue@KeyValues@@QAEPAV1@XZ 10073280 f   tier1:KeyValues.obj
 0001:000722a0       ??2KeyValues@@SAPAXI@Z     100732a0 f   tier1:KeyValues.obj
 0001:000722c0       ??0KeyValues@@QAE@PBD@Z    100732c0 f   tier1:KeyValues.obj
 0001:00072310       ?LoadFromFile@KeyValues@@QAE_NPAVIBaseFileSystem@@PBD1@Z 10073310 f   tier1:KeyValues.obj
 0001:00072440       ?FindKey@KeyValues@@QAEPAV1@PBD_N@Z 10073440 f   tier1:KeyValues.obj
 0001:00072560       ?GetInt@KeyValues@@QAEHPBDH@Z 10073560 f   tier1:KeyValues.obj
 0001:000725e0       ?SetString@KeyValues@@QAEXPBD0@Z 100735e0 f   tier1:KeyValues.obj
 0001:00072650       ?MakeCopy@KeyValues@@QBEPAV1@XZ 10073650 f   tier1:KeyValues.obj
 0001:00072800       ?deleteThis@KeyValues@@QAEXXZ 10073800 f   tier1:KeyValues.obj
 0001:00072820       ?RecursiveMergeKeyValues@KeyValues@@AAEXPAV1@@Z 10073820 f   tier1:KeyValues.obj
 0001:000728f0       ?RemoveEverything@KeyValues@@AAEXXZ 100738f0 f   tier1:KeyValues.obj
 0001:00072990       ?CreateKey@KeyValues@@AAEPAV1@PBD@Z 10073990 f   tier1:KeyValues.obj
 0001:00072a20       ?GetString@KeyValues@@QAEPBDPBD0@Z 10073a20 f   tier1:KeyValues.obj
 0001:00072b60       ?AppendIncludedKeys@KeyValues@@AAEXAAV?$CUtlVector@PAVKeyValues@@V?$CUtlMemory@PAVKeyValues@@H@@@@@Z 10073b60 f   tier1:KeyValues.obj
 0001:00072bb0       ?MergeBaseKeys@KeyValues@@AAEXAAV?$CUtlVector@PAVKeyValues@@V?$CUtlMemory@PAVKeyValues@@H@@@@@Z 10073bb0 f   tier1:KeyValues.obj
 0001:00072cb0       ?RecursiveLoadFromBuffer@KeyValues@@AAEXPBDAAVCUtlBuffer@@@Z 10073cb0 f   tier1:KeyValues.obj
 0001:00073090       ?ParseIncludedKeys@KeyValues@@AAEXPBD0PAVIBaseFileSystem@@0AAV?$CUtlVector@PAVKeyValues@@V?$CUtlMemory@PAVKeyValues@@H@@@@@Z 10074090 f   tier1:KeyValues.obj
 0001:00073220       ?LoadFromBuffer@KeyValues@@QAE_NPBDAAVCUtlBuffer@@PAVIBaseFileSystem@@0@Z 10074220 f   tier1:KeyValues.obj
 0001:00073560       ?LoadFromBuffer@KeyValues@@QAE_NPBD0PAVIBaseFileSystem@@0@Z 10074560 f   tier1:KeyValues.obj
 0001:000735e0       ?V_strncmp@@YAHPBD0H@Z     100745e0 f   tier1:strtools.obj
 0001:00073630       ?V_strncasecmp@@YAHPBD0H@Z 10074630 f   tier1:strtools.obj
 0001:000736b0       ?V_strcasecmp@@YAHPBD0@Z   100746b0 f   tier1:strtools.obj
 0001:000736f0       ?V_strnicmp@@YAHPBD0H@Z    100746f0 f   tier1:strtools.obj
 0001:00073730       ?V_stristr@@YAPBDPBD0@Z    10074730 f   tier1:strtools.obj
 0001:000737f0       ?V_stristr@@YAPADPADPBD@Z  100747f0 f   tier1:strtools.obj
 0001:00073830       ?V_strncat@@YAPADPADPBDIH@Z 10074830 f   tier1:strtools.obj
 0001:000738c0       ?V_StripTrailingSlash@@YAXPAD@Z 100748c0 f   tier1:strtools.obj
 0001:00073900       ?V_DefaultExtension@@YAXPADPBDH@Z 10074900 f   tier1:strtools.obj
 0001:000739b0       ?V_StripFilename@@YAXPAD@Z 100749b0 f   tier1:strtools.obj
 0001:000739f0       ?V_FixSlashes@@YAXPADD@Z   100749f0 f   tier1:strtools.obj
 0001:00073a20       ?V_UnqualifiedFileName@@YAPBDPBD@Z 10074a20 f   tier1:strtools.obj
 0001:00073a60       ?V_ExtractFilePath@@YA_NPBDPADH@Z 10074a60 f   tier1:strtools.obj
 0001:00073ad0       ?V_RemoveDotSlashes@@YA_NPADD@Z 10074ad0 f   tier1:strtools.obj
 0001:00073c20       ?V_AppendSlash@@YAXPADH@Z  10074c20 f   tier1:strtools.obj
 0001:00073c70       ?V_IsAbsolutePath@@YA_NPBD@Z 10074c70 f   tier1:strtools.obj
 0001:00073ca0       ?V_StrSlice@@YAXPBDHHPADH@Z 10074ca0 f   tier1:strtools.obj
 0001:00073d50       ?V_strncpy@@YAXPADPBDH@Z   10074d50 f   tier1:strtools.obj
 0001:00073d90       ?V_snprintf@@YAHPADHPBDZZ  10074d90 f   tier1:strtools.obj
 0001:00073de0       ?V_vsnprintf@@YAHPADHPBD0@Z 10074de0 f   tier1:strtools.obj
 0001:00073e30       ?V_FileBase@@YAXPBDPADH@Z  10074e30 f   tier1:strtools.obj
 0001:00073f00       ?V_StripExtension@@YAXPBDPADH@Z 10074f00 f   tier1:strtools.obj
 0001:00073fb0       ?V_SetExtension@@YAXPADPBDH@Z 10074fb0 f   tier1:strtools.obj
 0001:00073fe0       ?V_StripLastDir@@YA_NPADH@Z 10074fe0 f   tier1:strtools.obj
 0001:00074090       ?V_ComposeFileName@@YAXPBD0PADH@Z 10075090 f   tier1:strtools.obj
 0001:00074190       ?V_ExtractFileExtension@@YAXPBDPADH@Z 10075190 f   tier1:strtools.obj
 0001:00074210       ?V_MakeAbsolutePath@@YAXPADHPBD1@Z 10075210 f   tier1:strtools.obj
 0001:000743b0       ?V_StrRight@@YAXPBDHPADH@Z 100753b0 f   tier1:strtools.obj
 0001:00074440       ?V_SplitString2@@YAXPBDPAPBDHAAV?$CUtlVector@PADV?$CUtlMemory@PADH@@@@@Z 10075440 f   tier1:strtools.obj
 0001:00074670       ?V_SplitString@@YAXPBD0AAV?$CUtlVector@PADV?$CUtlMemory@PADH@@@@@Z 10075670 f   tier1:strtools.obj
 0001:00074690       ??0InterfaceReg@@QAE@P6APAXXZPBD@Z 10075690 f   tier1:interface.obj
 0001:000746c0       _CreateInterface           100756c0 f   tier1:interface.obj
 0001:00074730       ?ThreadedLoadLibraryFunc@@YAIPAX@Z 10075730 f   tier1:interface.obj
 0001:00074750       ?Sys_LoadLibrary@@YAPAUHINSTANCE__@@PBD@Z 10075750 f   tier1:interface.obj
 0001:00074850       ?Sys_LoadModule@@YAPAVCSysModule@@PBD@Z 10075850 f   tier1:interface.obj
 0001:00074970       ?Sys_UnloadModule@@YAXPAVCSysModule@@@Z 10075970 f   tier1:interface.obj
 0001:00074990       ?Sys_GetFactory@@YAP6APAXPBDPAH@ZPAVCSysModule@@@Z 10075990 f   tier1:interface.obj
 0001:000749b0       ?Sys_GetFactoryThis@@YAP6APAXPBDPAH@ZXZ 100759b0 f   tier1:interface.obj
 0001:000749c0       ?Sys_LoadInterface@@YA_NPBD0PAPAVCSysModule@@PAPAX@Z 100759c0 f   tier1:interface.obj
 0001:00074a20       ?NewNode@?$CUtlRBTree@VCStringPoolIndex@CUtlSymbolTable@@GVCLess@2@V?$CUtlMemory@U?$UtlRBTreeNode_t@VCStringPoolIndex@CUtlSymbolTable@@G@@G@@@@QAEGXZ 10075a20 f i tier1:utlsymbol.obj
 0001:00074b10       ?Parent@?$CUtlRBTree@VCStringPoolIndex@CUtlSymbolTable@@GVCLess@2@V?$CUtlMemory@U?$UtlRBTreeNode_t@VCStringPoolIndex@CUtlSymbolTable@@G@@G@@@@QBEGG@Z 10075b10 f i tier1:utlsymbol.obj
 0001:00074b80       ??RCLess@CUtlSymbolTable@@QBE_NABVCStringPoolIndex@1@0@Z 10075b80 f   tier1:utlsymbol.obj
 0001:00074c30       ?LeftChild@?$CUtlRBTree@VCStringPoolIndex@CUtlSymbolTable@@GVCLess@2@V?$CUtlMemory@U?$UtlRBTreeNode_t@VCStringPoolIndex@CUtlSymbolTable@@G@@G@@@@QBEGG@Z 10075c30 f i tier1:utlsymbol.obj
 0001:00074c90       ?RightChild@?$CUtlRBTree@VCStringPoolIndex@CUtlSymbolTable@@GVCLess@2@V?$CUtlMemory@U?$UtlRBTreeNode_t@VCStringPoolIndex@CUtlSymbolTable@@G@@G@@@@QBEGG@Z 10075c90 f i tier1:utlsymbol.obj
 0001:00074d00       ?FindInsertionPosition@?$CUtlRBTree@VCStringPoolIndex@CUtlSymbolTable@@GVCLess@2@V?$CUtlMemory@U?$UtlRBTreeNode_t@VCStringPoolIndex@CUtlSymbolTable@@G@@G@@@@IAEXABVCStringPoolIndex@CUtlSymbolTable@@AAGAA_N@Z 10075d00 f i tier1:utlsymbol.obj
 0001:00074df0       ?RotateLeft@?$CUtlRBTree@VCStringPoolIndex@CUtlSymbolTable@@GVCLess@2@V?$CUtlMemory@U?$UtlRBTreeNode_t@VCStringPoolIndex@CUtlSymbolTable@@G@@G@@@@IAEXG@Z 10075df0 f i tier1:utlsymbol.obj
 0001:00074ef0       ?RotateRight@?$CUtlRBTree@VCStringPoolIndex@CUtlSymbolTable@@GVCLess@2@V?$CUtlMemory@U?$UtlRBTreeNode_t@VCStringPoolIndex@CUtlSymbolTable@@G@@G@@@@IAEXG@Z 10075ef0 f i tier1:utlsymbol.obj
 0001:00074ff0       ?Find@?$CUtlRBTree@VCStringPoolIndex@CUtlSymbolTable@@GVCLess@2@V?$CUtlMemory@U?$UtlRBTreeNode_t@VCStringPoolIndex@CUtlSymbolTable@@G@@G@@@@QBEGABVCStringPoolIndex@CUtlSymbolTable@@@Z 10075ff0 f i tier1:utlsymbol.obj
 0001:000750f0       ?RemoveAll@?$CUtlRBTree@VCStringPoolIndex@CUtlSymbolTable@@GVCLess@2@V?$CUtlMemory@U?$UtlRBTreeNode_t@VCStringPoolIndex@CUtlSymbolTable@@G@@G@@@@QAEXXZ 100760f0 f i tier1:utlsymbol.obj
 0001:000751b0       ?InsertRebalance@?$CUtlRBTree@VCStringPoolIndex@CUtlSymbolTable@@GVCLess@2@V?$CUtlMemory@U?$UtlRBTreeNode_t@VCStringPoolIndex@CUtlSymbolTable@@G@@G@@@@IAEXG@Z 100761b0 f i tier1:utlsymbol.obj
 0001:00075760       ?String@CUtlSymbolTableMT@@QBEPBDVCUtlSymbol@@@Z 10076760 f i tier1:utlsymbol.obj
 0001:000757d0       ?Find@CUtlSymbolTable@@QBE?AVCUtlSymbol@@PBD@Z 100767d0 f   tier1:utlsymbol.obj
 0001:00075810       ?LinkToParent@?$CUtlRBTree@VCStringPoolIndex@CUtlSymbolTable@@GVCLess@2@V?$CUtlMemory@U?$UtlRBTreeNode_t@VCStringPoolIndex@CUtlSymbolTable@@G@@G@@@@IAEXGG_N@Z 10076810 f i tier1:utlsymbol.obj
 0001:00075890       ?RemoveAll@CUtlSymbolTable@@QAEXXZ 10076890 f   tier1:utlsymbol.obj
 0001:00075910       ??1?$CUtlRBTree@VCStringPoolIndex@CUtlSymbolTable@@GVCLess@2@V?$CUtlMemory@U?$UtlRBTreeNode_t@VCStringPoolIndex@CUtlSymbolTable@@G@@G@@@@QAE@XZ 10076910 f i tier1:utlsymbol.obj
 0001:00075980       ??1CUtlSymbolTable@@QAE@XZ 10076980 f   tier1:utlsymbol.obj
 0001:000759a0       ?Insert@?$CUtlRBTree@VCStringPoolIndex@CUtlSymbolTable@@GVCLess@2@V?$CUtlMemory@U?$UtlRBTreeNode_t@VCStringPoolIndex@CUtlSymbolTable@@G@@G@@@@QAEGABVCStringPoolIndex@CUtlSymbolTable@@@Z 100769a0 f i tier1:utlsymbol.obj
 0001:00075a00       ??0CUtlSymbolTable@@QAE@HH_N@Z 10076a00 f   tier1:utlsymbol.obj
 0001:00075a70       ?AddString@CUtlSymbolTable@@QAE?AVCUtlSymbol@@PBD@Z 10076a70 f   tier1:utlsymbol.obj
 0001:00075bf0       ?Initialize@CUtlSymbol@@KAXXZ 10076bf0 f   tier1:utlsymbol.obj
 0001:00075c90       ??0CUtlSymbol@@QAE@PBD@Z   10076c90 f   tier1:utlsymbol.obj
 0001:00075ce0       ?String@CUtlSymbol@@QBEPBDXZ 10076ce0 f   tier1:utlsymbol.obj
 0001:00075d00       ?Length@CUtlString@@QBEHXZ 10076d00 f   tier1:utlstring.obj
 0001:00075d10       ?Get@CUtlString@@QBEPBDXZ  10076d10 f   tier1:utlstring.obj
 0001:00075d20       ?Set@CUtlBinaryBlock@@QAEXPBXH@Z 10076d20 f   tier1:utlstring.obj
 0001:00075da0       ?Set@CUtlString@@QAEXPBD@Z 10076da0 f   tier1:utlstring.obj
 0001:00075de0       ??4CUtlString@@QAEAAV0@ABV0@@Z 10076de0 f   tier1:utlstring.obj
 0001:00075e00       ??4CUtlString@@QAEAAV0@PBD@Z 10076e00 f   tier1:utlstring.obj
 0001:00075e50       ??0CUtlString@@QAE@XZ      10076e50 f   tier1:utlstring.obj
 0001:00075e60       ?SwapFieldsToTargetEndian@CByteswap@@QAEXPAX0PAUdatamap_t@@@Z 10076e60 f   tier1:byteswap.obj
 0001:00076020       ?CRC32_Init@@YAXPAK@Z      10077020 f   tier1:checksum_crc.obj
 0001:00076030       ?CRC32_Final@@YAXPAK@Z     10077030 f   tier1:checksum_crc.obj
 0001:00076040       ?CRC32_ProcessBuffer@@YAXPAKPBXH@Z 10077040 f   tier1:checksum_crc.obj
 0001:00076210       ?Error@TokenReader@@QAAPBDPADZZ 10077210 f   tier1:tokenreader.obj
 0001:00076260       ??_E?$basic_ios@DU?$char_traits@D@std@@@std@@UAEPAXI@Z 10077260 f i tier1:tokenreader.obj
 0001:00076260       ??_Gios_base@std@@UAEPAXI@Z 10077260 f i chunkfile.obj
 0001:00076260       ??_Eios_base@std@@UAEPAXI@Z 10077260 f i chunkfile.obj
 0001:00076260       ??_G?$basic_ios@DU?$char_traits@D@std@@@std@@UAEPAXI@Z 10077260 f i tier1:tokenreader.obj
 0001:00076290       ?do_tolower@?$ctype@D@std@@MBEDD@Z 10077290 f i tier1:tokenreader.obj
 0001:000762b0       ?do_tolower@?$ctype@D@std@@MBEPBDPADPBD@Z 100772b0 f i tier1:tokenreader.obj
 0001:000762e0       ?do_toupper@?$ctype@D@std@@MBEDD@Z 100772e0 f i tier1:tokenreader.obj
 0001:00076300       ?do_toupper@?$ctype@D@std@@MBEPBDPADPBD@Z 10077300 f i tier1:tokenreader.obj
 0001:00076330       ?do_widen@?$ctype@D@std@@MBEDD@Z 10077330 f i tier1:tokenreader.obj
 0001:00076340       ?do_widen@?$ctype@D@std@@MBEPBDPBD0PAD@Z 10077340 f i tier1:tokenreader.obj
 0001:00076370       ?do_narrow@?$ctype@D@std@@MBEDDD@Z 10077370 f i tier1:tokenreader.obj
 0001:00076380       ?do_narrow@?$ctype@D@std@@MBEPBDPBD0DPAD@Z 10077380 f i tier1:tokenreader.obj
 0001:000763b0       ??_G?$ctype@D@std@@MAEPAXI@Z 100773b0 f i tier1:tokenreader.obj
 0001:000763b0       ??_E?$ctype@D@std@@MAEPAXI@Z 100773b0 f i tier1:tokenreader.obj
 0001:00076400       ??_Efailure@ios_base@std@@UAEPAXI@Z 10077400 f i tier1:tokenreader.obj
 0001:00076400       ??_Gsystem_error@std@@UAEPAXI@Z 10077400 f i tier1:tokenreader.obj
 0001:00076400       ??_Esystem_error@std@@UAEPAXI@Z 10077400 f i tier1:tokenreader.obj
 0001:00076400       ??_Eruntime_error@std@@UAEPAXI@Z 10077400 f i chunkfile.obj
 0001:00076400       ??_Gruntime_error@std@@UAEPAXI@Z 10077400 f i chunkfile.obj
 0001:00076400       ??_Gfailure@ios_base@std@@UAEPAXI@Z 10077400 f i tier1:tokenreader.obj
 0001:00076430       ??1runtime_error@std@@UAE@XZ 10077430 f i chunkfile.obj
 0001:00076430       ??1failure@ios_base@std@@UAE@XZ 10077430 f i tier1:tokenreader.obj
 0001:00076440       ?clear@ios_base@std@@QAEXH_N@Z 10077440 f i tier1:tokenreader.obj
 0001:00076520       ??0system_error@std@@QAE@ABV01@@Z 10077520 f i tier1:tokenreader.obj
 0001:00076550       ?_Init@ios_base@std@@IAEXXZ 10077550 f i tier1:tokenreader.obj
 0001:000765e0       ??0failure@ios_base@std@@QAE@ABV012@@Z 100775e0 f i tier1:tokenreader.obj
 0001:00076610       ?setstate@?$basic_ios@DU?$char_traits@D@std@@@std@@QAEXH_N@Z 10077610 f i tier1:tokenreader.obj
 0001:00076640       ?sgetc@?$basic_streambuf@DU?$char_traits@D@std@@@std@@QAEHXZ 10077640 f i tier1:tokenreader.obj
 0001:00076660       ?sbumpc@?$basic_streambuf@DU?$char_traits@D@std@@@std@@QAEHXZ 10077660 f i tier1:tokenreader.obj
 0001:00076690       ?sputbackc@?$basic_streambuf@DU?$char_traits@D@std@@@std@@QAEHD@Z 10077690 f i tier1:tokenreader.obj
 0001:000766d0       ?_Getcat@?$ctype@D@std@@SAIPAPBVfacet@locale@2@PBV42@@Z 100776d0 f i tier1:tokenreader.obj
 0001:00076770       ?flush@?$basic_ostream@DU?$char_traits@D@std@@@std@@QAEAAV12@XZ 10077770 f i tier1:tokenreader.obj
 0001:000767c0       ?snextc@?$basic_streambuf@DU?$char_traits@D@std@@@std@@QAEHXZ 100777c0 f i tier1:tokenreader.obj
 0001:00076840       ??0?$basic_streambuf@DU?$char_traits@D@std@@@std@@IAE@XZ 10077840 f i tier1:tokenreader.obj
 0001:00076900       ??$use_facet@V?$ctype@D@std@@@std@@YAABV?$ctype@D@0@ABVlocale@0@@Z 10077900 f i tier1:tokenreader.obj
 0001:00076a00       ?_Ipfx@?$basic_istream@DU?$char_traits@D@std@@@std@@QAE_N_N@Z 10077a00 f i tier1:tokenreader.obj
 0001:00076b80       ?widen@?$basic_ios@DU?$char_traits@D@std@@@std@@QBEDD@Z 10077b80 f i tier1:tokenreader.obj
 0001:00076c10       ?open@?$basic_filebuf@DU?$char_traits@D@std@@@std@@QAEPAV12@PBDHH@Z 10077c10 f i tier1:tokenreader.obj
 0001:00076cc0       ?get@?$basic_istream@DU?$char_traits@D@std@@@std@@QAEHXZ 10077cc0 f i tier1:tokenreader.obj
 0001:00076df0       ?get@?$basic_istream@DU?$char_traits@D@std@@@std@@QAEAAV12@PAD_JD@Z 10077df0 f i tier1:tokenreader.obj
 0001:00076f60       ?ignore@?$basic_istream@DU?$char_traits@D@std@@@std@@QAEAAV12@_JH@Z 10077f60 f i tier1:tokenreader.obj
 0001:000770b0       ?peek@?$basic_istream@DU?$char_traits@D@std@@@std@@QAEHXZ 100780b0 f i tier1:tokenreader.obj
 0001:000771d0       ?putback@?$basic_istream@DU?$char_traits@D@std@@@std@@QAEAAV12@D@Z 100781d0 f i tier1:tokenreader.obj
 0001:000772e0       ?Open@TokenReader@@QAE_NPBD@Z 100782e0 f   tier1:tokenreader.obj
 0001:00077370       ?SkipWhiteSpace@TokenReader@@AAE_NXZ 10078370 f   tier1:tokenreader.obj
 0001:00077400       ?GetString@TokenReader@@AAE?AW4trtoken_t@@PADH@Z 10078400 f   tier1:tokenreader.obj
 0001:00077550       ?NextToken@TokenReader@@QAE?AW4trtoken_t@@PADH@Z 10078550 f   tier1:tokenreader.obj
 0001:00077770       ??0?$basic_ifstream@DU?$char_traits@D@std@@@std@@QAE@XZ 10078770 f i tier1:tokenreader.obj
 0001:00077860       ??0TokenReader@@QAE@XZ     10078860 f   tier1:tokenreader.obj
 0001:000778c0       ??_GTokenReader@@UAEPAXI@Z 100788c0 f i tier1:tokenreader.obj
 0001:000778c0       ??_ETokenReader@@UAEPAXI@Z 100788c0 f i tier1:tokenreader.obj
 0001:00077900       ?SetupLightNormalFromProps@@YAXABVQAngle@@MMAAVVector@@@Z 10078900 f   tier2:map_utils.obj
 0001:000779d0       ?FileSystem_SetupStandardDirectories@@YAXPBD0@Z 100789d0 f   vmpi:filesystem_tools.obj
 0001:00077a50       ?FileSystem_Init_Normal@@YA_NPBDW4FSInitType_t@@_N@Z 10078a50 f   vmpi:filesystem_tools.obj
 0001:00077c60       ?FileSystem_Init@@YA_NPBDHW4FSInitType_t@@_N@Z 10078c60 f   vmpi:filesystem_tools.obj
 0001:00077d30       ?FileSystem_Term@@YAXXZ    10078d30 f   vmpi:filesystem_tools.obj
 0001:00077d90       ??0MessageBuffer@@QAE@XZ   10078d90 f   vmpi:messbuf.obj
 0001:00077dc0       ??1MessageBuffer@@QAE@XZ   10078dc0 f   vmpi:messbuf.obj
 0001:00077dd0       ?setOffset@MessageBuffer@@QAEHH@Z 10078dd0 f   vmpi:messbuf.obj
 0001:00077df0       ?read@MessageBuffer@@QAEHPAXH@Z 10078df0 f   vmpi:messbuf.obj
 0001:00077e30       ?ReadString@MessageBuffer@@QAEHPADH@Z 10078e30 f   vmpi:messbuf.obj
 0001:00077e90       ?resize@MessageBuffer@@AAEXH@Z 10078e90 f   vmpi:messbuf.obj
 0001:00077ed0       ?setLen@MessageBuffer@@QAEHH@Z 10078ed0 f   vmpi:messbuf.obj
 0001:00077f00       ?write@MessageBuffer@@QAEHPBXH@Z 10078f00 f   vmpi:messbuf.obj
 0001:00077f70       ?update@MessageBuffer@@QAEHHPBXH@Z 10078f70 f   vmpi:messbuf.obj
 0001:00077ff0       ?WriteString@MessageBuffer@@QAEHPBD@Z 10078ff0 f   vmpi:messbuf.obj
 0001:00078020       ?Push@CTSListBase@@QAEPAUTSLNodeBase_t@@PAU2@@Z 10079020 f i vmpi:vmpi.obj
 0001:00078090       ?Pop@CTSListBase@@QAEPAUTSLNodeBase_t@@XZ 10079090 f i vmpi:vmpi.obj
 0001:000780d0       ?Detach@CTSListBase@@QAEPAUTSLNodeBase_t@@XZ 100790d0 f i vmpi:vmpi.obj
 0001:00078110       ?VMPI_FindArg@@YAPBDHPAPADPBD1@Z 10079110 f   vmpi:vmpi.obj
 0001:00078160       ?SetupDependencyFilename@@YAXPAVCDependencyInfo@@PBD@Z 10079160 f   vmpi:vmpi.obj
 0001:00078270       ?Term@CMasterBroadcaster@@QAEXXZ 10079270 f   vmpi:vmpi.obj
 0001:00078300       ??0CDispatchReg@@QAE@HP6A_NPAVMessageBuffer@@HH@Z@Z 10079300 f   vmpi:vmpi.obj
 0001:00078320       ?VMPI_InitGlobals@@YAXHPAPADW4VMPIRunMode@@@Z 10079320 f   vmpi:vmpi.obj
 0001:00078380       ?VMPI_CheckForNonSDKExecutables@@YA_NXZ 10079380 f   vmpi:vmpi.obj
 0001:00078400       ?VMPI_GetRunMode@@YA?AW4VMPIRunMode@@XZ 10079400 f   vmpi:vmpi.obj
 0001:00078410       ?VMPI_GetFileSystemMode@@YA?AW4VMPIFileSystemMode@@XZ 10079410 f   vmpi:vmpi.obj
 0001:00078420       ?VMPI_GetCurrentNumberOfConnections@@YAHXZ 10079420 f   vmpi:vmpi.obj
 0001:00078430       ?VMPI_IsProcConnected@@YA_NH@Z 10079430 f   vmpi:vmpi.obj
 0001:00078460       ?VMPI_Sleep@@YAXK@Z        10079460 f   vmpi:vmpi.obj
 0001:00078470       ?VMPI_GetJobWorkerID@@YAKH@Z 10079470 f   vmpi:vmpi.obj
 0001:00078480       ?VMPI_GetCurrentStage@@YAXPADH@Z 10079480 f   vmpi:vmpi.obj
 0001:000784c0       ?VMPI_SetCurrentStage@@YAXPBD@Z 100794c0 f   vmpi:vmpi.obj
 0001:00078500       ?VMPI_IsSDKMode@@YA_NXZ    10079500 f   vmpi:vmpi.obj
 0001:00078520       ?VMPI_GetParamString@@YAPBDW4EVMPICmdLineParam@@@Z 10079520 f   vmpi:vmpi.obj
 0001:00078550       ?VMPI_IsParamUsed@@YA_NW4EVMPICmdLineParam@@@Z 10079550 f   vmpi:vmpi.obj
 0001:000785b0       ?Grow@?$CUtlMemory@PAVCDependencyFile@CDependencyInfo@@H@@QAEXH@Z 100795b0 f i vmpi:vmpi.obj
 0001:000785b0       ?Grow@?$CUtlMemory@PAVCVMPIConnection@@H@@QAEXH@Z 100795b0 f i vmpi:vmpi.obj
 0001:000785b0       ?Grow@?$CUtlMemory@VS3RGBA@@H@@QAEXH@Z 100795b0 f i vtf:vtf.obj
 0001:000785b0       ?Grow@?$CUtlMemory@PAXH@@QAEXH@Z 100795b0 f i vmpi:vmpi.obj
 0001:000785b0       ?Grow@?$CUtlMemory@PAVCTCPPacket@@H@@QAEXH@Z 100795b0 f i vmpi:vmpi.obj
 0001:00078660       ?ParseOptions@@YAXHPAPAD@Z 10079660 f   vmpi:vmpi.obj
 0001:000787b0       ?CountActiveConnections@@YAXPAH0@Z 100797b0 f   vmpi:vmpi.obj
 0001:00078810       ?UpdateActiveConnectionsText@@YAXXZ 10079810 f   vmpi:vmpi.obj
 0001:000788b0       ?SpawnLocalWorker@@YA_NHPAPADH_N@Z 100798b0 f   vmpi:vmpi.obj
 0001:00078ab0       ?Next@?$CUtlMemory@U?$UtlLinkedListElem_t@PAV?$CUtlVector@DV?$CUtlMemory@DH@@@@G@@G@@QBE?AVIterator_t@1@ABV21@@Z 10079ab0 f i vmpi:vmpi.obj
 0001:00078ab0       ?Next@?$CUtlMemory@U?$UtlRBTreeNode_t@UNode_t@?$CUtlMap@PAV?$CUtlLinkedList@_KH$0A@HV?$CUtlMemory@U?$UtlLinkedListElem_t@_KH@@H@@@@HG@@G@@G@@QBE?AVIterator_t@1@ABV21@@Z 10079ab0 f i vmpi:vmpi_distribute_work_default.obj
 0001:00078af0       ?Grow@?$CUtlMemory@U?$UtlLinkedListElem_t@PAV?$CUtlVector@DV?$CUtlMemory@DH@@@@G@@G@@QAEXH@Z 10079af0 f i vmpi:vmpi.obj
 0001:00078bc0       ?BuildBroadcastPacket@CMasterBroadcaster@@AAEXAAVbf_write@@@Z 10079bc0 f   vmpi:vmpi.obj
 0001:00078ce0       ?IsValidSDKBinPath@@YA_NAAV?$CUtlVector@PADV?$CUtlMemory@PADH@@@@PAH@Z 10079ce0 f   vmpi:vmpi.obj
 0001:00078f70       ?VMPI_GetMachineName@@YAPBDH@Z 10079f70 f   vmpi:vmpi.obj
 0001:00078fd0       ?PurgeAndDeleteElements@?$CUtlVector@PADV?$CUtlMemory@PADH@@@@QAEXXZ 10079fd0 f i vmpi:vmpi.obj
 0001:00079040       ?RemoveAll@?$CUtlLinkedList@PAV?$CUtlVector@DV?$CUtlMemory@DH@@@@G$0A@GV?$CUtlMemory@U?$UtlLinkedListElem_t@PAV?$CUtlVector@DV?$CUtlMemory@DH@@@@G@@G@@@@QAEXXZ 1007a040 f i vmpi:vmpi.obj
 0001:000790b0       ?AllocInternal@?$CUtlLinkedList@PAV?$CUtlVector@DV?$CUtlMemory@DH@@@@G$0A@GV?$CUtlMemory@U?$UtlLinkedListElem_t@PAV?$CUtlVector@DV?$CUtlMemory@DH@@@@G@@G@@@@IAEG_N@Z 1007a0b0 f i vmpi:vmpi.obj
 0001:000791d0       ?InsertMultipleBefore@?$CUtlVector@PADV?$CUtlMemory@PADH@@@@QAEHHHPBQAD@Z 1007a1d0 f i vmpi:vmpi.obj
 0001:00079270       ?HandleDisconnect@CVMPIConnection@@QAEXXZ 1007a270 f i vmpi:vmpi.obj
 0001:00079320       ?VMPI_HandleAutoRestart@@YA_NXZ 1007a320 f   vmpi:vmpi.obj
 0001:00079480       ?VMPI_FlushGroupedPackets@@YAXK@Z 1007a480 f   vmpi:vmpi.obj
 0001:00079540       ?InsertBefore@?$CUtlVector@PAVCTCPPacket@@V?$CUtlMemory@PAVCTCPPacket@@H@@@@QAEHHABQAVCTCPPacket@@@Z 1007a540 f i vmpi:vmpi.obj
 0001:00079540       ?InsertBefore@?$CUtlVector@PAVCDependencyFile@CDependencyInfo@@V?$CUtlMemory@PAVCDependencyFile@CDependencyInfo@@H@@@@QAEHHABQAVCDependencyFile@CDependencyInfo@@@Z 1007a540 f i vmpi:vmpi.obj
 0001:00079540       ?InsertBefore@?$CUtlVector@PAXV?$CUtlMemory@PAXH@@@@QAEHHABQAX@Z 1007a540 f i vmpi:vmpi.obj
 0001:000795b0       ?Unlink@?$CUtlLinkedList@PAV?$CUtlVector@DV?$CUtlMemory@DH@@@@G$0A@GV?$CUtlMemory@U?$UtlLinkedListElem_t@PAV?$CUtlVector@DV?$CUtlMemory@DH@@@@G@@G@@@@QAEXG@Z 1007a5b0 f i vmpi:vmpi.obj
 0001:00079640       ?InsertMultipleBefore@?$CUtlVector@VS3RGBA@@V?$CUtlMemory@VS3RGBA@@H@@@@QAEHHHPBVS3RGBA@@@Z 1007a640 f i vtf:vtf.obj
 0001:00079640       ?InsertMultipleBefore@?$CUtlVector@PAVCVMPIConnection@@V?$CUtlMemory@PAVCVMPIConnection@@H@@@@QAEHHHPBQAVCVMPIConnection@@@Z 1007a640 f i vmpi:vmpi.obj
 0001:000796e0       ?Init@CVMPIConnection@@UAEXPAVIThreadedTCPSocket@@@Z 1007a6e0 f i vmpi:vmpi.obj
 0001:000796f0       ?SetNoTimeoutOption@CMasterBroadcaster@@QAEXXZ 1007a6f0 f   vmpi:vmpi.obj
 0001:000797c0       ?VerifyValidSDKMode@@YAXXZ 1007a7c0 f   vmpi:vmpi.obj
 0001:000798a0       ?VMPI_CheckSDKMode@@YAXHPAPAD@Z 1007a8a0 f   vmpi:vmpi.obj
 0001:00079910       ?VMPI_InviteDebugWorkers@@YAXXZ 1007a910 f   vmpi:vmpi.obj
 0001:000799a0       ?PurgeAndDeleteElements@?$CUtlLinkedList@PAV?$CUtlVector@DV?$CUtlMemory@DH@@@@G$0A@GV?$CUtlMemory@U?$UtlLinkedListElem_t@PAV?$CUtlVector@DV?$CUtlMemory@DH@@@@G@@G@@@@QAEXXZ 1007a9a0 f i vmpi:vmpi.obj
 0001:00079a30       ?ParseDependencyFile@@YAXPAVCDependencyInfo@@PBD@Z 1007aa30 f   vmpi:vmpi.obj
 0001:00079bf0       ?SetupDependenciesForPatch@@YAXPAVCDependencyInfo@@PBD@Z 1007abf0 f   vmpi:vmpi.obj
 0001:00079cb0       ?SetupDependencyInfo@@YAXPAVCDependencyInfo@@PBD_N@Z 1007acb0 f   vmpi:vmpi.obj
 0001:00079d30       ??0CMasterBroadcaster@@QAE@XZ 1007ad30 f   vmpi:vmpi.obj
 0001:00079db0       ?GetPatchWorkerList@CMasterBroadcaster@@AAEXHPAPAD@Z 1007adb0 f   vmpi:vmpi.obj
 0001:00079f60       ?VMPI_Finalize@@YAXXZ      1007af60 f   vmpi:vmpi.obj
 0001:0007a0b0       ?VMPI_GroupPackets@@YAXPAVCVMPIConnection@@PBQBXPBHH@Z 1007b0b0 f   vmpi:vmpi.obj
 0001:0007a240       ?VMPI_SetupAutoRestartParameters@@YAXHPAPAD@Z 1007b240 f   vmpi:vmpi.obj
 0001:0007a2d0       ?AddToTail@?$CUtlLinkedList@PAV?$CUtlVector@DV?$CUtlMemory@DH@@@@G$0A@GV?$CUtlMemory@U?$UtlLinkedListElem_t@PAV?$CUtlVector@DV?$CUtlMemory@DH@@@@G@@G@@@@QAEGABQAV?$CUtlVector@DV?$CUtlMemory@DH@@@@@Z 1007b2d0 f i vmpi:vmpi.obj
 0001:0007a340       ?AddToHead@?$CUtlLinkedList@PAVCChunkInfo@CMasterMulticastThread@@H$0A@HV?$CUtlMemory@U?$UtlLinkedListElem_t@PAVCChunkInfo@CMasterMulticastThread@@H@@H@@@@QAEHABQAVCChunkInfo@CMasterMulticastThread@@@Z 1007b340 f i vmpi:vmpi_filesystem_master.obj
 0001:0007a340       ?AddToHead@?$CUtlLinkedList@PAVCTCPPacket@@H$0A@HV?$CUtlMemory@U?$UtlLinkedListElem_t@PAVCTCPPacket@@H@@H@@@@QAEHABQAVCTCPPacket@@@Z 1007b340 f i vmpi:vmpi.obj
 0001:0007a3c0       ?OnPacketReceived@CVMPIConnection@@UAEXPAVCTCPPacket@@@Z 1007b3c0 f i vmpi:vmpi.obj
 0001:0007a420       ?OnError@CVMPIConnection@@UAEXHPBD@Z 1007b420 f i vmpi:vmpi.obj
 0001:0007a4c0       ?InternalHandleSocketErrors@@YAXXZ 1007b4c0 f   vmpi:vmpi.obj
 0001:0007a5e0       ?VMPI_GetNextMessage@@YA_NPAVMessageBuffer@@PAHK@Z 1007b5e0 f   vmpi:vmpi.obj
 0001:0007a880       ?VMPI_DispatchNextMessage@@YA_NK@Z 1007b880 f   vmpi:vmpi.obj
 0001:0007a960       ?VMPI_SendChunks@@YA_NPBQBXPBHHHH@Z 1007b960 f   vmpi:vmpi.obj
 0001:0007ab70       ?VMPI_Send2Chunks@@YA_NPBXH0HHH@Z 1007bb70 f   vmpi:vmpi.obj
 0001:0007abc0       ?VMPI_Send3Chunks@@YA_NPBXH0H0HHH@Z 1007bbc0 f   vmpi:vmpi.obj
 0001:0007ac20       ?VMPI_AddDisconnectHandler@@YAXP6AXHPBD@Z@Z 1007bc20 f   vmpi:vmpi.obj
 0001:0007ac30       ?VMPI_SetMachineName@@YAXHPBD@Z 1007bc30 f   vmpi:vmpi.obj
 0001:0007ac80       ??0CVMPIConnection@@QAE@H@Z 1007bc80 f i vmpi:vmpi.obj
 0001:0007ad40       ?CreateNewHandler@CVMPIConnectionCreator@@UAEPAVITCPSocketHandler@@XZ 1007bd40 f i vmpi:vmpi.obj
 0001:0007ad80       ?VMPI_InternalDispatchFn@@YA_NPAVMessageBuffer@@HH@Z 1007bd80 f   vmpi:vmpi.obj
 0001:0007af40       ?VMPI_ReceiveExeName@@YAXXZ 1007bf40 f   vmpi:vmpi.obj
 0001:0007b020       ?VMPI_SendData@@YA_NPAXHHH@Z 1007c020 f   vmpi:vmpi.obj
 0001:0007b040       ?VMPI_SendMachineNameTo@@YAXH@Z 1007c040 f   vmpi:vmpi.obj
 0001:0007b0d0       ?VMPI_SendCommandLine@@YAXHPAPAD@Z 1007c0d0 f   vmpi:vmpi.obj
 0001:0007b170       ?VMPI_ReceiveCommandLine@@YAXXZ 1007c170 f   vmpi:vmpi.obj
 0001:0007b240       ?VMPI_SendExeName@@YAXXZ   1007c240 f   vmpi:vmpi.obj
 0001:0007b300       ?Update@CMasterBroadcaster@@AAE_NXZ 1007c300 f   vmpi:vmpi.obj
 0001:0007b590       ?ThreadFn@CMasterBroadcaster@@AAEXXZ 1007c590 f   vmpi:vmpi.obj
 0001:0007b600       ?StaticThreadFn@CMasterBroadcaster@@CGKPAX@Z 1007c600 f   vmpi:vmpi.obj
 0001:0007b610       ?VMPI_HandleTimingWait_Master@@YAXXZ 1007c610 f   vmpi:vmpi.obj
 0001:0007b680       ?MPI_Init_Worker@@YA_NAAHAAPAPADABVCIPAddr@@_N@Z 1007c680 f   vmpi:vmpi.obj
 0001:0007b8f0       ?Init@CMasterBroadcaster@@QAE_NHPAPADPBDHW4VMPIRunMode@@_N@Z 1007c8f0 f   vmpi:vmpi.obj
 0001:0007c1f0       ?InitMaster@@YA_NHPAPADPBDW4VMPIRunMode@@_N@Z 1007d1f0 f   vmpi:vmpi.obj
 0001:0007c350       ?VMPI_Init@@YA_NAAHAAPAPADPBDP6AXH2@ZW4VMPIRunMode@@_N@Z 1007d350 f   vmpi:vmpi.obj
 0001:0007c450       ?PrepareDistributeWorkHeader@@YAXPAVMessageBuffer@@E@Z 1007d450 f   vmpi:vmpi_distribute_work.obj
 0001:0007c490       ?VMPI_DistributeWork_DisconnectHandler@@YAXHPBD@Z 1007d490 f   vmpi:vmpi_distribute_work.obj
 0001:0007c4e0       ?VMPI_GetNumWorkUnitsCompleted@@YA_KH@Z 1007d4e0 f   vmpi:vmpi_distribute_work.obj
 0001:0007c500       ?VMPI_GetActiveWorkUnitDistributor@@YA?AW4EWorkUnitDistributor@@XZ 1007d500 f   vmpi:vmpi_distribute_work.obj
 0001:0007c560       ?PreDistributeWorkSync@@YAXPAVCDSInfo@@@Z 1007d560 f   vmpi:vmpi_distribute_work.obj
 0001:0007c690       ?DistributeWork_Cancel@@YAXXZ 1007d690 f   vmpi:vmpi_distribute_work.obj
 0001:0007c6c0       ?SortByWUCount@@YAHPBX0@Z  1007d6c0 f   vmpi:vmpi_distribute_work.obj
 0001:0007c710       ?HandleWorkUnitCompleted@@YAXPAVCDSInfo@@H_KPAVMessageBuffer@@@Z 1007d710 f   vmpi:vmpi_distribute_work.obj
 0001:0007c850       ?DistributeWorkDispatch@@YA_NPAVMessageBuffer@@HH@Z 1007d850 f   vmpi:vmpi_distribute_work.obj
 0001:0007ca30       ?DistributeWork_Master@@YAXPAVCDSInfo@@P6AXH_KPAVMessageBuffer@@@ZP6AX12H@Z@Z 1007da30 f   vmpi:vmpi_distribute_work.obj
 0001:0007cb00       ?CheckLocalMasterCompletedWorkUnits@@YAXXZ 1007db00 f   vmpi:vmpi_distribute_work.obj
 0001:0007cb60       ?InsertMultipleBefore@?$CUtlVector@_KV?$CUtlMemory@_KH@@@@QAEHHHPB_K@Z 1007db60 f i vmpi:vmpi_distribute_work.obj
 0001:0007cc10       ?NotifyLocalMasterCompletedWorkUnit@@YAX_K@Z 1007dc10 f   vmpi:vmpi_distribute_work.obj
 0001:0007cc40       ?ExpandWindow@?$CVisibleWindowVectorT@_KV?$CVisibleWindowVector@_K@@@@QAEX_KAB_K@Z 1007dc40 f i vmpi:vmpi_distribute_work.obj
 0001:0007cca0       ?ShowMPIStats@@YAXNKKKK@Z  1007dca0 f   vmpi:vmpi_distribute_work.obj
 0001:0007cf40       ?VMPI_WorkerThread@@YAXHPAX@Z 1007df40 f   vmpi:vmpi_distribute_work.obj
 0001:0007d240       ?DistributeWork_Worker@@YAXPAVCDSInfo@@P6AXH_KPAVMessageBuffer@@@Z@Z 1007e240 f   vmpi:vmpi_distribute_work.obj
 0001:0007d3b0       ?DistributeWork@@YAN_KDP6AXH0PAVMessageBuffer@@@ZP6AX01H@Z@Z 1007e3b0 f   vmpi:vmpi_distribute_work.obj
 0001:0007d5f0       ?Lock@CCriticalSection@@IAEXXZ 1007e5f0 f   vmpi:threadhelpers.obj
 0001:0007d600       ?Unlock@CCriticalSection@@IAEXXZ 1007e600 f   vmpi:threadhelpers.obj
 0001:0007d610       ??0CCriticalSectionLock@@QAE@PAVCCriticalSection@@@Z 1007e610 f   vmpi:threadhelpers.obj
 0001:0007d620       ??1CCriticalSectionLock@@QAE@XZ 1007e620 f   vmpi:threadhelpers.obj
 0001:0007d630       ?Lock@CCriticalSectionLock@@QAEXXZ 1007e630 f   vmpi:threadhelpers.obj
 0001:0007d640       ?Unlock@CCriticalSectionLock@@QAEXXZ 1007e640 f   vmpi:threadhelpers.obj
 0001:0007d650       ?SetEvent@CEvent@@QAE_NXZ  1007e650 f   vmpi:threadhelpers.obj
 0001:0007d660       ?ResetEvent@CEvent@@QAE_NXZ 1007e660 f   vmpi:threadhelpers.obj
 0001:0007d670       ??1CEvent@@QAE@XZ          1007e670 f   vmpi:threadhelpers.obj
 0001:0007d690       ?Init@CEvent@@QAE_N_N0@Z   1007e690 f   vmpi:threadhelpers.obj
 0001:0007d6d0       ??0CCriticalSection@@QAE@XZ 1007e6d0 f   vmpi:threadhelpers.obj
 0001:0007d710       ??1CCriticalSection@@QAE@XZ 1007e710 f   vmpi:threadhelpers.obj
 0001:0007d750       ?GetVMPIFileSystem@@YAPAXXZ 1007e750 f   vmpi:vmpi_filesystem.obj
 0001:0007d760       ?VMPI_FileSystem_Init@@YAPAVIFileSystem@@HPAV1@@Z 1007e760 f   vmpi:vmpi_filesystem.obj
 0001:0007d7a0       ?VMPI_FileSystem_Term@@YAPAVIFileSystem@@XZ 1007e7a0 f   vmpi:vmpi_filesystem.obj
 0001:0007d830       ?VMPI_FileSystem_CreateVirtualFile@@YAXPBDPBXK@Z 1007e830 f   vmpi:vmpi_filesystem.obj
 0001:0007d850       ?FileSystemRecv@@YA_NPAVMessageBuffer@@HH@Z 1007e850 f   vmpi:vmpi_filesystem.obj
 0001:0007d880       ?Init@CVMPIFile_Memory@@QAEXPBDJD@Z 1007e880 f   vmpi:vmpi_filesystem.obj
 0001:0007d8a0       ?Seek@CVMPIFile_Memory@@UAEXHW4FileSystemSeek_t@@@Z 1007e8a0 f   vmpi:vmpi_filesystem.obj
 0001:0007d8d0       ?getLen@MessageBuffer@@QAEHXZ 1007e8d0 f   vmpi:messbuf.obj
 0001:0007d8d0       ?Width@CVTFTexture@@UBEHXZ 1007e8d0 f   vtf:vtf.obj
 0001:0007d8d0       ?Tell@CVMPIFile_Memory@@UAEIXZ 1007e8d0 f   vmpi:vmpi_filesystem.obj
 0001:0007d8d0       ?GetPower@CCoreDispInfo@@QBEHXZ 1007e8d0 f   builddisp.obj
 0001:0007d8e0       ?getOffset@MessageBuffer@@QAEHXZ 1007e8e0 f   vmpi:messbuf.obj
 0001:0007d8e0       ?Size@CVMPIFile_Memory@@UAEIXZ 1007e8e0 f   vmpi:vmpi_filesystem.obj
 0001:0007d8f0       ?Read@CVMPIFile_Memory@@UAEHPAXH@Z 1007e8f0 f   vmpi:vmpi_filesystem.obj
 0001:0007da10       ?Write@CVMPIFile_Memory@@UAEHPBXH@Z 1007ea10 f   vmpi:vmpi_filesystem.obj
 0001:0007da20       ??1CBaseVMPIFileSystem@@UAE@XZ 1007ea20 f   vmpi:vmpi_filesystem.obj
 0001:0007da30       ?Connect@CFileSystemPassThru@@UAE_NP6APAXPBDPAH@Z@Z 1007ea30 f i vmpi:vmpi_filesystem.obj
 0001:0007da40       ?Disconnect@CFileSystemPassThru@@UAEXXZ 1007ea40 f i vmpi:vmpi_filesystem.obj
 0001:0007da50       ?QueryInterface@CFileSystemPassThru@@UAEPAXPBD@Z 1007ea50 f i vmpi:vmpi_filesystem.obj
 0001:0007da60       ?Init@CFileSystemPassThru@@UAE?AW4InitReturnVal_t@@XZ 1007ea60 f i vmpi:vmpi_filesystem.obj
 0001:0007da70       ?Shutdown@CFileSystemPassThru@@UAEXXZ 1007ea70 f i vmpi:vmpi_filesystem.obj
 0001:0007da80       ?RemoveAllSearchPaths@CFileSystemPassThru@@UAEXXZ 1007ea80 f i vmpi:vmpi_filesystem.obj
 0001:0007da90       ?AddSearchPath@CFileSystemPassThru@@UAEXPBD0W4SearchPathAdd_t@@@Z 1007ea90 f i vmpi:vmpi_filesystem.obj
 0001:0007daa0       ?RemoveSearchPath@CFileSystemPassThru@@UAE_NPBD0@Z 1007eaa0 f i vmpi:vmpi_filesystem.obj
 0001:0007dab0       ?RemoveFile@CFileSystemPassThru@@UAEXPBD0@Z 1007eab0 f i vmpi:vmpi_filesystem.obj
 0001:0007dac0       ?RenameFile@CFileSystemPassThru@@UAE_NPBD00@Z 1007eac0 f i vmpi:vmpi_filesystem.obj
 0001:0007dad0       ?CreateDirHierarchy@CFileSystemPassThru@@UAEXPBD0@Z 1007ead0 f i vmpi:vmpi_filesystem.obj
 0001:0007dae0       ?IsDirectory@CFileSystemPassThru@@UAE_NPBD0@Z 1007eae0 f i vmpi:vmpi_filesystem.obj
 0001:0007daf0       ?FileTimeToString@CFileSystemPassThru@@UAEXPADHJ@Z 1007eaf0 f i vmpi:vmpi_filesystem.obj
 0001:0007db00       ?SetBufferSize@CFileSystemPassThru@@UAEXPAXI@Z 1007eb00 f i vmpi:vmpi_filesystem.obj
 0001:0007db10       ?IsOk@CFileSystemPassThru@@UAE_NPAX@Z 1007eb10 f i vmpi:vmpi_filesystem.obj
 0001:0007db20       ?EndOfFile@CFileSystemPassThru@@UAE_NPAX@Z 1007eb20 f i vmpi:vmpi_filesystem.obj
 0001:0007db30       ?ReadLine@CFileSystemPassThru@@UAEPADPADHPAX@Z 1007eb30 f i vmpi:vmpi_filesystem.obj
 0001:0007db40       ?FPrintf@CFileSystemPassThru@@UAAHPAXPADZZ 1007eb40 f i vmpi:vmpi_filesystem.obj
 0001:0007dba0       ?LoadModule@CFileSystemPassThru@@UAEPAVCSysModule@@PBD0_N@Z 1007eba0 f i vmpi:vmpi_filesystem.obj
 0001:0007dbb0       ?UnloadModule@CFileSystemPassThru@@UAEXPAVCSysModule@@@Z 1007ebb0 f i vmpi:vmpi_filesystem.obj
 0001:0007dbc0       ?FindFirst@CFileSystemPassThru@@UAEPBDPBDPAH@Z 1007ebc0 f i vmpi:vmpi_filesystem.obj
 0001:0007dbd0       ?FindNext@CFileSystemPassThru@@UAEPBDH@Z 1007ebd0 f i vmpi:vmpi_filesystem.obj
 0001:0007dbe0       ?FindIsDirectory@CFileSystemPassThru@@UAE_NH@Z 1007ebe0 f i vmpi:vmpi_filesystem.obj
 0001:0007dbf0       ?FindClose@CFileSystemPassThru@@UAEXH@Z 1007ebf0 f i vmpi:vmpi_filesystem.obj
 0001:0007dc00       ?GetLocalPath@CFileSystemPassThru@@UAEPBDPBDPADH@Z 1007ec00 f i vmpi:vmpi_filesystem.obj
 0001:0007dc10       ?FullPathToRelativePath@CFileSystemPassThru@@UAE_NPBDPADH@Z 1007ec10 f i vmpi:vmpi_filesystem.obj
 0001:0007dc20       ?GetCurrentDirectoryA@CFileSystemPassThru@@UAE_NPADH@Z 1007ec20 f i vmpi:vmpi_filesystem_master.obj
 0001:0007dc20       ?GetCurrentDirectory@CFileSystemPassThru@@UAE_NPADH@Z 1007ec20 f i vmpi:vmpi_filesystem.obj
 0001:0007dc30       ?PrintOpenedFiles@CFileSystemPassThru@@UAEXXZ 1007ec30 f i vmpi:vmpi_filesystem.obj
 0001:0007dc40       ?PrintSearchPaths@CFileSystemPassThru@@UAEXXZ 1007ec40 f i vmpi:vmpi_filesystem.obj
 0001:0007dc50       ?SetWarningFunc@CFileSystemPassThru@@UAEXP6AXPBDZZ@Z 1007ec50 f i vmpi:vmpi_filesystem.obj
 0001:0007dc60       ?SetWarningLevel@CFileSystemPassThru@@UAEXW4FileWarningLevel_t@@@Z 1007ec60 f i vmpi:vmpi_filesystem.obj
 0001:0007dc70       ?AddLoggingFunc@CFileSystemPassThru@@UAEXP6AXPBD0@Z@Z 1007ec70 f i vmpi:vmpi_filesystem.obj
 0001:0007dc80       ?RemoveLoggingFunc@CFileSystemPassThru@@UAEXP6AXPBD0@Z@Z 1007ec80 f i vmpi:vmpi_filesystem.obj
 0001:0007dc90       ?AsyncReadMultiple@CFileSystemPassThru@@UAE?AW4FSAsyncStatus_t@@PBUFileAsyncRequest_t@@HPAPAUFSAsyncControl_t__@@@Z 1007ec90 f i vmpi:vmpi_filesystem.obj
 0001:0007dca0       ?AsyncReadMultipleCreditAlloc@CFileSystemPassThru@@UAE?AW4FSAsyncStatus_t@@PBUFileAsyncRequest_t@@HPBDHPAPAUFSAsyncControl_t__@@@Z 1007eca0 f i vmpi:vmpi_filesystem.obj
 0001:0007dcb0       ?AsyncFinish@CFileSystemPassThru@@UAE?AW4FSAsyncStatus_t@@PAUFSAsyncControl_t__@@_N@Z 1007ecb0 f i vmpi:vmpi_filesystem.obj
 0001:0007dcc0       ?AsyncGetResult@CFileSystemPassThru@@UAE?AW4FSAsyncStatus_t@@PAUFSAsyncControl_t__@@PAPAXPAH@Z 1007ecc0 f i vmpi:vmpi_filesystem.obj
 0001:0007dcd0       ?AsyncAbort@CFileSystemPassThru@@UAE?AW4FSAsyncStatus_t@@PAUFSAsyncControl_t__@@@Z 1007ecd0 f i vmpi:vmpi_filesystem.obj
 0001:0007dce0       ?AsyncStatus@CFileSystemPassThru@@UAE?AW4FSAsyncStatus_t@@PAUFSAsyncControl_t__@@@Z 1007ece0 f i vmpi:vmpi_filesystem.obj
 0001:0007dcf0       ?AsyncFlush@CFileSystemPassThru@@UAE?AW4FSAsyncStatus_t@@XZ 1007ecf0 f i vmpi:vmpi_filesystem.obj
 0001:0007dd00       ?AsyncAddRef@CFileSystemPassThru@@UAEXPAUFSAsyncControl_t__@@@Z 1007ed00 f i vmpi:vmpi_filesystem.obj
 0001:0007dd10       ?AsyncRelease@CFileSystemPassThru@@UAEXPAUFSAsyncControl_t__@@@Z 1007ed10 f i vmpi:vmpi_filesystem.obj
 0001:0007dd20       ?AsyncBeginRead@CFileSystemPassThru@@UAE?AW4FSAsyncStatus_t@@PBDPAPAUFSAsyncFile_t__@@@Z 1007ed20 f i vmpi:vmpi_filesystem.obj
 0001:0007dd30       ?AsyncEndRead@CFileSystemPassThru@@UAE?AW4FSAsyncStatus_t@@PAUFSAsyncFile_t__@@@Z 1007ed30 f i vmpi:vmpi_filesystem.obj
 0001:0007dd40       ?GetFilesystemStatistics@CFileSystemPassThru@@UAEPBUFileSystemStatistics@@XZ 1007ed40 f i vmpi:vmpi_filesystem.obj
 0001:0007dd50       ?WaitForResources@CFileSystemPassThru@@UAEHPBD@Z 1007ed50 f i vmpi:vmpi_filesystem.obj
 0001:0007dd60       ?GetWaitForResourcesProgress@CFileSystemPassThru@@UAE_NHPAMPA_N@Z 1007ed60 f i vmpi:vmpi_filesystem.obj
 0001:0007dd70       ?CancelWaitForResources@CFileSystemPassThru@@UAEXH@Z 1007ed70 f i vmpi:vmpi_filesystem.obj
 0001:0007dd80       ?HintResourceNeed@CFileSystemPassThru@@UAEHPBDH@Z 1007ed80 f i vmpi:vmpi_filesystem.obj
 0001:0007dd90       ?IsFileImmediatelyAvailable@CFileSystemPassThru@@UAE_NPBD@Z 1007ed90 f i vmpi:vmpi_filesystem.obj
 0001:0007dda0       ?GetLocalCopy@CFileSystemPassThru@@UAEXPBD@Z 1007eda0 f i vmpi:vmpi_filesystem.obj
 0001:0007ddb0       ?FindOrAddFileName@CFileSystemPassThru@@UAEPAXPBD@Z 1007edb0 f i vmpi:vmpi_filesystem.obj
 0001:0007ddc0       ?FindFileName@CFileSystemPassThru@@UAEPAXPBD@Z 1007edc0 f i vmpi:vmpi_filesystem.obj
 0001:0007ddd0       ?String@CFileSystemPassThru@@UAE_NABQAXPADH@Z 1007edd0 f i vmpi:vmpi_filesystem.obj
 0001:0007dde0       ?IsOk2@CFileSystemPassThru@@UAE_NPAX@Z 1007ede0 f i vmpi:vmpi_filesystem.obj
 0001:0007ddf0       ?RemoveSearchPaths@CFileSystemPassThru@@UAEXPBD@Z 1007edf0 f i vmpi:vmpi_filesystem.obj
 0001:0007de00       ?IsSteam@CFileSystemPassThru@@UBE_NXZ 1007ee00 f i vmpi:vmpi_filesystem.obj
 0001:0007de10       ?MountSteamContent@CFileSystemPassThru@@UAE?AW4FilesystemMountRetval_t@@H@Z 1007ee10 f i vmpi:vmpi_filesystem.obj
 0001:0007de20       ?FindFirstEx@CFileSystemPassThru@@UAEPBDPBD0PAH@Z 1007ee20 f i vmpi:vmpi_filesystem.obj
 0001:0007de30       ?MarkPathIDByRequestOnly@CFileSystemPassThru@@UAEXPBD_N@Z 1007ee30 f i vmpi:vmpi_filesystem.obj
 0001:0007de40       ?AddPackFile@CFileSystemPassThru@@UAE_NPBD0@Z 1007ee40 f i vmpi:vmpi_filesystem.obj
 0001:0007de50       ?AsyncAppend@CFileSystemPassThru@@UAE?AW4FSAsyncStatus_t@@PBDPBXH_NPAPAUFSAsyncControl_t__@@@Z 1007ee50 f i vmpi:vmpi_filesystem.obj
 0001:0007de60       ?AsyncWrite@CFileSystemPassThru@@UAE?AW4FSAsyncStatus_t@@PBDPBXH_N2PAPAUFSAsyncControl_t__@@@Z 1007ee60 f i vmpi:vmpi_filesystem.obj
 0001:0007de70       ?AsyncWriteFile@CFileSystemPassThru@@UAE?AW4FSAsyncStatus_t@@PBDPBVCUtlBuffer@@H_N2PAPAUFSAsyncControl_t__@@@Z 1007ee70 f i vmpi:vmpi_filesystem.obj
 0001:0007de80       ?AsyncAppendFile@CFileSystemPassThru@@UAE?AW4FSAsyncStatus_t@@PBD0PAPAUFSAsyncControl_t__@@@Z 1007ee80 f i vmpi:vmpi_filesystem.obj
 0001:0007de90       ?AsyncFinishAll@CFileSystemPassThru@@UAEXH@Z 1007ee90 f i vmpi:vmpi_filesystem.obj
 0001:0007dea0       ?AsyncFinishAllWrites@CFileSystemPassThru@@UAEXXZ 1007eea0 f i vmpi:vmpi_filesystem.obj
 0001:0007deb0       ?AsyncSetPriority@CFileSystemPassThru@@UAE?AW4FSAsyncStatus_t@@PAUFSAsyncControl_t__@@H@Z 1007eeb0 f i vmpi:vmpi_filesystem.obj
 0001:0007dec0       ?AsyncSuspend@CFileSystemPassThru@@UAE_NXZ 1007eec0 f i vmpi:vmpi_filesystem.obj
 0001:0007ded0       ?AsyncResume@CFileSystemPassThru@@UAE_NXZ 1007eed0 f i vmpi:vmpi_filesystem.obj
 0001:0007dee0       ?RelativePathToFullPath@CFileSystemPassThru@@UAEPBDPBD0PADHW4PathTypeFilter_t@@PAI@Z 1007eee0 f i vmpi:vmpi_filesystem.obj
 0001:0007def0       ?GetSearchPath@CFileSystemPassThru@@UAEHPBD_NPADH@Z 1007eef0 f i vmpi:vmpi_filesystem.obj
 0001:0007df00       ?OpenEx@CFileSystemPassThru@@UAEPAXPBD0I0PAPAD@Z 1007ef00 f i vmpi:vmpi_filesystem.obj
 0001:0007df10       ?ReadEx@CFileSystemPassThru@@UAEHPAXHH0@Z 1007ef10 f i vmpi:vmpi_filesystem.obj
 0001:0007df20       ?ReadFileEx@CFileSystemPassThru@@UAEHPBD0PAPAX_N2HHP6APAX0I@Z@Z 1007ef20 f i vmpi:vmpi_filesystem.obj
 0001:0007df30       ?SetupPreloadData@CFileSystemPassThru@@UAEXXZ 1007ef30 f i vmpi:vmpi_filesystem.obj
 0001:0007df30       ?Release@CVRadDLL@@UAEXXZ  1007ef30 f i vraddll.obj
 0001:0007df30       ?DiscardPreloadData@CFileSystemPassThru@@UAEXXZ 1007ef30 f i vmpi:vmpi_filesystem.obj
 0001:0007df30       ?Flush@CVMPIFile_Memory@@UAEXXZ 1007ef30 f i vmpi:vmpi_filesystem.obj
 0001:0007df30       ?FreeVisMatrix@@YAXXZ      1007ef30 f i vismat.obj
 0001:0007df30       __heap_term                1007ef30 f i memoverride.obj
 0001:0007df30       ?DefaultScriptLoadedCallback@@YAXPBD0H@Z 1007ef30 f i scriplib.obj
 0001:0007df40       ?LoadCompiledKeyValues@CFileSystemPassThru@@UAEXW4KeyValuesPreloadType_t@IFileSystem@@PBD@Z 1007ef40 f i vmpi:vmpi_filesystem.obj
 0001:0007df50       ?LoadKeyValues@CFileSystemPassThru@@UAEPAVKeyValues@@W4KeyValuesPreloadType_t@IFileSystem@@PBD1@Z 1007ef50 f i vmpi:vmpi_filesystem.obj
 0001:0007df60       ?LoadKeyValues@CFileSystemPassThru@@UAE_NAAVKeyValues@@W4KeyValuesPreloadType_t@IFileSystem@@PBD2@Z 1007ef60 f i vmpi:vmpi_filesystem.obj
 0001:0007df70       ?ExtractRootKeyName@CFileSystemPassThru@@UAE_NW4KeyValuesPreloadType_t@IFileSystem@@PADIPBD2@Z 1007ef70 f i vmpi:vmpi_filesystem.obj
 0001:0007df80       ?GetFileTypeForFullPath@CFileSystemPassThru@@UAE_NPBDPA_WI@Z 1007ef80 f i vmpi:vmpi_filesystem.obj
 0001:0007df90       ?GetOptimalIOConstraints@CFileSystemPassThru@@UAE_NPAXPAI11@Z 1007ef90 f i vmpi:vmpi_filesystem.obj
 0001:0007dfa0       ?AllocOptimalReadBuffer@CFileSystemPassThru@@UAEPAXPAXII@Z 1007efa0 f i vmpi:vmpi_filesystem.obj
 0001:0007dfc0       ?FreeOptimalReadBuffer@CFileSystemPassThru@@UAEXPAX@Z 1007efc0 f i vmpi:vmpi_filesystem.obj
 0001:0007dfd0       ?BeginMapAccess@CFileSystemPassThru@@UAEXXZ 1007efd0 f i vmpi:vmpi_filesystem.obj
 0001:0007dfe0       ?EndMapAccess@CFileSystemPassThru@@UAEXXZ 1007efe0 f i vmpi:vmpi_filesystem.obj
 0001:0007dff0       ?ReadToBuffer@CFileSystemPassThru@@UAE_NPAXAAVCUtlBuffer@@HP6APAXPBDI@Z@Z 1007eff0 f i vmpi:vmpi_filesystem.obj
 0001:0007e000       ?FullPathToRelativePathEx@CFileSystemPassThru@@UAE_NPBD0PADH@Z 1007f000 f i vmpi:vmpi_filesystem.obj
 0001:0007e010       ?GetPathIndex@CFileSystemPassThru@@UAEHABQAX@Z 1007f010 f i vmpi:vmpi_filesystem.obj
 0001:0007e020       ?GetPathTime@CFileSystemPassThru@@UAEJPBD0@Z 1007f020 f i vmpi:vmpi_filesystem.obj
 0001:0007e030       ?GetDVDMode@CFileSystemPassThru@@UAE?AW4DVDMode_t@@XZ 1007f030 f i vmpi:vmpi_filesystem.obj
 0001:0007e040       ?EnableWhitelistFileTracking@CFileSystemPassThru@@UAEX_N@Z 1007f040 f i vmpi:vmpi_filesystem.obj
 0001:0007e050       ?RegisterFileWhitelist@CFileSystemPassThru@@UAEXPAVIFileList@@0PAPAV2@@Z 1007f050 f i vmpi:vmpi_filesystem.obj
 0001:0007e060       ?MarkAllCRCsUnverified@CFileSystemPassThru@@UAEXXZ 1007f060 f i vmpi:vmpi_filesystem.obj
 0001:0007e070       ?CacheFileCRCs@CFileSystemPassThru@@UAEXPBDW4ECacheCRCType@@PAVIFileList@@@Z 1007f070 f i vmpi:vmpi_filesystem.obj
 0001:0007e080       ?CheckCachedFileCRC@CFileSystemPassThru@@UAE?AW4EFileCRCStatus@@PBD0PAK@Z 1007f080 f i vmpi:vmpi_filesystem.obj
 0001:0007e090       ?GetUnverifiedCRCFiles@CFileSystemPassThru@@UAEHPAVCUnverifiedCRCFile@@H@Z 1007f090 f i vmpi:vmpi_filesystem.obj
 0001:0007e0a0       ?GetWhitelistSpewFlags@CFileSystemPassThru@@UAEHXZ 1007f0a0 f i vmpi:vmpi_filesystem.obj
 0001:0007e0b0       ?SetWhitelistSpewFlags@CFileSystemPassThru@@UAEXH@Z 1007f0b0 f i vmpi:vmpi_filesystem.obj
 0001:0007e0c0       ?InstallDirtyDiskReportFunc@CFileSystemPassThru@@UAEXP6AXXZ@Z 1007f0c0 f i vmpi:vmpi_filesystem.obj
 0001:0007e0d0       ??_ECBaseVMPIFileSystem@@UAEPAXI@Z 1007f0d0 f i vmpi:vmpi_filesystem.obj
 0001:0007e0d0       ??_GCBaseVMPIFileSystem@@UAEPAXI@Z 1007f0d0 f i vmpi:vmpi_filesystem.obj
 0001:0007e100       ?Release@CBaseVMPIFileSystem@@UAEXXZ 1007f100 f   vmpi:vmpi_filesystem.obj
 0001:0007e120       ?Close@CBaseVMPIFileSystem@@UAEXPAX@Z 1007f120 f   vmpi:vmpi_filesystem.obj
 0001:0007e140       ?Read@CBaseVMPIFileSystem@@UAEHPAXH0@Z 1007f140 f   vmpi:vmpi_filesystem.obj
 0001:0007e160       ?Write@CBaseVMPIFileSystem@@UAEHPBXHPAX@Z 1007f160 f   vmpi:vmpi_filesystem.obj
 0001:0007e180       ?Seek@CBaseVMPIFileSystem@@UAEXPAXHW4FileSystemSeek_t@@@Z 1007f180 f   vmpi:vmpi_filesystem.obj
 0001:0007e1a0       ?Tell@CBaseVMPIFileSystem@@UAEIPAX@Z 1007f1a0 f   vmpi:vmpi_filesystem.obj
 0001:0007e1b0       ?Size@CBaseVMPIFileSystem@@UAEIPAX@Z 1007f1b0 f   vmpi:vmpi_filesystem.obj
 0001:0007e1c0       ?Size@CBaseVMPIFileSystem@@UAEIPBD0@Z 1007f1c0 f   vmpi:vmpi_filesystem.obj
 0001:0007e210       ?FileExists@CBaseVMPIFileSystem@@UAE_NPBD0@Z 1007f210 f   vmpi:vmpi_filesystem.obj
 0001:0007e250       ?Flush@CBaseVMPIFileSystem@@UAEXPAX@Z 1007f250 f   vmpi:vmpi_filesystem.obj
 0001:0007e260       ?Precache@CBaseVMPIFileSystem@@UAE_NPBD0@Z 1007f260 f   vmpi:vmpi_filesystem.obj
 0001:0007e270       ?InitPassThru@?$CInternalFileSystemPassThru@VIFileSystem@@@@UAEXPAVIBaseFileSystem@@@Z 1007f270 f i vmpi:vmpi_filesystem.obj
 0001:0007e280       ?Open@?$CInternalFileSystemPassThru@VIFileSystem@@@@UAEPAXPBD00@Z 1007f280 f i vmpi:vmpi_filesystem.obj
 0001:0007e290       ?IsFileWritable@?$CInternalFileSystemPassThru@VIFileSystem@@@@UAE_NPBD0@Z 1007f290 f i vmpi:vmpi_filesystem.obj
 0001:0007e2a0       ?SetFileWritable@?$CInternalFileSystemPassThru@VIFileSystem@@@@UAE_NPBD_N0@Z 1007f2a0 f i vmpi:vmpi_filesystem.obj
 0001:0007e2b0       ?GetFileTime@?$CInternalFileSystemPassThru@VIFileSystem@@@@UAEJPBD0@Z 1007f2b0 f i vmpi:vmpi_filesystem.obj
 0001:0007e2c0       ?UnzipFile@?$CInternalFileSystemPassThru@VIFileSystem@@@@UAE_NPBD00@Z 1007f2c0 f i vmpi:vmpi_filesystem.obj
 0001:0007e2d0       ?InitPassThru@CFileSystemPassThru@@UAEXPAVIFileSystem@@_N@Z 1007f2d0 f i vmpi:vmpi_filesystem.obj
 0001:0007e300       ?ReadFile@CBaseVMPIFileSystem@@UAE_NPBD0AAVCUtlBuffer@@HHP6APAX0I@Z@Z 1007f300 f   vmpi:vmpi_filesystem.obj
 0001:0007e3b0       ?WriteFile@CBaseVMPIFileSystem@@UAE_NPBD0AAVCUtlBuffer@@@Z 1007f3b0 f   vmpi:vmpi_filesystem.obj
 0001:0007e420       ?SetValue@CTempEnvVar@@QAAXPBDZZ 1007f420 f i vmpi:filesystem_init.obj
 0001:0007e490       ?Q_getwd@@YAXPADH@Z        1007f490 f   vmpi:filesystem_init.obj
 0001:0007e4c0       ??0CFSSearchPathsInit@@QAE@XZ 1007f4c0 f   vmpi:filesystem_init.obj
 0001:0007e4d0       ??0CFSLoadModuleInfo@@QAE@XZ 1007f4d0 f   vmpi:filesystem_init.obj
 0001:0007e500       ??0CFSMountContentInfo@@QAE@XZ 1007f500 f   vmpi:filesystem_init.obj
 0001:0007e510       ?AddLanguageGameDir@@YAXPAVIFileSystem@@PBD1@Z 1007f510 f   vmpi:filesystem_init.obj
 0001:0007e5e0       ?GetVProjectCmdLineValue@@YAPBDXZ 1007f5e0 f   vmpi:filesystem_init.obj
 0001:0007e620       ?IsLowViolenceBuild@@YA_NXZ 1007f620 f   vmpi:filesystem_init.obj
 0001:0007e890       ?DoesFileExistIn@@YA_NPBD0@Z 1007f890 f   vmpi:filesystem_init.obj
 0001:0007e900       ?DoesPathExistAlready@@YA_NPBD0@Z 1007f900 f   vmpi:filesystem_init.obj
 0001:0007ea40       ?SetSteamUserPassphrase@@YAXPAVKeyValues@@AAVCSteamEnvVars@@@Z 1007fa40 f   vmpi:filesystem_init.obj
 0001:0007eaa0       ?FileSystem_AddSearchPath_Platform@@YAXPAVIFileSystem@@PBD@Z 1007faa0 f   vmpi:filesystem_init.obj
 0001:0007eb30       ?FileSystem_GetExecutableDir@@YA_NPADH@Z 1007fb30 f   vmpi:filesystem_init.obj
 0001:0007ec50       ?LaunchVConfig@@YAXXZ      1007fc50 f   vmpi:filesystem_init.obj
 0001:0007ecc0       ?SetupFileSystemError@@YA?AW4FSReturnCode_t@@_NW41@PBDZZ 1007fcc0 f   vmpi:filesystem_init.obj
 0001:0007ed50       ?FileSystem_IsHldsUpdateToolDedicatedServer@@YA_NXZ 1007fd50 f   vmpi:filesystem_init.obj
 0001:0007edd0       ?SetSteamInstallPath@@YA?AW4FSReturnCode_t@@PADHAAVCSteamEnvVars@@_N@Z 1007fdd0 f   vmpi:filesystem_init.obj
 0001:0007ef30       ?FileSystem_SetBasePaths@@YA?AW4FSReturnCode_t@@PAVIFileSystem@@@Z 1007ff30 f   vmpi:filesystem_init.obj
 0001:0007efa0       ?FileSystem_GetFileSystemDLLName@@YA?AW4FSReturnCode_t@@PADHAA_N@Z 1007ffa0 f   vmpi:filesystem_init.obj
 0001:0007f070       ??1CTempEnvVar@@QAE@XZ     10080070 f i vmpi:filesystem_init.obj
 0001:0007f2b0       ?LocateGameInfoFile@@YA?AW4FSReturnCode_t@@ABVCFSSteamSetupInfo@@PADH@Z 100802b0 f   vmpi:filesystem_init.obj
 0001:0007f4b0       ??1CSteamEnvVars@@QAE@XZ   100804b0 f i vmpi:filesystem_init.obj
 0001:0007f4e0       ??0CTempEnvVar@@QAE@PBD@Z  100804e0 f i vmpi:filesystem_init.obj
 0001:0007f580       ?ReadKeyValuesFile@@YAPAVKeyValues@@PBD@Z 10080580 f   vmpi:filesystem_init.obj
 0001:0007f660       ?LoadGameInfoFile@@YA?AW4FSReturnCode_t@@PBDAAPAVKeyValues@@11@Z 10080660 f   vmpi:filesystem_init.obj
 0001:0007f750       ?FileSystem_LoadSearchPaths@@YA?AW4FSReturnCode_t@@AAVCFSSearchPathsInit@@@Z 10080750 f   vmpi:filesystem_init.obj
 0001:0007f950       ?SetSteamAppUser@@YAXPAVKeyValues@@PBDAAVCSteamEnvVars@@@Z 10080950 f   vmpi:filesystem_init.obj
 0001:0007fa80       ?SetupSteamStartupEnvironment@@YA?AW4FSReturnCode_t@@PAVKeyValues@@PBDAAVCSteamEnvVars@@@Z 10080a80 f   vmpi:filesystem_init.obj
 0001:0007fb70       ?GetSteamExtraAppId@@YA?AW4FSReturnCode_t@@PBDPAH@Z 10080b70 f   vmpi:filesystem_init.obj
 0001:0007fbc0       ?FileSystem_SetupSteamInstallPath@@YA?AW4FSReturnCode_t@@XZ 10080bc0 f   vmpi:filesystem_init.obj
 0001:0007fc50       ?FileSystem_SetupSteamEnvironment@@YA?AW4FSReturnCode_t@@AAVCFSSteamSetupInfo@@@Z 10080c50 f   vmpi:filesystem_init.obj
 0001:0007fdc0       ?FileSystem_LoadFileSystemModule@@YA?AW4FSReturnCode_t@@AAVCFSLoadModuleInfo@@@Z 10080dc0 f   vmpi:filesystem_init.obj
 0001:0007fe80       ?FileSystem_MountContent@@YA?AW4FSReturnCode_t@@AAVCFSMountContentInfo@@@Z 10080e80 f   vmpi:filesystem_init.obj
 0001:0007ffa0       ?LoadModule@CMasterVMPIFileSystem@@UAEPAVCSysModule@@PBD0_N@Z 10080fa0 f   vmpi:vmpi_filesystem_master.obj
 0001:0007ffb0       ?UnloadModule@CMasterVMPIFileSystem@@UAEXPAVCSysModule@@@Z 10080fb0 f   vmpi:vmpi_filesystem_master.obj
 0001:0007ffc0       ?Grow@?$CUtlMemory@VCIPAddr@@H@@QAEXH@Z 10080fc0 f i vmpi:vmpi.obj
 0001:0007ffc0       ?Grow@?$CUtlMemory@VCChunkInfo@CMasterMulticastThread@@H@@QAEXH@Z 10080fc0 f i vmpi:vmpi_filesystem_master.obj
 0001:00080060       ?NoteExcessTimeTaken@CRateLimiter@@QAEXK@Z 10081060 f   vmpi:vmpi_filesystem_master.obj
 0001:00080100       ?Close@CVMPIFile_PassThru@@UAEXXZ 10081100 f i vmpi:vmpi_filesystem_master.obj
 0001:00080120       ?Seek@CVMPIFile_PassThru@@UAEXHW4FileSystemSeek_t@@@Z 10081120 f i vmpi:vmpi_filesystem_master.obj
 0001:00080140       ?Tell@CVMPIFile_PassThru@@UAEIXZ 10081140 f i vmpi:vmpi_filesystem_master.obj
 0001:00080160       ?Size@CVMPIFile_PassThru@@UAEIXZ 10081160 f i vmpi:vmpi_filesystem_master.obj
 0001:00080180       ?Flush@CVMPIFile_PassThru@@UAEXXZ 10081180 f i vmpi:vmpi_filesystem_master.obj
 0001:000801a0       ?Read@CVMPIFile_PassThru@@UAEHPAXH@Z 100811a0 f i vmpi:vmpi_filesystem_master.obj
 0001:000801c0       ?Write@CVMPIFile_PassThru@@UAEHPBXH@Z 100811c0 f i vmpi:vmpi_filesystem_master.obj
 0001:000801e0       ?RemoveMultiple@?$CUtlVector@DV?$CUtlMemory@DH@@@@QAEXHH@Z 100811e0 f i vmpi:vmpi_filesystem_master.obj
 0001:00080220       ?Grow@?$CUtlMemory@U?$UtlLinkedListElem_t@PAVCPartitionInfo@@H@@H@@QAEXH@Z 10081220 f i vmpi:vmpi_distribute_work_default.obj
 0001:00080220       ?Grow@?$CUtlMemory@U?$UtlLinkedListElem_t@PAVCVMPIConnection@@H@@H@@QAEXH@Z 10081220 f i vmpi:vmpi.obj
 0001:00080220       ?Grow@?$CUtlMemory@U?$UtlLinkedListElem_t@P6AXHPBD@ZH@@H@@QAEXH@Z 10081220 f i vmpi:vmpi.obj
 0001:00080220       ?Grow@?$CUtlMemory@VCWULookupInfo@@H@@QAEXH@Z 10081220 f i vmpi:vmpi_distribute_work_default.obj
 0001:00080220       ?Grow@?$CUtlMemory@U?$UtlLinkedListElem_t@PAVCMulticastFile@CMasterMulticastThread@@H@@H@@QAEXH@Z 10081220 f i vmpi:vmpi_filesystem_master.obj
 0001:00080220       ?Grow@?$CUtlMemory@U?$UtlLinkedListElem_t@PAVCFileChunkPacket@@H@@H@@QAEXH@Z 10081220 f i vmpi:vmpi_filesystem_worker.obj
 0001:00080220       ?Grow@?$CUtlMemory@U?$UtlLinkedListElem_t@PAVCWorkerFile@@H@@H@@QAEXH@Z 10081220 f i vmpi:vmpi_filesystem_worker.obj
 0001:00080220       ?Grow@?$CUtlMemory@U?$UtlLinkedListElem_t@PAVCChunkInfo@CMasterMulticastThread@@H@@H@@QAEXH@Z 10081220 f i vmpi:vmpi_filesystem_master.obj
 0001:00080220       ?Grow@?$CUtlMemory@U?$UtlLinkedListElem_t@PAUSendData_t@CThreadedTCPSocket@@H@@H@@QAEXH@Z 10081220 f i vmpi:ThreadedTCPSocket.obj
 0001:00080220       ?Grow@?$CUtlMemory@U?$UtlLinkedListElem_t@PAVCTCPPacket@@H@@H@@QAEXH@Z 10081220 f i vmpi:vmpi.obj
 0001:00080220       ?Grow@?$CUtlMemory@U?$UtlLinkedListElem_t@PAVCClientFileInfo@CMasterMulticastThread@@H@@H@@QAEXH@Z 10081220 f i vmpi:vmpi_filesystem_master.obj
 0001:00080220       ?Grow@?$CUtlMemory@VCFileResponse@@H@@QAEXH@Z 10081220 f i vmpi:vmpi_filesystem_worker.obj
 0001:00080220       ?Grow@?$CUtlMemory@UResourceMemorySection@CVTFTexture@@H@@QAEXH@Z 10081220 f i vtf:vtf.obj
 0001:000802c0       ?GiveUpTimeSlice@CRateLimiter@@QAEXXZ 100812c0 f   vmpi:vmpi_filesystem_master.obj
 0001:000803c0       ?TCP_SendNextChunk@CMasterMulticastThread@@AAEXPAVCMulticastFile@1@PAVCClientFileInfo@1@@Z 100813c0 f   vmpi:vmpi_filesystem_master.obj
 0001:00080490       ?Thread_SendFileChunk_Multicast@CMasterMulticastThread@@AAE_NPAH@Z 10081490 f i vmpi:vmpi_filesystem_master.obj
 0001:000806d0       ?RemoveAll@?$CUtlLinkedList@PAUSendData_t@CThreadedTCPSocket@@H$0A@HV?$CUtlMemory@U?$UtlLinkedListElem_t@PAUSendData_t@CThreadedTCPSocket@@H@@H@@@@QAEXXZ 100816d0 f i vmpi:ThreadedTCPSocket.obj
 0001:000806d0       ?RemoveAll@?$CUtlLinkedList@P6AXHPBD@ZH$0A@HV?$CUtlMemory@U?$UtlLinkedListElem_t@P6AXHPBD@ZH@@H@@@@QAEXXZ 100816d0 f i vmpi:vmpi.obj
 0001:000806d0       ?RemoveAll@?$CUtlLinkedList@PAVCClientFileInfo@CMasterMulticastThread@@H$0A@HV?$CUtlMemory@U?$UtlLinkedListElem_t@PAVCClientFileInfo@CMasterMulticastThread@@H@@H@@@@QAEXXZ 100816d0 f i vmpi:vmpi_filesystem_master.obj
 0001:000806d0       ?RemoveAll@?$CUtlLinkedList@PAVCPartitionInfo@@H$0A@HV?$CUtlMemory@U?$UtlLinkedListElem_t@PAVCPartitionInfo@@H@@H@@@@QAEXXZ 100816d0 f i vmpi:vmpi_distribute_work_default.obj
 0001:000806d0       ?RemoveAll@?$CUtlLinkedList@PAVCFileChunkPacket@@H$0A@HV?$CUtlMemory@U?$UtlLinkedListElem_t@PAVCFileChunkPacket@@H@@H@@@@QAEXXZ 100816d0 f i vmpi:vmpi_filesystem_worker.obj
 0001:000806d0       ?RemoveAll@?$CUtlLinkedList@PAVCWorkerFile@@H$0A@HV?$CUtlMemory@U?$UtlLinkedListElem_t@PAVCWorkerFile@@H@@H@@@@QAEXXZ 100816d0 f i vmpi:vmpi_filesystem_worker.obj
 0001:000806d0       ?RemoveAll@?$CUtlLinkedList@KH$0A@HV?$CUtlMemory@U?$UtlLinkedListElem_t@KH@@H@@@@QAEXXZ 100816d0 f i vmpi:threadhelpers.obj
 0001:000806d0       ?RemoveAll@?$CUtlLinkedList@PAVCMulticastFile@CMasterMulticastThread@@H$0A@HV?$CUtlMemory@U?$UtlLinkedListElem_t@PAVCMulticastFile@CMasterMulticastThread@@H@@H@@@@QAEXXZ 100816d0 f i vmpi:vmpi_filesystem_master.obj
 0001:000806d0       ?RemoveAll@?$CUtlLinkedList@PAVCChunkInfo@CMasterMulticastThread@@H$0A@HV?$CUtlMemory@U?$UtlLinkedListElem_t@PAVCChunkInfo@CMasterMulticastThread@@H@@H@@@@QAEXXZ 100816d0 f i vmpi:vmpi_filesystem_master.obj
 0001:000806d0       ?RemoveAll@?$CUtlLinkedList@PAVCTCPPacket@@H$0A@HV?$CUtlMemory@U?$UtlLinkedListElem_t@PAVCTCPPacket@@H@@H@@@@QAEXXZ 100816d0 f i vmpi:vmpi.obj
 0001:000806d0       ?RemoveAll@?$CUtlLinkedList@PAVCVMPIConnection@@H$0A@HV?$CUtlMemory@U?$UtlLinkedListElem_t@PAVCVMPIConnection@@H@@H@@@@QAEXXZ 100816d0 f i vmpi:vmpi.obj
 0001:000806d0       ?RemoveAll@?$CUtlLinkedList@PADH$0A@HV?$CUtlMemory@U?$UtlLinkedListElem_t@PADH@@H@@@@QAEXXZ 100816d0 f i vmpi:vmpi_filesystem_master.obj
 0001:00080730       ?AllocInternal@?$CUtlLinkedList@PAVCChunkInfo@CMasterMulticastThread@@H$0A@HV?$CUtlMemory@U?$UtlLinkedListElem_t@PAVCChunkInfo@CMasterMulticastThread@@H@@H@@@@IAEH_N@Z 10081730 f i vmpi:vmpi_filesystem_master.obj
 0001:00080730       ?AllocInternal@?$CUtlLinkedList@P6AXHPBD@ZH$0A@HV?$CUtlMemory@U?$UtlLinkedListElem_t@P6AXHPBD@ZH@@H@@@@IAEH_N@Z 10081730 f i vmpi:vmpi.obj
 0001:00080730       ?AllocInternal@?$CUtlLinkedList@PAVCClientFileInfo@CMasterMulticastThread@@H$0A@HV?$CUtlMemory@U?$UtlLinkedListElem_t@PAVCClientFileInfo@CMasterMulticastThread@@H@@H@@@@IAEH_N@Z 10081730 f i vmpi:vmpi_filesystem_master.obj
 0001:00080730       ?AllocInternal@?$CUtlLinkedList@PAVCFileChunkPacket@@H$0A@HV?$CUtlMemory@U?$UtlLinkedListElem_t@PAVCFileChunkPacket@@H@@H@@@@IAEH_N@Z 10081730 f i vmpi:vmpi_filesystem_worker.obj
 0001:00080730       ?AllocInternal@?$CUtlLinkedList@PAUSendData_t@CThreadedTCPSocket@@H$0A@HV?$CUtlMemory@U?$UtlLinkedListElem_t@PAUSendData_t@CThreadedTCPSocket@@H@@H@@@@IAEH_N@Z 10081730 f i vmpi:ThreadedTCPSocket.obj
 0001:00080730       ?AllocInternal@?$CUtlLinkedList@PAVCWorkerFile@@H$0A@HV?$CUtlMemory@U?$UtlLinkedListElem_t@PAVCWorkerFile@@H@@H@@@@IAEH_N@Z 10081730 f i vmpi:vmpi_filesystem_worker.obj
 0001:00080730       ?AllocInternal@?$CUtlLinkedList@PAVCTCPPacket@@H$0A@HV?$CUtlMemory@U?$UtlLinkedListElem_t@PAVCTCPPacket@@H@@H@@@@IAEH_N@Z 10081730 f i vmpi:vmpi.obj
 0001:00080730       ?AllocInternal@?$CUtlLinkedList@PAVCPartitionInfo@@H$0A@HV?$CUtlMemory@U?$UtlLinkedListElem_t@PAVCPartitionInfo@@H@@H@@@@IAEH_N@Z 10081730 f i vmpi:vmpi_distribute_work_default.obj
 0001:00080730       ?AllocInternal@?$CUtlLinkedList@PAVCVMPIConnection@@H$0A@HV?$CUtlMemory@U?$UtlLinkedListElem_t@PAVCVMPIConnection@@H@@H@@@@IAEH_N@Z 10081730 f i vmpi:vmpi.obj
 0001:00080730       ?AllocInternal@?$CUtlLinkedList@PAVCMulticastFile@CMasterMulticastThread@@H$0A@HV?$CUtlMemory@U?$UtlLinkedListElem_t@PAVCMulticastFile@CMasterMulticastThread@@H@@H@@@@IAEH_N@Z 10081730 f i vmpi:vmpi_filesystem_master.obj
 0001:00080830       ?FindFile@CMasterMulticastThread@@AAEHPBD0@Z 10081830 f   vmpi:vmpi_filesystem_master.obj
 0001:000808a0       ?EnsureMemoryLimit@CMasterMulticastThread@@AAEXPAVCMulticastFile@1@@Z 100818a0 f   vmpi:vmpi_filesystem_master.obj
 0001:00080910       ?InsertBefore@?$CUtlVector@VCMachineRecord@CTransmitRateMgr@@V?$CUtlMemory@VCMachineRecord@CTransmitRateMgr@@H@@@@QAEHH@Z 10081910 f i vmpi:vmpi_filesystem_master.obj
 0001:00080970       ?Unlink@?$CUtlLinkedList@PAVCTCPPacket@@H$0A@HV?$CUtlMemory@U?$UtlLinkedListElem_t@PAVCTCPPacket@@H@@H@@@@QAEXH@Z 10081970 f i vmpi:vmpi.obj
 0001:00080970       ?Unlink@?$CUtlLinkedList@P6AXHPBD@ZH$0A@HV?$CUtlMemory@U?$UtlLinkedListElem_t@P6AXHPBD@ZH@@H@@@@QAEXH@Z 10081970 f i vmpi:vmpi.obj
 0001:00080970       ?Unlink@?$CUtlLinkedList@PAVCClientFileInfo@CMasterMulticastThread@@H$0A@HV?$CUtlMemory@U?$UtlLinkedListElem_t@PAVCClientFileInfo@CMasterMulticastThread@@H@@H@@@@QAEXH@Z 10081970 f i vmpi:vmpi_filesystem_master.obj
 0001:00080970       ?Unlink@?$CUtlLinkedList@PAVCWorkerFile@@H$0A@HV?$CUtlMemory@U?$UtlLinkedListElem_t@PAVCWorkerFile@@H@@H@@@@QAEXH@Z 10081970 f i vmpi:vmpi_filesystem_worker.obj
 0001:00080970       ?Unlink@?$CUtlLinkedList@PAVCMulticastFile@CMasterMulticastThread@@H$0A@HV?$CUtlMemory@U?$UtlLinkedListElem_t@PAVCMulticastFile@CMasterMulticastThread@@H@@H@@@@QAEXH@Z 10081970 f i vmpi:vmpi_filesystem_master.obj
 0001:00080970       ?Unlink@?$CUtlLinkedList@PAVCFileChunkPacket@@H$0A@HV?$CUtlMemory@U?$UtlLinkedListElem_t@PAVCFileChunkPacket@@H@@H@@@@QAEXH@Z 10081970 f i vmpi:vmpi_filesystem_worker.obj
 0001:00080970       ?Unlink@?$CUtlLinkedList@PAVCChunkInfo@CMasterMulticastThread@@H$0A@HV?$CUtlMemory@U?$UtlLinkedListElem_t@PAVCChunkInfo@CMasterMulticastThread@@H@@H@@@@QAEXH@Z 10081970 f i vmpi:vmpi_filesystem_master.obj
 0001:00080970       ?Unlink@?$CUtlLinkedList@PAVCPartitionInfo@@H$0A@HV?$CUtlMemory@U?$UtlLinkedListElem_t@PAVCPartitionInfo@@H@@H@@@@QAEXH@Z 10081970 f i vmpi:vmpi_distribute_work_default.obj
 0001:00080970       ?Unlink@?$CUtlLinkedList@PAUSendData_t@CThreadedTCPSocket@@H$0A@HV?$CUtlMemory@U?$UtlLinkedListElem_t@PAUSendData_t@CThreadedTCPSocket@@H@@H@@@@QAEXH@Z 10081970 f i vmpi:ThreadedTCPSocket.obj
 0001:00080970       ?Unlink@?$CUtlLinkedList@PAVCVMPIConnection@@H$0A@HV?$CUtlMemory@U?$UtlLinkedListElem_t@PAVCVMPIConnection@@H@@H@@@@QAEXH@Z 10081970 f i vmpi:vmpi.obj
 0001:000809f0       ?InsertMultipleBefore@?$CUtlVector@VCChunkInfo@CMasterMulticastThread@@V?$CUtlMemory@VCChunkInfo@CMasterMulticastThread@@H@@@@QAEHHHPBVCChunkInfo@CMasterMulticastThread@@@Z 100819f0 f i vmpi:vmpi_filesystem_master.obj
 0001:00080aa0       ??0CTransmitRateMgr@@QAE@XZ 10081aa0 f   vmpi:vmpi_filesystem_master.obj
 0001:00080b70       ??0CMasterMulticastThread@@QAE@XZ 10081b70 f   vmpi:vmpi_filesystem_master.obj
 0001:00080c00       ??0CMulticastFile@CMasterMulticastThread@@QAE@XZ 10081c00 f i vmpi:vmpi_filesystem_master.obj
 0001:00080cd0       ?ReadPackets@CTransmitRateMgr@@QAEXXZ 10081cd0 f   vmpi:vmpi_filesystem_master.obj
 0001:00080eb0       ?PurgeAndDeleteElements@?$CUtlLinkedList@PAVCClientFileInfo@CMasterMulticastThread@@H$0A@HV?$CUtlMemory@U?$UtlLinkedListElem_t@PAVCClientFileInfo@CMasterMulticastThread@@H@@H@@@@QAEXXZ 10081eb0 f i vmpi:vmpi_filesystem_master.obj
 0001:00081090       ??1CMulticastFile@CMasterMulticastThread@@QAE@XZ 10082090 f i vmpi:vmpi_filesystem_master.obj
 0001:00081130       ?AddToTail@?$CUtlLinkedList@PAVCMulticastFile@CMasterMulticastThread@@H$0A@HV?$CUtlMemory@U?$UtlLinkedListElem_t@PAVCMulticastFile@CMasterMulticastThread@@H@@H@@@@QAEHABQAVCMulticastFile@CMasterMulticastThread@@@Z 10082130 f i vmpi:vmpi_filesystem_master.obj
 0001:00081130       ?AddToTail@?$CUtlLinkedList@PAVCPartitionInfo@@H$0A@HV?$CUtlMemory@U?$UtlLinkedListElem_t@PAVCPartitionInfo@@H@@H@@@@QAEHABQAVCPartitionInfo@@@Z 10082130 f i vmpi:vmpi_distribute_work_default.obj
 0001:00081130       ?AddToTail@?$CUtlLinkedList@PAVCVMPIConnection@@H$0A@HV?$CUtlMemory@U?$UtlLinkedListElem_t@PAVCVMPIConnection@@H@@H@@@@QAEHABQAVCVMPIConnection@@@Z 10082130 f i vmpi:vmpi.obj
 0001:00081130       ?AddToTail@?$CUtlLinkedList@PAVCTCPPacket@@H$0A@HV?$CUtlMemory@U?$UtlLinkedListElem_t@PAVCTCPPacket@@H@@H@@@@QAEHABQAVCTCPPacket@@@Z 10082130 f i vmpi:vmpi.obj
 0001:00081130       ?AddToTail@?$CUtlLinkedList@PAVCClientFileInfo@CMasterMulticastThread@@H$0A@HV?$CUtlMemory@U?$UtlLinkedListElem_t@PAVCClientFileInfo@CMasterMulticastThread@@H@@H@@@@QAEHABQAVCClientFileInfo@CMasterMulticastThread@@@Z 10082130 f i vmpi:vmpi_filesystem_master.obj
 0001:00081130       ?AddToTail@?$CUtlLinkedList@P6AXHPBD@ZH$0A@HV?$CUtlMemory@U?$UtlLinkedListElem_t@P6AXHPBD@ZH@@H@@@@QAEHABQ6AXHPBD@Z@Z 10082130 f i vmpi:vmpi.obj
 0001:00081130       ?AddToTail@?$CUtlLinkedList@PAVCChunkInfo@CMasterMulticastThread@@H$0A@HV?$CUtlMemory@U?$UtlLinkedListElem_t@PAVCChunkInfo@CMasterMulticastThread@@H@@H@@@@QAEHABQAVCChunkInfo@CMasterMulticastThread@@@Z 10082130 f i vmpi:vmpi_filesystem_master.obj
 0001:00081130       ?AddToTail@?$CUtlLinkedList@PAVCFileChunkPacket@@H$0A@HV?$CUtlMemory@U?$UtlLinkedListElem_t@PAVCFileChunkPacket@@H@@H@@@@QAEHABQAVCFileChunkPacket@@@Z 10082130 f i vmpi:vmpi_filesystem_worker.obj
 0001:00081190       ?PurgeAndDeleteElements@?$CUtlLinkedList@PAVCMulticastFile@CMasterMulticastThread@@H$0A@HV?$CUtlMemory@U?$UtlLinkedListElem_t@PAVCMulticastFile@CMasterMulticastThread@@H@@H@@@@QAEXXZ 10082190 f i vmpi:vmpi_filesystem_master.obj
 0001:00081220       ?Term@CMasterMulticastThread@@QAEXXZ 10082220 f   vmpi:vmpi_filesystem_master.obj
 0001:00081280       ?DecrementChunkRefCount@CMasterMulticastThread@@AAEXHH@Z 10082280 f   vmpi:vmpi_filesystem_master.obj
 0001:00081330       ?FinishFileSetup@CMasterMulticastThread@@AAEHPAVCMulticastFile@1@PBD1_N@Z 10082330 f   vmpi:vmpi_filesystem_master.obj
 0001:000814c0       ?Term@CMasterVMPIFileSystem@@UAEXXZ 100824c0 f   vmpi:vmpi_filesystem_master.obj
 0001:000814d0       ??1CMasterMulticastThread@@QAE@XZ 100824d0 f   vmpi:vmpi_filesystem_master.obj
 0001:00081560       ?OnChunkReceived@CMasterMulticastThread@@QAEXHHH@Z 10082560 f   vmpi:vmpi_filesystem_master.obj
 0001:000816b0       ?OnFileReceived@CMasterMulticastThread@@QAEXHH@Z 100826b0 f   vmpi:vmpi_filesystem_master.obj
 0001:00081720       ?OnClientDisconnect@CMasterMulticastThread@@QAEXH_N@Z 10082720 f   vmpi:vmpi_filesystem_master.obj
 0001:000818a0       ?CreateVirtualFile@CMasterMulticastThread@@QAEXPBDPBXK@Z 100828a0 f   vmpi:vmpi_filesystem_master.obj
 0001:00081910       ?CheckClientTimeouts@CMasterMulticastThread@@AAE_NXZ 10082910 f   vmpi:vmpi_filesystem_master.obj
 0001:00081a50       ?Thread_SeekToNextActiveChunk@CMasterMulticastThread@@AAEXXZ 10082a50 f   vmpi:vmpi_filesystem_master.obj
 0001:00081b30       ?MulticastThread@CMasterMulticastThread@@AAEKXZ 10082b30 f   vmpi:vmpi_filesystem_master.obj
 0001:00081d60       ?FindOrAddFile@CMasterMulticastThread@@QAEHPBD0@Z 10082d60 f   vmpi:vmpi_filesystem_master.obj
 0001:00081e70       ??0CMasterVMPIFileSystem@@QAE@XZ 10082e70 f   vmpi:vmpi_filesystem_master.obj
 0001:00081ec0       ?Open@CMasterVMPIFileSystem@@UAEPAXPBD00@Z 10082ec0 f   vmpi:vmpi_filesystem_master.obj
 0001:00081fe0       ?OnClientDisconnect@CMasterVMPIFileSystem@@CAXHPBD@Z 10082fe0 f   vmpi:vmpi_filesystem_master.obj
 0001:00082000       ?CreateVirtualFile@CMasterVMPIFileSystem@@UAEXPBDPBXH@Z 10083000 f   vmpi:vmpi_filesystem_master.obj
 0001:00082010       ?AddFileRequest@CMasterMulticastThread@@QAEHPBD0HPA_N@Z 10083010 f   vmpi:vmpi_filesystem_master.obj
 0001:000821c0       ?StaticMulticastThread@CMasterMulticastThread@@CGKPAX@Z 100831c0 f   vmpi:vmpi_filesystem_master.obj
 0001:000821d0       ??_ECMasterVMPIFileSystem@@UAEPAXI@Z 100831d0 f i vmpi:vmpi_filesystem_master.obj
 0001:000821d0       ??_GCMasterVMPIFileSystem@@UAEPAXI@Z 100831d0 f i vmpi:vmpi_filesystem_master.obj
 0001:00082210       ?HandleFileSystemPacket@CMasterVMPIFileSystem@@UAE_NPAVMessageBuffer@@HH@Z 10083210 f   vmpi:vmpi_filesystem_master.obj
 0001:00082380       ?Init@CMasterMulticastThread@@QAE_NPAVIBaseFileSystem@@GPBVCIPAddr@@H@Z 10083380 f   vmpi:vmpi_filesystem_master.obj
 0001:00082530       ?Init@CMasterVMPIFileSystem@@QAE_NHPAVIFileSystem@@@Z 10083530 f   vmpi:vmpi_filesystem_master.obj
 0001:000826a0       ?CreateMasterVMPIFileSystem@@YAPAVCBaseVMPIFileSystem@@HPAVIFileSystem@@@Z 100836a0 f   vmpi:vmpi_filesystem_master.obj
 0001:00082760       ?GetEventHandle@CEvent@@QBEPAXXZ 10083760 f   vmpi:threadhelpers.obj
 0001:00082760       ?GetUserData@CTCPPacket@@QBEHXZ 10083760 f   vmpi:ThreadedTCPSocket.obj
 0001:00082770       ?SetUserData@CTCPPacket@@QAEXH@Z 10083770 f   vmpi:ThreadedTCPSocket.obj
 0001:00082780       ?Release@CTCPPacket@@QAEXXZ 10083780 f   vmpi:ThreadedTCPSocket.obj
 0001:00082780       ?Close@CVMPIFile_Memory@@UAEXXZ 10083780 f   vmpi:vmpi_filesystem.obj
 0001:00082790       ?SetInitialSocketOptions@CThreadedTCPSocket@@AAEXXZ 10083790 f i vmpi:ThreadedTCPSocket.obj
 0001:000827f0       ?HandleError@CThreadedTCPSocket@@AAEXHPBD@Z 100837f0 f i vmpi:ThreadedTCPSocket.obj
 0001:00082820       ?Create@CTCPConnectSocket_Connector@@SAPAVITCPConnectSocket@@ABVCIPAddr@@0PAVIHandlerCreator@@@Z 10083820 f i vmpi:ThreadedTCPSocket.obj
 0001:00082920       ?EnterErrorMode@CTCPConnectSocket_Connector@@QAE_NXZ 10083920 f i vmpi:ThreadedTCPSocket.obj
 0001:00082940       ??_ECTCPConnectSocket_Connector@@UAEPAXI@Z 10083940 f i vmpi:ThreadedTCPSocket.obj
 0001:00082940       ??_GCTCPConnectSocket_Connector@@UAEPAXI@Z 10083940 f i vmpi:ThreadedTCPSocket.obj
 0001:00082970       ?ThreadedTCP_CreateConnector@@YAPAVITCPConnectSocket@@ABVCIPAddr@@0PAVIHandlerCreator@@@Z 10083970 f   vmpi:ThreadedTCPSocket.obj
 0001:00082980       ?ThreadedTCP_EnableTimeouts@@YAX_N@Z 10083980 f   vmpi:ThreadedTCPSocket.obj
 0001:00082990       ?ThreadedTCP_SetTCPSocketThreadPriorities@@YAX_N@Z 10083990 f   vmpi:ThreadedTCPSocket.obj
 0001:000829a0       ?HandleError@CThreadedTCPSocket@@AAEXK@Z 100839a0 f i vmpi:ThreadedTCPSocket.obj
 0001:00082a30       ?Release@CTCPConnectSocket_Listener@@UAEXXZ 10083a30 f i vmpi:ThreadedTCPSocket.obj
 0001:00082a30       ?Release@CTCPConnectSocket_Connector@@UAEXXZ 10083a30 f i vmpi:ThreadedTCPSocket.obj
 0001:00082a40       ??_GCTCPConnectSocket_Listener@@UAEPAXI@Z 10083a40 f i vmpi:ThreadedTCPSocket.obj
 0001:00082a40       ??_ECTCPConnectSocket_Listener@@UAEPAXI@Z 10083a40 f i vmpi:ThreadedTCPSocket.obj
 0001:00082a70       ?Create@CTCPConnectSocket_Listener@@SAPAVITCPConnectSocket@@PAVIHandlerCreator@@GH@Z 10083a70 f i vmpi:ThreadedTCPSocket.obj
 0001:00082b20       ?ThreadedTCP_CreateListener@@YAPAVITCPConnectSocket@@PAVIHandlerCreator@@GH@Z 10083b20 f   vmpi:ThreadedTCPSocket.obj
 0001:00082b30       ?SendThread_HandleReadyToSendEvent@CThreadedTCPSocket@@AAE_NXZ 10083b30 f i vmpi:ThreadedTCPSocket.obj
 0001:00082bf0       ?RecvThread_InternalRecv@CThreadedTCPSocket@@AAE_NPAXH_N1@Z 10083bf0 f i vmpi:ThreadedTCPSocket.obj
 0001:00082ca0       ?RecvThread_InternalHandleRecvCompletion@CThreadedTCPSocket@@AAE_NK@Z 10083ca0 f i vmpi:ThreadedTCPSocket.obj
 0001:00082e50       ?RecvThreadFn@CThreadedTCPSocket@@AAEKXZ 10083e50 f i vmpi:ThreadedTCPSocket.obj
 0001:00082fd0       ?StaticRecvThreadFn@CThreadedTCPSocket@@CGKPAX@Z 10083fd0 f i vmpi:ThreadedTCPSocket.obj
 0001:00082fe0       ??0CThreadedTCPSocket@@AAE@XZ 10083fe0 f i vmpi:ThreadedTCPSocket.obj
 0001:000830d0       ?GetRemoteAddr@CThreadedTCPSocket@@UBE?AVCIPAddr@@XZ 100840d0 f i vmpi:ThreadedTCPSocket.obj
 0001:000830f0       ?Send@CThreadedTCPSocket@@UAE_NPBXH@Z 100840f0 f i vmpi:ThreadedTCPSocket.obj
 0001:00083110       ?Term@CThreadedTCPSocket@@AAEXXZ 10084110 f i vmpi:ThreadedTCPSocket.obj
 0001:000831a0       ?IsValid@CThreadedTCPSocket@@UAE_NXZ 100841a0 f i vmpi:ThreadedTCPSocket.obj
 0001:000831b0       ??1CThreadedTCPSocket@@EAE@XZ 100841b0 f i vmpi:ThreadedTCPSocket.obj
 0001:00083230       ??_GCThreadedTCPSocket@@EAEPAXI@Z 10084230 f i vmpi:ThreadedTCPSocket.obj
 0001:00083230       ??_ECThreadedTCPSocket@@EAEPAXI@Z 10084230 f i vmpi:ThreadedTCPSocket.obj
 0001:00083250       ?SendThread_HandleSendCompletionEvent@CThreadedTCPSocket@@AAE_NXZ 10084250 f i vmpi:ThreadedTCPSocket.obj
 0001:00083380       ?InternalSend@CThreadedTCPSocket@@AAE_NPBQBXPBHH_N@Z 10084380 f i vmpi:ThreadedTCPSocket.obj
 0001:000834b0       ?SendThread_HandleTimeout@CThreadedTCPSocket@@AAEXXZ 100844b0 f i vmpi:ThreadedTCPSocket.obj
 0001:00083520       ?SendThreadFn@CThreadedTCPSocket@@AAEKXZ 10084520 f i vmpi:ThreadedTCPSocket.obj
 0001:00083660       ?StaticSendThreadFn@CThreadedTCPSocket@@CGKPAX@Z 10084660 f i vmpi:ThreadedTCPSocket.obj
 0001:00083670       ?SendChunks@CThreadedTCPSocket@@UAE_NPBQBXPBHH@Z 10084670 f i vmpi:ThreadedTCPSocket.obj
 0001:000836a0       ?Init@CThreadedTCPSocket@@AAE_NIVCIPAddr@@PAVITCPSocketHandler@@@Z 100846a0 f i vmpi:ThreadedTCPSocket.obj
 0001:000837e0       ?Create@CThreadedTCPSocket@@SAPAVIThreadedTCPSocket@@IVCIPAddr@@PAVITCPSocketHandler@@@Z 100847e0 f i vmpi:ThreadedTCPSocket.obj
 0001:00083840       ?Update@CTCPConnectSocket_Listener@@UAE_NPAPAVIThreadedTCPSocket@@K@Z 10084840 f i vmpi:ThreadedTCPSocket.obj
 0001:00083970       ?Update@CTCPConnectSocket_Connector@@UAE_NPAPAVIThreadedTCPSocket@@K@Z 10084970 f i vmpi:ThreadedTCPSocket.obj
 0001:00083a90       ?Init@CIPAddr@@QAEXHHHHH@Z 10084a90 f   vmpi:iphelpers.obj
 0001:00083ac0       ?IPAddrToSockAddr@@YAXPBVCIPAddr@@PAUsockaddr_in@@@Z 10084ac0 f   vmpi:iphelpers.obj
 0001:00083b10       ?SockAddrToIPAddr@@YAXPBUsockaddr_in@@PAVCIPAddr@@@Z 10084b10 f   vmpi:iphelpers.obj
 0001:00083b50       ?ConvertStringToIPAddr@@YA_NPBDPAVCIPAddr@@@Z 10084b50 f   vmpi:iphelpers.obj
 0001:00083c80       ?IP_GetLastErrorString@@YAXPADH@Z 10084c80 f   vmpi:iphelpers.obj
 0001:00083cd0       ?SampleMilliseconds@@YAKXZ 10084cd0 f   vmpi:iphelpers.obj
 0001:00083d20       ??0CWaitTimer@@QAE@N@Z     10084d20 f   vmpi:iphelpers.obj
 0001:00083db0       ?ShouldKeepWaiting@CWaitTimer@@QAE_NXZ 10084db0 f   vmpi:iphelpers.obj
 0001:00083de0       ??0CIPAddr@@QAE@XZ         10084de0 f   vmpi:iphelpers.obj
 0001:00083e00       ??0CIPAddr@@QAE@HHHHH@Z    10084e00 f   vmpi:iphelpers.obj
 0001:00083e30       ?Release@CIPSocket@@UAEXXZ 10084e30 f i vmpi:iphelpers.obj
 0001:00083e40       ?Bind@CIPSocket@@UAE_NPBVCIPAddr@@@Z 10084e40 f i vmpi:iphelpers.obj
 0001:00083e70       ?ListenToMulticastStream@CIPSocket@@UAE_NABVCIPAddr@@0@Z 10084e70 f i vmpi:iphelpers.obj
 0001:00083f20       ?SendTo@CIPSocket@@UAE_NPBVCIPAddr@@PBXH@Z 10084f20 f i vmpi:iphelpers.obj
 0001:00083f40       ?SendChunksTo@CIPSocket@@UAE_NPBVCIPAddr@@PBQBXPBHH@Z 10084f40 f i vmpi:iphelpers.obj
 0001:00084070       ?CreateSocket@CIPSocket@@UAE_NXZ 10085070 f i vmpi:iphelpers.obj
 0001:00084100       ?BindPart2@CIPSocket@@UAE_NPBVCIPAddr@@@Z 10085100 f i vmpi:iphelpers.obj
 0001:000841c0       ?BindToAny@CIPSocket@@UAE_NG@Z 100851c0 f i vmpi:iphelpers.obj
 0001:000841f0       ?Broadcast@CIPSocket@@UAE_NPBXHG@Z 100851f0 f i vmpi:iphelpers.obj
 0001:00084270       ?RecvFrom@CIPSocket@@UAEHPAXHPAVCIPAddr@@@Z 10085270 f i vmpi:iphelpers.obj
 0001:00084340       ?GetRecvTimeout@CIPSocket@@UAENXZ 10085340 f i vmpi:iphelpers.obj
 0001:00084380       ??_GCIPSocket@@UAEPAXI@Z   10085380 f i vmpi:iphelpers.obj
 0001:00084380       ??_ECIPSocket@@UAEPAXI@Z   10085380 f i vmpi:iphelpers.obj
 0001:000843e0       ?CreateIPSocket@@YAPAVISocket@@XZ 100853e0 f   vmpi:iphelpers.obj
 0001:00084410       ?CreateMulticastListenSocket@@YAPAVISocket@@ABVCIPAddr@@0@Z 10085410 f   vmpi:iphelpers.obj
 0001:000844a0       ?Grow@?$CUtlMemory@U?$UtlLinkedListElem_t@_K_K@@_K@@QAEXH@Z 100854a0 f i vmpi:vmpi_distribute_work_sdk.obj
 0001:000844a0       ?Grow@?$CUtlMemory@VCWUStatus@@H@@QAEXH@Z 100854a0 f i vmpi:vmpi_distribute_tracker.obj
 0001:000844a0       ?Grow@?$CUtlMemory@VCWorkUnit@@H@@QAEXH@Z 100854a0 f i vmpi:vmpi_distribute_tracker.obj
 0001:00084540       ?Grow@?$CUtlMemory@U?$UtlLinkedListElem_t@_KH@@H@@QAEXH@Z 10085540 f i vmpi:vmpi_distribute_work_default.obj
 0001:00084540       ?Grow@?$CUtlMemory@VCWorkUnitEvent@@H@@QAEXH@Z 10085540 f i vmpi:vmpi_distribute_tracker.obj
 0001:00084540       ?Grow@?$CUtlMemory@VCWorkerInfo@CWorkUnitWalker@@H@@QAEXH@Z 10085540 f i vmpi:vmpi_distribute_work_sdk.obj
 0001:00084540       ?Grow@?$CUtlMemory@U?$UtlLinkedListElem_t@VCWorkUnitInfo@@H@@H@@QAEXH@Z 10085540 f i vmpi:vmpi_distribute_work_default.obj
 0001:000847c0       ?VMPITracker_WriteDebugFile@@YA_NPBD@Z 100857c0 f   vmpi:vmpi_distribute_tracker.obj
 0001:000849f0       ?VMPITracker_HandleDebugKeypresses@@YAXXZ 100859f0 f   vmpi:vmpi_distribute_tracker.obj
 0001:00084b90       ?InsertMultipleBefore@?$CUtlVector@VCWUStatus@@V?$CUtlMemory@VCWUStatus@@H@@@@QAEHHHPBVCWUStatus@@@Z 10085b90 f i vmpi:vmpi_distribute_tracker.obj
 0001:00084c90       ?InsertBefore@?$CUtlVector@VCWorkUnitEvent@@V?$CUtlMemory@VCWorkUnitEvent@@H@@@@QAEHHABVCWorkUnitEvent@@@Z 10085c90 f i vmpi:vmpi_distribute_tracker.obj
 0001:00084d10       ?VMPITracker_WorkUnitSentToWorker@@YAXHH@Z 10085d10 f   vmpi:vmpi_distribute_tracker.obj
 0001:00084d70       ?VMPITracker_WorkUnitStarted@@YAXHH@Z 10085d70 f   vmpi:vmpi_distribute_tracker.obj
 0001:00084dd0       ?VMPITracker_WorkUnitCompleted@@YAXHH@Z 10085dd0 f   vmpi:vmpi_distribute_tracker.obj
 0001:000852b0       ?RemoveAll@?$CUtlVector@VCWorkUnit@@V?$CUtlMemory@VCWorkUnit@@H@@@@QAEXXZ 100862b0 f i vmpi:vmpi_distribute_tracker.obj
 0001:00085350       ??4?$CUtlVector@VCWorkUnitEvent@@V?$CUtlMemory@VCWorkUnitEvent@@H@@@@QAEAAV0@ABV0@@Z 10086350 f i vmpi:vmpi_distribute_tracker.obj
 0001:000853b0       ?VMPITracker_End@@YAXXZ    100863b0 f   vmpi:vmpi_distribute_tracker.obj
 0001:00085420       ??1?$CUtlVector@VCWorkUnit@@V?$CUtlMemory@VCWorkUnit@@H@@@@QAE@XZ 10086420 f i vmpi:vmpi_distribute_tracker.obj
 0001:00085480       ?InsertMultipleBefore@?$CUtlVector@VCWorkUnit@@V?$CUtlMemory@VCWorkUnit@@H@@@@QAEHHHPBVCWorkUnit@@@Z 10086480 f i vmpi:vmpi_distribute_tracker.obj
 0001:00085570       ?VMPITracker_Start@@YAXH@Z 10086570 f   vmpi:vmpi_distribute_tracker.obj
 0001:00085620       ?Get@?$CVisibleWindowVectorT@EV?$CVisibleWindowVector@E@@@@QAEAAE_K@Z 10086620 f i vmpi:vmpi_distribute_work_default.obj
 0001:00085670       ?EnsureCapacity@?$CUtlVector@EV?$CUtlMemory@EH@@@@QAEXH@Z 10086670 f i vmpi:vmpi_distribute_work_default.obj
 0001:000856d0       ?RemoveAll@?$CUtlLinkedList@_KH$0A@HV?$CUtlMemory@U?$UtlLinkedListElem_t@_KH@@H@@@@QAEXXZ 100866d0 f i vmpi:vmpi_distribute_work_default.obj
 0001:000856d0       ?RemoveAll@?$CUtlLinkedList@VCWorkUnitInfo@@H$0A@HV?$CUtlMemory@U?$UtlLinkedListElem_t@VCWorkUnitInfo@@H@@H@@@@QAEXXZ 100866d0 f i vmpi:vmpi_distribute_work_default.obj
 0001:00085730       ?ShrinkWindow@?$CVisibleWindowVectorT@EV?$CVisibleWindowVector@E@@@@QAEX_K@Z 10086730 f i vmpi:vmpi_distribute_work_default.obj
 0001:000857a0       ?NoteLocalWorkUnitCompleted@CDistributor_DefaultWorker@@UAEX_K@Z 100867a0 f i vmpi:vmpi_distribute_work_default.obj
 0001:000857b0       ?AllocInternal@?$CUtlLinkedList@VCWorkUnitInfo@@H$0A@HV?$CUtlMemory@U?$UtlLinkedListElem_t@VCWorkUnitInfo@@H@@H@@@@IAEH_N@Z 100867b0 f i vmpi:vmpi_distribute_work_default.obj
 0001:000857b0       ?AllocInternal@?$CUtlLinkedList@_KH$0A@HV?$CUtlMemory@U?$UtlLinkedListElem_t@_KH@@H@@@@IAEH_N@Z 100867b0 f i vmpi:vmpi_distribute_work_default.obj
 0001:000858b0       ?Purge@?$CUtlLinkedList@_KH$0A@HV?$CUtlMemory@U?$UtlLinkedListElem_t@_KH@@H@@@@QAEXXZ 100868b0 f i vmpi:vmpi_distribute_work_default.obj
 0001:00085900       ?ExpandWindow@?$CVisibleWindowVectorT@EV?$CVisibleWindowVector@E@@@@QAEX_KABE@Z 10086900 f i vmpi:vmpi_distribute_work_default.obj
 0001:000859a0       ?PrepareForWorkUnits@CWorkUnitsTracker@@QAEX_K@Z 100869a0 f   vmpi:vmpi_distribute_work_default.obj
 0001:00085a50       ?WorkUnitFinished@CWorkUnitsTracker@@QAE_K_K@Z 10086a50 f   vmpi:vmpi_distribute_work_default.obj
 0001:00085bb0       ?CreateWUDistributor_DefaultWorker@@YAPAVIWorkUnitDistributorWorker@@XZ 10086bb0 f   vmpi:vmpi_distribute_work_default.obj
 0001:00085c00       ?Release@CDistributor_DefaultWorker@@UAEXXZ 10086c00 f i vmpi:vmpi_distribute_work_default.obj
 0001:00085c50       ?GetNextWorkUnit@CDistributor_DefaultWorker@@UAE_NPA_K@Z 10086c50 f i vmpi:vmpi_distribute_work_default.obj
 0001:00085ce0       ??0CDistributor_DefaultMaster@@QAE@XZ 10086ce0 f i vmpi:vmpi_distribute_work_default.obj
 0001:00085d50       ?HandlePacket@CDistributor_DefaultMaster@@UAE_NPAVMessageBuffer@@H_N@Z 10086d50 f i vmpi:vmpi_distribute_work_default.obj
 0001:00085d60       ?Grow@?$CUtlMemory@U?$UtlRBTreeNode_t@UNode_t@?$CUtlMap@PAV?$CUtlLinkedList@_KH$0A@HV?$CUtlMemory@U?$UtlLinkedListElem_t@_KH@@H@@@@HG@@G@@G@@QAEXH@Z 10086d60 f i vmpi:vmpi_distribute_work_default.obj
 0001:00085e20       ?Links@?$CUtlRBTree@UNode_t@?$CUtlMap@PAV?$CUtlLinkedList@_KH$0A@HV?$CUtlMemory@U?$UtlLinkedListElem_t@_KH@@H@@@@HG@@GVCKeyLess@2@V?$CUtlMemory@U?$UtlRBTreeNode_t@UNode_t@?$CUtlMap@PAV?$CUtlLinkedList@_KH$0A@HV?$CUtlMemory@U?$UtlLinkedListElem_t@_KH@@H@@@@HG@@G@@G@@@@IBEABU?$UtlRBTreeLinks_t@G@@G@Z 10086e20 f i vmpi:vmpi_distribute_work_default.obj
 0001:00085e80       ?Get@?$CVisibleWindowVectorT@VCWULookupInfo@@V?$CVisibleWindowVector@VCWULookupInfo@@@@@@QAEAAVCWULookupInfo@@_K@Z 10086e80 f i vmpi:vmpi_distribute_work_default.obj
 0001:00085ed0       ?RemoveMultiple@?$CUtlVector@VCWULookupInfo@@V?$CUtlMemory@VCWULookupInfo@@H@@@@QAEXHH@Z 10086ed0 f i vmpi:vmpi_distribute_work_default.obj
 0001:00085f20       ?InsertMultipleBefore@?$CUtlVector@VCWULookupInfo@@V?$CUtlMemory@VCWULookupInfo@@H@@@@QAEHHHPBVCWULookupInfo@@@Z 10086f20 f i vmpi:vmpi_distribute_work_default.obj
 0001:00086000       ?NewNode@?$CUtlRBTree@UNode_t@?$CUtlMap@PAV?$CUtlLinkedList@_KH$0A@HV?$CUtlMemory@U?$UtlLinkedListElem_t@_KH@@H@@@@HG@@GVCKeyLess@2@V?$CUtlMemory@U?$UtlRBTreeNode_t@UNode_t@?$CUtlMap@PAV?$CUtlLinkedList@_KH$0A@HV?$CUtlMemory@U?$UtlLinkedListElem_t@_KH@@H@@@@HG@@G@@G@@@@QAEGXZ 10087000 f i vmpi:vmpi_distribute_work_default.obj
 0001:000860f0       ?RotateLeft@?$CUtlRBTree@UNode_t@?$CUtlMap@PAV?$CUtlLinkedList@_KH$0A@HV?$CUtlMemory@U?$UtlLinkedListElem_t@_KH@@H@@@@HG@@GVCKeyLess@2@V?$CUtlMemory@U?$UtlRBTreeNode_t@UNode_t@?$CUtlMap@PAV?$CUtlLinkedList@_KH$0A@HV?$CUtlMemory@U?$UtlLinkedListElem_t@_KH@@H@@@@HG@@G@@G@@@@IAEXG@Z 100870f0 f i vmpi:vmpi_distribute_work_default.obj
 0001:000861e0       ?RotateRight@?$CUtlRBTree@UNode_t@?$CUtlMap@PAV?$CUtlLinkedList@_KH$0A@HV?$CUtlMemory@U?$UtlLinkedListElem_t@_KH@@H@@@@HG@@GVCKeyLess@2@V?$CUtlMemory@U?$UtlRBTreeNode_t@UNode_t@?$CUtlMap@PAV?$CUtlLinkedList@_KH$0A@HV?$CUtlMemory@U?$UtlLinkedListElem_t@_KH@@H@@@@HG@@G@@G@@@@IAEXG@Z 100871e0 f i vmpi:vmpi_distribute_work_default.obj
 0001:00086400       ?FindPartitionByWorker@CDistributor_DefaultMaster@@QAEHH@Z 10087400 f i vmpi:vmpi_distribute_work_default.obj
 0001:00086430       ?SendPartitionToWorker@CDistributor_DefaultMaster@@QAEXPAVCPartitionInfo@@H@Z 10087430 f i vmpi:vmpi_distribute_work_default.obj
 0001:000864d0       ?ShrinkWindow@?$CVisibleWindowVectorT@VCWULookupInfo@@V?$CVisibleWindowVector@VCWULookupInfo@@@@@@QAEX_K@Z 100874d0 f i vmpi:vmpi_distribute_work_default.obj
 0001:00086530       ?FirstInorder@?$CUtlRBTree@UNode_t@?$CUtlMap@PAV?$CUtlLinkedList@_KH$0A@HV?$CUtlMemory@U?$UtlLinkedListElem_t@_KH@@H@@@@HG@@GVCKeyLess@2@V?$CUtlMemory@U?$UtlRBTreeNode_t@UNode_t@?$CUtlMap@PAV?$CUtlLinkedList@_KH$0A@HV?$CUtlMemory@U?$UtlLinkedListElem_t@_KH@@H@@@@HG@@G@@G@@@@QBEGXZ 10087530 f i vmpi:vmpi_distribute_work_default.obj
 0001:000865e0       ?FindInsertionPosition@?$CUtlRBTree@UNode_t@?$CUtlMap@PAV?$CUtlLinkedList@_KH$0A@HV?$CUtlMemory@U?$UtlLinkedListElem_t@_KH@@H@@@@HG@@GVCKeyLess@2@V?$CUtlMemory@U?$UtlRBTreeNode_t@UNode_t@?$CUtlMap@PAV?$CUtlLinkedList@_KH$0A@HV?$CUtlMemory@U?$UtlLinkedListElem_t@_KH@@H@@@@HG@@G@@G@@@@IAEXABUNode_t@?$CUtlMap@PAV?$CUtlLinkedList@_KH$0A@HV?$CUtlMemory@U?$UtlLinkedListElem_t@_KH@@H@@@@HG@@AAGAA_N@Z 100875e0 f i vmpi:vmpi_distribute_work_default.obj
 0001:000866f0       ?Unlink@?$CUtlLinkedList@_KH$0A@HV?$CUtlMemory@U?$UtlLinkedListElem_t@_KH@@H@@@@QAEXH@Z 100876f0 f i vmpi:vmpi_distribute_work_default.obj
 0001:000866f0       ?Unlink@?$CUtlLinkedList@VCWorkUnitInfo@@H$0A@HV?$CUtlMemory@U?$UtlLinkedListElem_t@VCWorkUnitInfo@@H@@H@@@@QAEXH@Z 100876f0 f i vmpi:vmpi_distribute_work_default.obj
 0001:00086770       ?RemoveAll@?$CUtlRBTree@UNode_t@?$CUtlMap@PAV?$CUtlLinkedList@_KH$0A@HV?$CUtlMemory@U?$UtlLinkedListElem_t@_KH@@H@@@@HG@@GVCKeyLess@2@V?$CUtlMemory@U?$UtlRBTreeNode_t@UNode_t@?$CUtlMap@PAV?$CUtlLinkedList@_KH$0A@HV?$CUtlMemory@U?$UtlLinkedListElem_t@_KH@@H@@@@HG@@G@@G@@@@QAEXXZ 10087770 f i vmpi:vmpi_distribute_work_default.obj
 0001:00086830       ?InsertRebalance@?$CUtlRBTree@UNode_t@?$CUtlMap@PAV?$CUtlLinkedList@_KH$0A@HV?$CUtlMemory@U?$UtlLinkedListElem_t@_KH@@H@@@@HG@@GVCKeyLess@2@V?$CUtlMemory@U?$UtlRBTreeNode_t@UNode_t@?$CUtlMap@PAV?$CUtlLinkedList@_KH$0A@HV?$CUtlMemory@U?$UtlLinkedListElem_t@_KH@@H@@@@HG@@G@@G@@@@IAEXG@Z 10087830 f i vmpi:vmpi_distribute_work_default.obj
 0001:00086e10       ?DisconnectHandler@CDistributor_DefaultMaster@@UAEXH@Z 10087e10 f i vmpi:vmpi_distribute_work_default.obj
 0001:00086e60       ?ExpandWindow@?$CVisibleWindowVectorT@VCWULookupInfo@@V?$CVisibleWindowVector@VCWULookupInfo@@@@@@QAEX_K@Z 10087e60 f i vmpi:vmpi_distribute_work_default.obj
 0001:00086ea0       ?DistributeWork_Master@CDistributor_DefaultMaster@@UAEXPAVCDSInfo@@@Z 10087ea0 f i vmpi:vmpi_distribute_work_default.obj
 0001:00086f70       ??_GCPartitionInfo@@QAEPAXI@Z 10087f70 f i vmpi:vmpi_distribute_work_default.obj
 0001:00086fc0       ?Remove@?$CUtlLinkedList@PAVCPartitionInfo@@H$0A@HV?$CUtlMemory@U?$UtlLinkedListElem_t@PAVCPartitionInfo@@H@@H@@@@QAEXH@Z 10087fc0 f i vmpi:vmpi_distribute_work_default.obj
 0001:00086ff0       ??1CDistributor_DefaultMaster@@QAE@XZ 10087ff0 f i vmpi:vmpi_distribute_work_default.obj
 0001:00087070       ?AddToTail@?$CUtlLinkedList@_KH$0A@HV?$CUtlMemory@U?$UtlLinkedListElem_t@_KH@@H@@@@QAEHAB_K@Z 10088070 f i vmpi:vmpi_distribute_work_default.obj
 0001:000870d0       ?AddPartition@CDistributor_DefaultMaster@@QAEPAVCPartitionInfo@@H@Z 100880d0 f i vmpi:vmpi_distribute_work_default.obj
 0001:00087130       ?SplitWUsPartition@CDistributor_DefaultMaster@@QAE_NPAVCPartitionInfo@@PAPAV2@1HH@Z 10088130 f i vmpi:vmpi_distribute_work_default.obj
 0001:000872e0       ?HandlePacket@CDistributor_DefaultWorker@@UAE_NPAVMessageBuffer@@H_N@Z 100882e0 f i vmpi:vmpi_distribute_work_default.obj
 0001:000873b0       ?CreateWUDistributor_DefaultMaster@@YAPAVIWorkUnitDistributorMaster@@XZ 100883b0 f   vmpi:vmpi_distribute_work_default.obj
 0001:000873d0       ?Release@CDistributor_DefaultMaster@@UAEXXZ 100883d0 f i vmpi:vmpi_distribute_work_default.obj
 0001:000873f0       ?FindSoonestPartition@CDistributor_DefaultMaster@@QAEHXZ 100883f0 f i vmpi:vmpi_distribute_work_default.obj
 0001:000875e0       ?AssignWUsToWorker@CDistributor_DefaultMaster@@QAEXH@Z 100885e0 f i vmpi:vmpi_distribute_work_default.obj
 0001:00087c60       ?OnWorkerReady@CDistributor_DefaultMaster@@UAEXH@Z 10088c60 f i vmpi:vmpi_distribute_work_default.obj
 0001:00087c70       ?HandleWorkUnitResults@CDistributor_DefaultMaster@@UAE_N_K@Z 10088c70 f i vmpi:vmpi_distribute_work_default.obj
 0001:00087eb0       ?Next@?$CUtlMemory@U?$UtlLinkedListElem_t@_K_K@@_K@@QBE?AVIterator_t@1@ABV21@@Z 10088eb0 f i vmpi:vmpi_distribute_work_sdk.obj
 0001:00087ef0       ?RemoveAll@?$CUtlLinkedList@_K_K$0A@_KV?$CUtlMemory@U?$UtlLinkedListElem_t@_K_K@@_K@@@@QAEXXZ 10088ef0 f i vmpi:vmpi_distribute_work_sdk.obj
 0001:00087f80       ??0CShuffledWorkUnitWalker@@QAE@XZ 10088f80 f i vmpi:vmpi_distribute_work_sdk.obj
 0001:00088020       ??1CShuffledWorkUnitWalker@@QAE@XZ 10089020 f i vmpi:vmpi_distribute_work_sdk.obj
 0001:00088090       ?ReadWUIndex@CDSInfo@@QAEXPA_KPAVMessageBuffer@@@Z 10089090 f i vmpi:vmpi_distribute_work_sdk.obj
 0001:00088110       ?RequestShuffle@CDistributor_SDKWorker@@UAEXXZ 10089110 f i vmpi:vmpi_distribute_work_sdk.obj
 0001:00088150       ?GetNextWorkUnit@CWorkUnitWalker@@QAE_NHPA_KPA_N@Z 10089150 f i vmpi:vmpi_distribute_work_sdk.obj
 0001:00088220       ?Thread_GetNextWorkUnit@CShuffledWorkUnitWalker@@QAE_NHPA_K@Z 10089220 f i vmpi:vmpi_distribute_work_sdk.obj
 0001:00088340       ?GetNextWorkUnit@CDistributor_SDKWorker@@UAE_NPA_K@Z 10089340 f i vmpi:vmpi_distribute_work_sdk.obj
 0001:00088370       ?NoteLocalWorkUnitCompleted@CDistributor_SDKWorker@@UAEX_K@Z 10089370 f i vmpi:vmpi_distribute_work_sdk.obj
 0001:000883c0       ?AllocInternal@?$CUtlLinkedList@_K_K$0A@_KV?$CUtlMemory@U?$UtlLinkedListElem_t@_K_K@@_K@@@@IAE_K_N@Z 100893c0 f i vmpi:vmpi_distribute_work_sdk.obj
 0001:00088510       ?GetShuffleCRC@CShuffledWorkUnitWalker@@QAEKXZ 10089510 f i vmpi:vmpi_distribute_work_sdk.obj
 0001:00088610       ?InsertMultipleBefore@?$CUtlVector@VCWorkerInfo@CWorkUnitWalker@@V?$CUtlMemory@VCWorkerInfo@CWorkUnitWalker@@H@@@@QAEHHHPBVCWorkerInfo@CWorkUnitWalker@@@Z 10089610 f i vmpi:vmpi_distribute_work_sdk.obj
 0001:00088610       ?InsertMultipleBefore@?$CUtlVector@VCWorkUnitEvent@@V?$CUtlMemory@VCWorkUnitEvent@@H@@@@QAEHHHPBVCWorkUnitEvent@@@Z 10089610 f i vmpi:vmpi_distribute_tracker.obj
 0001:000886c0       ?Unlink@?$CUtlLinkedList@_K_K$0A@_KV?$CUtlMemory@U?$UtlLinkedListElem_t@_K_K@@_K@@@@QAEX_K@Z 100896c0 f i vmpi:vmpi_distribute_work_sdk.obj
 0001:00088780       ?Init@CWorkUnitWalker@@QAEX_K00@Z 10089780 f i vmpi:vmpi_distribute_work_sdk.obj
 0001:00088830       ?Shuffle@CShuffledWorkUnitWalker@@QAEXH@Z 10089830 f i vmpi:vmpi_distribute_work_sdk.obj
 0001:00088970       ?Thread_NoteWorkUnitCompleted@CShuffledWorkUnitWalker@@QAEX_K@Z 10089970 f i vmpi:vmpi_distribute_work_sdk.obj
 0001:00088a10       ?HandlePacket@CDistributor_SDKWorker@@UAE_NPAVMessageBuffer@@H_N@Z 10089a10 f i vmpi:vmpi_distribute_work_sdk.obj
 0001:00088b30       ??0CDistributor_SDKMaster@@QAE@XZ 10089b30 f i vmpi:vmpi_distribute_work_sdk.obj
 0001:00088bb0       ?WriteWUIndex@CDSInfo@@QAEX_KPAVMessageBuffer@@@Z 10089bb0 f i vmpi:vmpi_distribute_work_sdk.obj
 0001:00088c30       ?RequestShuffle@CDistributor_SDKMaster@@UAEXXZ 10089c30 f i vmpi:vmpi_distribute_work_sdk.obj
 0001:00088c40       ?HandlePacket@CDistributor_SDKMaster@@UAE_NPAVMessageBuffer@@H_N@Z 10089c40 f i vmpi:vmpi_distribute_work_sdk.obj
 0001:00088c70       ?Thread_IsWorkUnitCompleted@CShuffledWorkUnitWalker@@QAE_N_K@Z 10089c70 f i vmpi:vmpi_distribute_work_sdk.obj
 0001:00088cd0       ?Master_WorkerThread@CDistributor_SDKMaster@@QAEXH@Z 10089cd0 f i vmpi:vmpi_distribute_work_sdk.obj
 0001:00088df0       ?BuildWUsCompletedMessage@CDistributor_SDKMaster@@QAEHAAV?$CUtlVector@_KV?$CUtlMemory@_KH@@@@AAVMessageBuffer@@@Z 10089df0 f i vmpi:vmpi_distribute_work_sdk.obj
 0001:00088e50       ?Master_WorkerThread_Static@CDistributor_SDKMaster@@SAXHPAX@Z 10089e50 f i vmpi:vmpi_distribute_work_sdk.obj
 0001:00088e60       ?DisconnectHandler@CDistributor_SDKMaster@@UAEXH@Z 10089e60 f i vmpi:vmpi_distribute_work_sdk.obj
 0001:00088ec0       ?InsertBefore@?$CUtlVector@GV?$CUtlMemory@GH@@@@QAEHHABG@Z 10089ec0 f i vmpi:vmpi_distribute_work_sdk.obj
 0001:00088f30       ?OnWorkerReady@CDistributor_SDKMaster@@UAEXH@Z 10089f30 f i vmpi:vmpi_distribute_work_sdk.obj
 0001:00088fd0       ?Shuffle@CDistributor_SDKMaster@@QAEXXZ 10089fd0 f i vmpi:vmpi_distribute_work_sdk.obj
 0001:00089260       ?Thread_HandleWorkUnitResults@CDistributor_SDKMaster@@QAE_N_K@Z 1008a260 f i vmpi:vmpi_distribute_work_sdk.obj
 0001:000892c0       ?CreateWUDistributor_SDKWorker@@YAPAVIWorkUnitDistributorWorker@@XZ 1008a2c0 f   vmpi:vmpi_distribute_work_sdk.obj
 0001:00089300       ?AddToTail@?$CUtlLinkedList@_K_K$0A@_KV?$CUtlMemory@U?$UtlLinkedListElem_t@_K_K@@_K@@@@QAE_KAB_K@Z 1008a300 f i vmpi:vmpi_distribute_work_sdk.obj
 0001:000893a0       ?Init@CShuffledWorkUnitWalker@@QAEX_KPAVIShuffleRequester@@@Z 1008a3a0 f i vmpi:vmpi_distribute_work_sdk.obj
 0001:00089510       ?DistributeWork_Master@CDistributor_SDKMaster@@UAEXPAVCDSInfo@@@Z 1008a510 f i vmpi:vmpi_distribute_work_sdk.obj
 0001:000896d0       ?HandleWorkUnitResults@CDistributor_SDKMaster@@UAE_N_K@Z 1008a6d0 f i vmpi:vmpi_distribute_work_sdk.obj
 0001:000896f0       ?Init@CDistributor_SDKWorker@@UAEXPAVCDSInfo@@@Z 1008a6f0 f i vmpi:vmpi_distribute_work_sdk.obj
 0001:00089720       ?Release@CDistributor_SDKWorker@@UAEXXZ 1008a720 f i vmpi:vmpi_distribute_work_sdk.obj
 0001:00089740       ?CreateWUDistributor_SDKMaster@@YAPAVIWorkUnitDistributorMaster@@XZ 1008a740 f   vmpi:vmpi_distribute_work_sdk.obj
 0001:00089760       ?Release@CDistributor_SDKMaster@@UAEXXZ 1008a760 f i vmpi:vmpi_distribute_work_sdk.obj
 0001:000898b0       ?FlushAckChunks@CWorkerMulticastListener@@QAEXQAY01GAAHAAK@Z 1008a8b0 f i vmpi:vmpi_filesystem_worker.obj
 0001:00089920       ?AddAckChunk@CWorkerMulticastListener@@QAEXQAY01GAAHAAKHH@Z 1008a920 f i vmpi:vmpi_filesystem_worker.obj
 0001:00089970       ?ShowSDKWorkerMsg@CWorkerMulticastListener@@QAAXPBDZZ 1008a970 f i vmpi:vmpi_filesystem_worker.obj
 0001:000899d0       ?Init@CWorkerVMPIFileSystem@@UAE?AW4InitReturnVal_t@@XZ 1008a9d0 f   vmpi:vmpi_filesystem_worker.obj
 0001:00089a10       ?CreateVirtualFile@CWorkerVMPIFileSystem@@UAEXPBDPBXH@Z 1008aa10 f   vmpi:vmpi_filesystem_worker.obj
 0001:00089a20       ?GetFileTime@CWorkerVMPIFileSystem@@UAEJPBD0@Z 1008aa20 f   vmpi:vmpi_filesystem_worker.obj
 0001:00089a40       ?IsFileWritable@CWorkerVMPIFileSystem@@UAE_NPBD0@Z 1008aa40 f   vmpi:vmpi_filesystem_worker.obj
 0001:00089a60       ?SetFileWritable@CWorkerVMPIFileSystem@@UAE_NPBD_N0@Z 1008aa60 f   vmpi:vmpi_filesystem_worker.obj
 0001:00089a80       ?LoadModule@CWorkerVMPIFileSystem@@UAEPAVCSysModule@@PBD0_N@Z 1008aa80 f   vmpi:vmpi_filesystem_worker.obj
 0001:00089a90       ?UnloadModule@CWorkerVMPIFileSystem@@UAEXPAVCSysModule@@@Z 1008aa90 f   vmpi:vmpi_filesystem_worker.obj
 0001:00089aa0       ?FindWorkerFile@CWorkerMulticastListener@@QAEPAVCWorkerFile@@PBD0@Z 1008aaa0 f i vmpi:vmpi_filesystem_worker.obj
 0001:00089b10       ?FindWorkerFile@CWorkerMulticastListener@@QAEPAVCWorkerFile@@H@Z 1008ab10 f i vmpi:vmpi_filesystem_worker.obj
 0001:00089b50       ?InsertBefore@?$CUtlVector@UResourceMemorySection@CVTFTexture@@V?$CUtlMemory@UResourceMemorySection@CVTFTexture@@H@@@@QAEHHABUResourceMemorySection@CVTFTexture@@@Z 1008ab50 f i vtf:vtf.obj
 0001:00089b50       ?InsertBefore@?$CUtlVector@VCFileResponse@@V?$CUtlMemory@VCFileResponse@@H@@@@QAEHHABVCFileResponse@@@Z 1008ab50 f i vmpi:vmpi_filesystem_worker.obj
 0001:00089bd0       ?PurgeAndDeleteElements@?$CUtlLinkedList@PAVCWorkerFile@@H$0A@HV?$CUtlMemory@U?$UtlLinkedListElem_t@PAVCWorkerFile@@H@@H@@@@QAEXXZ 1008abd0 f i vmpi:vmpi_filesystem_worker.obj
 0001:00089c80       ?CheckFileChunkPackets@CWorkerMulticastListener@@QAEHPADH@Z 1008ac80 f i vmpi:vmpi_filesystem_worker.obj
 0001:00089d40       ?Term@CWorkerVMPIFileSystem@@UAEXXZ 1008ad40 f   vmpi:vmpi_filesystem_worker.obj
 0001:00089d50       ?RequestFileFromServer@CWorkerMulticastListener@@QAEPAVCWorkerFile@@PBD0@Z 1008ad50 f i vmpi:vmpi_filesystem_worker.obj
 0001:0008a0d0       ?ListenFor@CWorkerMulticastListener@@QAEPAVCWorkerFile@@PBD0@Z 1008b0d0 f i vmpi:vmpi_filesystem_worker.obj
 0001:0008a6f0       ??0CWorkerVMPIFileSystem@@QAE@XZ 1008b6f0 f i vmpi:vmpi_filesystem_worker.obj
 0001:0008a760       ?Open@CWorkerVMPIFileSystem@@UAEPAXPBD00@Z 1008b760 f   vmpi:vmpi_filesystem_worker.obj
 0001:0008a830       ?HandleFileSystemPacket@CWorkerVMPIFileSystem@@UAE_NPAVMessageBuffer@@HH@Z 1008b830 f   vmpi:vmpi_filesystem_worker.obj
 0001:0008a940       ?CreateWorkerVMPIFileSystem@@YAPAVCBaseVMPIFileSystem@@XZ 1008b940 f   vmpi:vmpi_filesystem_worker.obj
 0001:0008a990       ??_GCWorkerVMPIFileSystem@@UAEPAXI@Z 1008b990 f i vmpi:vmpi_filesystem_worker.obj
 0001:0008a990       ??_ECWorkerVMPIFileSystem@@UAEPAXI@Z 1008b990 f i vmpi:vmpi_filesystem_worker.obj
 0001:0008a9f0       _deflateInit_              1008b9f0 f   vmpi:deflate.obj
 0001:0008aa20       _deflateInit2_             1008ba20 f   vmpi:deflate.obj
 0001:0008ac20       _deflateReset              1008bc20 f   vmpi:deflate.obj
 0001:0008aca0       _deflate                   1008bca0 f   vmpi:deflate.obj
 0001:0008b000       _deflateEnd                1008c000 f   vmpi:deflate.obj
 0001:0008bd30       _inflateReset              1008cd30 f   vmpi:inflate.obj
 0001:0008bd80       _inflateEnd                1008cd80 f   vmpi:inflate.obj
 0001:0008bdd0       _inflateInit2_             1008cdd0 f   vmpi:inflate.obj
 0001:0008bee0       _inflateInit_              1008cee0 f   vmpi:inflate.obj
 0001:0008bf00       _inflate                   1008cf00 f   vmpi:inflate.obj
 0001:0008c330       _zcalloc                   1008d330 f   vmpi:zutil.obj
 0001:0008c350       _zcfree                    1008d350 f   vmpi:zutil.obj
 0001:0008c360       _adler32                   1008d360 f   vmpi:adler32.obj
 0001:0008c490       __tr_init                  1008d490 f   vmpi:trees.obj
 0001:0008c580       __tr_stored_block          1008d580 f   vmpi:trees.obj
 0001:0008c620       __tr_align                 1008d620 f   vmpi:trees.obj
 0001:0008c830       __tr_flush_block           1008d830 f   vmpi:trees.obj
 0001:0008dee0       _inflate_blocks_reset      1008eee0 f   vmpi:infblock.obj
 0001:0008df60       _inflate_blocks_new        1008ef60 f   vmpi:infblock.obj
 0001:0008e000       _inflate_blocks            1008f000 f   vmpi:infblock.obj
 0001:0008ec50       _inflate_blocks_free       1008fc50 f   vmpi:infblock.obj
 0001:0008ec90       _inflate_codes_new         1008fc90 f   vmpi:infcodes.obj
 0001:0008ecd0       _inflate_codes             1008fcd0 f   vmpi:infcodes.obj
 0001:0008f3d0       _inflate_codes_free        100903d0 f   vmpi:infcodes.obj
 0001:0008f3f0       _inflate_trees_bits        100903f0 f   vmpi:inftrees.obj
 0001:0008f950       _inflate_trees_dynamic     10090950 f   vmpi:inftrees.obj
 0001:0008fae0       _inflate_trees_fixed       10090ae0 f   vmpi:inftrees.obj
 0001:0008fb10       _inflate_flush             10090b10 f   vmpi:infutil.obj
 0001:0008fc50       _inflate_fast              10090c50 f   vmpi:inffast.obj
 0001:0008ffb0       ?DestroyVTFTexture@@YAXPAVIVTFTexture@@@Z 10090fb0 f   vtf:vtf.obj
 0001:0008ffd0       ?ComputeMipCount@CVTFTexture@@ABEHXZ 10090fd0 f   vtf:vtf.obj
 0001:0008fff0       ?AllocateImageData@CVTFTexture@@AAEXH@Z 10090ff0 f   vtf:vtf.obj
 0001:00090020       ?SetBumpScale@CVTFTexture@@UAEXM@Z 10091020 f   vtf:vtf.obj
 0001:00090030       ?SetReflectivity@CVTFTexture@@UAEXABVVector@@@Z 10091030 f   vtf:vtf.obj
 0001:00090050       ?SetAlphaTestThreshholds@CVTFTexture@@UAEXMM@Z 10091050 f   vtf:vtf.obj
 0001:00090070       ?LoadLowResData@CVTFTexture@@AAE_NAAVCUtlBuffer@@@Z 10091070 f   vtf:vtf.obj
 0001:000900c0       ?LoadImageData@CVTFTexture@@AAE_NAAVCUtlBuffer@@ABUVTFFileHeader_t@@H@Z 100910c0 f   vtf:vtf.obj
 0001:00090200       ?WriteData@ResourceMemorySection@CVTFTexture@@QBE_NAAVCUtlBuffer@@@Z 10091200 f   vtf:vtf.obj
 0001:000902a0       ?WriteImageData@CVTFTexture@@AAE_NAAVCUtlBuffer@@@Z 100912a0 f   vtf:vtf.obj
 0001:00090320       ?Height@CVTFTexture@@UBEHXZ 10091320 f   vtf:vtf.obj
 0001:00090330       ?Depth@CVTFTexture@@UBEHXZ 10091330 f   vtf:vtf.obj
 0001:00090340       ?Format@CVTFTexture@@UBE?AW4ImageFormat@@XZ 10091340 f   vtf:vtf.obj
 0001:00090350       ?FaceCount@CVTFTexture@@UBEHXZ 10091350 f   vtf:vtf.obj
 0001:00090360       ?FrameCount@CVTFTexture@@UBEHXZ 10091360 f   vtf:vtf.obj
 0001:00090370       ?Flags@CVTFTexture@@UBEHXZ 10091370 f   vtf:vtf.obj
 0001:00090380       ?IsCubeMap@CVTFTexture@@UBE_NXZ 10091380 f   vtf:vtf.obj
 0001:00090390       ?IsNormalMap@CVTFTexture@@UBE_NXZ 10091390 f   vtf:vtf.obj
 0001:000903a0       ?IsVolumeTexture@CVTFTexture@@UBE_NXZ 100913a0 f   vtf:vtf.obj
 0001:000903b0       ?BumpScale@CVTFTexture@@UBEMXZ 100913b0 f   vtf:vtf.obj
 0001:000903c0       ?Reflectivity@CVTFTexture@@UBEABVVector@@XZ 100913c0 f   vtf:vtf.obj
 0001:000903d0       ?ImageData@CVTFTexture@@UAEPAEXZ 100913d0 f   vtf:vtf.obj
 0001:000903e0       ?LowResWidth@CVTFTexture@@UBEHXZ 100913e0 f   vtf:vtf.obj
 0001:000903f0       ?LowResHeight@CVTFTexture@@UBEHXZ 100913f0 f   vtf:vtf.obj
 0001:00090400       ?LowResFormat@CVTFTexture@@UBE?AW4ImageFormat@@XZ 10091400 f   vtf:vtf.obj
 0001:00090410       ?LowResImageData@CVTFTexture@@UAEPAEXZ 10091410 f   vtf:vtf.obj
 0001:00090420       ?RowSizeInBytes@CVTFTexture@@UBEHH@Z 10091420 f   vtf:vtf.obj
 0001:00090450       ?FaceSizeInBytes@CVTFTexture@@UBEHH@Z 10091450 f   vtf:vtf.obj
 0001:00090490       ?ImageData@CVTFTexture@@UAEPAEHHHHHH@Z 10091490 f   vtf:vtf.obj
 0001:00090500       ?ComputeMipSize@CVTFTexture@@UBEHH@Z 10091500 f   vtf:vtf.obj
 0001:00090550       ?ComputeFaceSize@CVTFTexture@@ABEHHW4ImageFormat@@@Z 10091550 f i vtf:vtf.obj
 0001:000905e0       ?ComputeFaceSize@CVTFTexture@@UBEHH@Z 100915e0 f   vtf:vtf.obj
 0001:00090600       ?ComputeTotalSize@CVTFTexture@@UBEHXZ 10091600 f   vtf:vtf.obj
 0001:00090620       ?GetImageOffset@CVTFTexture@@ABEHHHHW4ImageFormat@@@Z 10091620 f   vtf:vtf.obj
 0001:000906a0       ?ComputeMipLevelDimensions@CVTFTexture@@UBEXHPAH00@Z 100916a0 f   vtf:vtf.obj
 0001:000906f0       ?ComputeMipLevelSubRect@CVTFTexture@@UBEXPAURect_t@@H0@Z 100916f0 f   vtf:vtf.obj
 0001:000907b0       ?ConvertImageFormat@CVTFTexture@@UAEXW4ImageFormat@@_N@Z 100917b0 f   vtf:vtf.obj
 0001:00090f10       ?ComputeHemispheremapFrame@CVTFTexture@@AAEXPAPAEPAEW4LookDir_t@@@Z 10091f10 f   vtf:vtf.obj
 0001:000910e0       ?GenerateHemisphereMap@CVTFTexture@@UAEXPAEHHW4LookDir_t@@H@Z 100920e0 f   vtf:vtf.obj
 0001:000911e0       ?FixCubemapFaceOrientation@CVTFTexture@@UAEXXZ 100921e0 f   vtf:vtf.obj
 0001:000912b0       ?NormalizeTopMipLevel@CVTFTexture@@UAEXXZ 100922b0 f   vtf:vtf.obj
 0001:00091340       ?PutOneOverMipLevelInAlpha@CVTFTexture@@UAEXXZ 10092340 f   vtf:vtf.obj
 0001:00091430       ?ComputeReflectivity@CVTFTexture@@UAEXXZ 10092430 f   vtf:vtf.obj
 0001:00091580       ?ComputeAlphaFlags@CVTFTexture@@UAEXXZ 10092580 f   vtf:vtf.obj
 0001:000916d0       ?PostProcess@CVTFTexture@@UAEX_NW4LookDir_t@@0@Z 100926d0 f   vtf:vtf.obj
 0001:00091760       ?SetPostProcessingSettings@CVTFTexture@@UAEXPBUVtfProcessingOptions@@@Z 10092760 f   vtf:vtf.obj
 0001:000917b0       ?SetupFaceVert@CVTFTexture@@AAEXHHAAVCEdgePos@@@Z 100927b0 f   vtf:vtf.obj
 0001:00091810       ?SetupTextureEdgeIncrements@CVTFTexture@@AAEXHHH_NPAVCEdgeIncrements@@@Z 10092810 f   vtf:vtf.obj
 0001:00091930       ?BlendTexels@@YAXPAPAEH@Z  10092930 f   vtf:vtf.obj
 0001:000919e0       ?BlendCubeMapFaceCorners@CVTFTexture@@AAEXHHPBVCCornerMatch@@@Z 100929e0 f   vtf:vtf.obj
 0001:00091bc0       ?BuildCubeMapMatchLists@CVTFTexture@@AAEXQAVCEdgeMatch@@QAVCCornerMatch@@_N@Z 10092bc0 f   vtf:vtf.obj
 0001:00091e40       ??9CEdgePos@@QAE_NABV0@@Z  10092e40 f i vtf:vtf.obj
 0001:00091e80       ?ImageData@CVTFTexture@@UAEPAEHHH@Z 10092e80 f   vtf:vtf.obj
 0001:00091eb0       ?ComputeSpheremapFrame@CVTFTexture@@AAEXPAPAEPAEW4LookDir_t@@@Z 10092eb0 f   vtf:vtf.obj
 0001:00092080       ?GenerateSpheremap@CVTFTexture@@UAEXW4LookDir_t@@@Z 10093080 f   vtf:vtf.obj
 0001:00092160       ?GenerateMipmaps@CVTFTexture@@UAEXXZ 10093160 f   vtf:vtf.obj
 0001:000925b0       ?BlendCubeMapFaceEdges@CVTFTexture@@AAEXHHPBVCEdgeMatch@@@Z 100935b0 f   vtf:vtf.obj
 0001:00092780       ?ReleaseResources@CVTFTexture@@AAEXXZ 10093780 f   vtf:vtf.obj
 0001:00092800       ?GetResourceTypes@CVTFTexture@@UBEIPAIH@Z 10093800 f   vtf:vtf.obj
 0001:00092850       ?LoadData@ResourceMemorySection@CVTFTexture@@QAE_NAAVCUtlBuffer@@AAVCByteswap@@@Z 10093850 f   vtf:vtf.obj
 0001:000928f0       ?ReadHeader@CVTFTexture@@AAE_NAAVCUtlBuffer@@AAUVTFFileHeader_t@@@Z 100938f0 f   vtf:vtf.obj
 0001:000929d0       ?LoadNewResources@CVTFTexture@@AAE_NAAVCUtlBuffer@@@Z 100939d0 f   vtf:vtf.obj
 0001:00092a50       ?FindResourceEntryInfo@CVTFTexture@@ABEPBUResourceEntryInfo@@I@Z 10093a50 f   vtf:vtf.obj
 0001:00092ac0       ?BlendCubeMapEdgePalettes@CVTFTexture@@AAEXHHPBVCEdgeMatch@@@Z 10093ac0 f   vtf:vtf.obj
 0001:00092ce0       ?BlendCubeMapCornerPalettes@CVTFTexture@@AAEXHHPBVCCornerMatch@@@Z 10093ce0 f   vtf:vtf.obj
 0001:00092e40       ?MatchCubeMapS3TCPalettes@CVTFTexture@@AAEXQAVCEdgeMatch@@QAVCCornerMatch@@@Z 10093e40 f   vtf:vtf.obj
 0001:00092ec0       ?EnsureCapacity@?$CUtlVector@UResourceMemorySection@CVTFTexture@@V?$CUtlMemory@UResourceMemorySection@CVTFTexture@@H@@@@QAEXH@Z 10093ec0 f i vtf:vtf.obj
 0001:00092ec0       ?EnsureCapacity@?$CUtlVector@VCWULookupInfo@@V?$CUtlMemory@VCWULookupInfo@@H@@@@QAEXH@Z 10093ec0 f i vmpi:vmpi_distribute_work_default.obj
 0001:00092f20       ?InsertMultipleBefore@?$CUtlVector@UResourceEntryInfo@@V?$CUtlMemory@UResourceEntryInfo@@H@@@@QAEHHHPBUResourceEntryInfo@@@Z 10093f20 f i vtf:vtf.obj
 0001:00092fc0       ?InsertMultipleBefore@?$CUtlVector@UResourceMemorySection@CVTFTexture@@V?$CUtlMemory@UResourceMemorySection@CVTFTexture@@H@@@@QAEHHHPBUResourceMemorySection@CVTFTexture@@@Z 10093fc0 f i vtf:vtf.obj
 0001:000930a0       ?LowResFileInfo@CVTFTexture@@UBEXPAH0@Z 100940a0 f   vtf:vtf.obj
 0001:00093100       ?ImageFileInfo@CVTFTexture@@UBEXHHHPAH0@Z 10094100 f   vtf:vtf.obj
 0001:00093200       ?FileSize@CVTFTexture@@UBEHH@Z 10094200 f   vtf:vtf.obj
 0001:00093240       ?GetResourceData@CVTFTexture@@UBEPAXIPAI@Z 10094240 f   vtf:vtf.obj
 0001:000932b0       ?HasResourceEntry@CVTFTexture@@UBE_NI@Z 100942b0 f   vtf:vtf.obj
 0001:000932d0       ?ConstructLowResImage@CVTFTexture@@UAE_NXZ 100942d0 f   vtf:vtf.obj
 0001:00093410       ?InsertBefore@?$CUtlVector@UResourceMemorySection@CVTFTexture@@V?$CUtlMemory@UResourceMemorySection@CVTFTexture@@H@@@@QAEHH@Z 10094410 f i vtf:vtf.obj
 0001:00093480       ??0CVTFTexture@@QAE@XZ     10094480 f   vtf:vtf.obj
 0001:00093580       ??1CVTFTexture@@UAE@XZ     10094580 f   vtf:vtf.obj
 0001:000935e0       ?FindOrCreateResourceEntryInfo@CVTFTexture@@AAEPAUResourceEntryInfo@@I@Z 100945e0 f   vtf:vtf.obj
 0001:00093710       ?Serialize@CVTFTexture@@UAE_NAAVCUtlBuffer@@@Z 10094710 f   vtf:vtf.obj
 0001:00093940       ??$DataMapInit@UVTFFileBaseHeader_t@@@@YAPAUdatamap_t@@PAUVTFFileBaseHeader_t@@@Z 10094940 f   vtf:vtf.obj
 0001:000939c0       ??$DataMapInit@UVTFFileHeaderV7_1_t@@@@YAPAUdatamap_t@@PAUVTFFileHeaderV7_1_t@@@Z 100949c0 f   vtf:vtf.obj
 0001:00093a50       ??$DataMapInit@UVTFFileHeaderV7_2_t@@@@YAPAUdatamap_t@@PAUVTFFileHeaderV7_2_t@@@Z 10094a50 f   vtf:vtf.obj
 0001:00093ae0       ??$DataMapInit@UVTFFileHeaderV7_3_t@@@@YAPAUdatamap_t@@PAUVTFFileHeaderV7_3_t@@@Z 10094ae0 f   vtf:vtf.obj
 0001:00093b70       ??$DataMapInit@UVTFFileHeader_t@@@@YAPAUdatamap_t@@PAUVTFFileHeader_t@@@Z 10094b70 f   vtf:vtf.obj
 0001:00093c00       ??$DataMapInit@UVTFFileHeaderX360_t@@@@YAPAUdatamap_t@@PAUVTFFileHeaderX360_t@@@Z 10094c00 f   vtf:vtf.obj
 0001:00093c90       ?CreateVTFTexture@@YAPAVIVTFTexture@@XZ 10094c90 f   vtf:vtf.obj
 0001:00093cb0       ??_GCVTFTexture@@UAEPAXI@Z 10094cb0 f i vtf:vtf.obj
 0001:00093cb0       ??_ECVTFTexture@@UAEPAXI@Z 10094cb0 f i vtf:vtf.obj
 0001:00093cd0       ?Unserialize@CVTFTexture@@UAE_NAAVCUtlBuffer@@_NH@Z 10094cd0 f   vtf:vtf.obj
 0001:00093fb0       ?RemoveResourceEntryInfo@CVTFTexture@@AAE_NI@Z 10094fb0 f   vtf:vtf.obj
 0001:000940a0       ?Init@CVTFTexture@@UAE_NHHHW4ImageFormat@@HHH@Z 100950a0 f   vtf:vtf.obj
 0001:000941f0       ?InitLowResImage@CVTFTexture@@UAEXHHW4ImageFormat@@@Z 100951f0 f   vtf:vtf.obj
 0001:00094260       ?SetResourceData@CVTFTexture@@UAEPAXIPBXI@Z 10095260 f   vtf:vtf.obj
 0001:00094300       ?MatchCubeMapBorders@CVTFTexture@@UAEXHW4ImageFormat@@_N@Z 10095300 f   vtf:vtf.obj
 0001:00094490       ?WriteBitInt@@YAXPADHHH@Z  10095490 f   vtf:s3tc_decode.obj
 0001:000944e0       ?S3TC_GetPixelPaletteIndex@@YA?AVS3PaletteIndex@@W4ImageFormat@@PBDHH@Z 100954e0 f   vtf:s3tc_decode.obj
 0001:00094540       ?S3TC_SetPixelPaletteIndex@@YAXW4ImageFormat@@PADHHVS3PaletteIndex@@@Z 10095540 f   vtf:s3tc_decode.obj
 0001:000945b0       ?S3TC_GetBlock@@YAPADPAXW4ImageFormat@@HHH@Z 100955b0 f   vtf:s3tc_decode.obj
 0001:000945e0       ?S3TC_MergeBlocks@@YAXPAPADPAPAVS3RGBA@@HHW4ImageFormat@@@Z 100955e0 f   vtf:s3tc_decode.obj
 0001:00094920       ?S3TC_GetPaletteIndex@@YA?AVS3PaletteIndex@@PAEW4ImageFormat@@HHH@Z 10095920 f   vtf:s3tc_decode.obj
 0001:00094980       ?S3TC_SetPaletteIndex@@YAXPAEW4ImageFormat@@HHHVS3PaletteIndex@@@Z 10095980 f   vtf:s3tc_decode.obj
 0001:000949e0       ?WriteUBitLong@old_bf_write@@QAEXIH_N@Z 100959e0 f i tier1:bitbuf.obj
 0001:00094a70       ??0CBitWriteMasksInit@@QAE@XZ 10095a70 f i tier1:bitbuf.obj
 0001:00094b40       ?WriteByte@old_bf_write@@QAEXH@Z 10095b40 f   tier1:bitbuf.obj
 0001:00094b60       ?WriteWord@old_bf_write@@QAEXH@Z 10095b60 f   tier1:bitbuf.obj
 0001:00094b80       ??0old_bf_write@@QAE@PBDPAXHH@Z 10095b80 f   tier1:bitbuf.obj
 0001:00094bd0       ?WriteSBitLong@old_bf_write@@QAEXHH@Z 10095bd0 f   tier1:bitbuf.obj
 0001:00094c60       ?WriteShort@old_bf_write@@QAEXH@Z 10095c60 f   tier1:bitbuf.obj
 0001:00094c80       ?WriteLong@old_bf_write@@QAEXJ@Z 10095c80 f   tier1:bitbuf.obj
 0001:00094ca0       ?WriteString@old_bf_write@@QAE_NPBD@Z 10095ca0 f   tier1:bitbuf.obj
 0001:00094d15       __cfltcvt_init             10095d15 f   LIBCMT:_fpinit_.obj
 0001:00094d75       __fpmath                   10095d75 f   LIBCMT:_fpinit_.obj
 0001:00094d90       _memmove                   10095d90 f   LIBCMT:memmove.obj
 0001:000950f1       ??1type_info@@UAE@XZ       100960f1 f   LIBCMT:typinfo.obj
 0001:00095101       ??_Gtype_info@@UAEPAXI@Z   10096101 f i LIBCMT:typinfo.obj
 0001:00095101       ??_Etype_info@@UAEPAXI@Z   10096101 f i LIBCMT:typinfo.obj
 0001:00095122       ??8type_info@@QBE_NABV0@@Z 10096122 f   LIBCMT:typinfo.obj
 0001:00095142       __purecall                 10096142 f   LIBCMT:purevirt.obj
 0001:00095170       _memcpy                    10096170 f   LIBCMT:memcpy.obj
 0001:000954e0       _memset                    100964e0 f   LIBCMT:memset.obj
 0001:00095610       ___onexitinit              10096610 f   LIBCMT:onexit.obj
 0001:00095641       __onexit                   10096641 f   LIBCMT:onexit.obj
 0001:0009567d       _atexit                    1009667d f   LIBCMT:onexit.obj
 0001:000956a0       __chkstk                   100966a0 f   LIBCMT:chkstk.obj
 0001:000956a0       __alloca_probe             100966a0     LIBCMT:chkstk.obj
 0001:000956cb       _printf                    100966cb f   LIBCMT:printf.obj
 0001:00095772       __get_printf_count_output  10096772 f   LIBCMT:printf.obj
 0001:00095790       _acos                      10096790 f   LIBCMT:_acos_.obj
 0001:000957d0       __CIacos                   100967d0 f   LIBCMT:_acos_.obj
 0001:0009580b       __CIacos_default           1009680b f   LIBCMT:_acos_.obj
 0001:0009581f       __acos_default             1009681f     LIBCMT:_acos_.obj
 0001:000958e0       __ftol2_sse                100968e0 f   LIBCMT:ftol2.obj
 0001:000958e9       __ftol2_pentium4           100968e9 f   LIBCMT:ftol2.obj
 0001:000958fc       __ftol2_sse_excpt          100968fc f   LIBCMT:ftol2.obj
 0001:00095916       __ftol2                    10096916 f   LIBCMT:ftol2.obj
 0001:0009598b       _fprintf                   1009698b f   LIBCMT:fprintf.obj
 0001:00095b05       _sscanf                    10096b05 f   LIBCMT:sscanf.obj
 0001:00095b30       _pow                       10096b30 f   LIBCMT:_pow_.obj
 0001:00095b70       __CIpow                    10096b70 f   LIBCMT:_pow_.obj
 0001:00095bab       __CIpow_default            10096bab f   LIBCMT:_pow_.obj
 0001:00095bc4       __pow_default              10096bc4     LIBCMT:_pow_.obj
 0001:00095dc0       __alloca_probe_16          10096dc0 f   LIBCMT:alloca16.obj
 0001:00095dd6       __alloca_probe_8           10096dd6     LIBCMT:alloca16.obj
 0001:00095dec       ??0_LocaleUpdate@@QAE@PAUlocaleinfo_struct@@@Z 10096dec f i LIBCMT:atof.obj
 0001:00095e73       __atof_l                   10096e73 f   LIBCMT:atof.obj
 0001:00095f1e       _atof                      10096f1e f   LIBCMT:atof.obj
 0001:00095f31       _strncmp                   10096f31 f   LIBCMT:strncmp.obj
 0001:00095ff1       _strtok                    10096ff1 f   LIBCMT:strtok.obj
 0001:000960b0       _strrchr                   100970b0 f   LIBCMT:strrchr.obj
 0001:000960dd       __vsnprintf_l              100970dd f   LIBCMT:vsnprint.obj
 0001:00096189       __vsnprintf                10097189 f   LIBCMT:vsnprint.obj
 0001:000961a6       __aligned_offset_malloc    100971a6 f   LIBCMT:align.obj
 0001:0009623e       __aligned_free             1009723e f   LIBCMT:align.obj
 0001:00096258       __aligned_offset_realloc   10097258 f   LIBCMT:align.obj
 0001:000963e4       __aligned_realloc          100973e4 f   LIBCMT:align.obj
 0001:000963fe       __fread_nolock_s           100973fe f   LIBCMT:fread.obj
 0001:000965ba       _fread_s                   100975ba f   LIBCMT:fread.obj
 0001:00096648       _fread                     10097648 f   LIBCMT:fread.obj
 0001:00096665       __fclose_nolock            10097665 f   LIBCMT:fclose.obj
 0001:000966d2       _fclose                    100976d2 f   LIBCMT:fclose.obj
 0001:00096746       __fsopen                   10097746 f   LIBCMT:fopen.obj
 0001:00096802       _fopen                     10097802 f   LIBCMT:fopen.obj
 0001:00096819       _srand                     10097819 f   LIBCMT:rand.obj
 0001:0009682b       _sprintf                   1009782b f   LIBCMT:sprintf.obj
 0001:000968af       _atol                      100978af f   LIBCMT:atox.obj
 0001:000968c5       _atoi                      100978c5 f   LIBCMT:atox.obj
 0001:000968d0       __localtime64_s            100978d0 f   LIBCMT:loctim64.obj
 0001:00096b58       __localtime64              10097b58 f   LIBCMT:loctim64.obj
 0001:00096b7f       __time64                   10097b7f f   LIBCMT:time64.obj
 0001:00096bd0       __fwrite_nolock            10097bd0 f   LIBCMT:fwrite.obj
 0001:00096d27       _fwrite                    10097d27 f   LIBCMT:fwrite.obj
 0001:00096da1       __getenv_helper_nolock     10097da1 f   LIBCMT:getenv.obj
 0001:00096e28       _getenv                    10097e28 f   LIBCMT:getenv.obj
 0001:00096ea2       __dupenv_s                 10097ea2 f   LIBCMT:getenv.obj
 0001:00096f90       _strchr                    10097f90 f   LIBCMT:strchr.obj
 0001:00096f96       ___from_strstr_to_strchr   10097f96     LIBCMT:strchr.obj
 0001:00097050       _asin                      10098050 f   LIBCMT:_asin_.obj
 0001:00097090       __CIasin                   10098090 f   LIBCMT:_asin_.obj
 0001:000970cb       __CIasin_default           100980cb f   LIBCMT:_asin_.obj
 0001:000970df       __asin_default             100980df     LIBCMT:_asin_.obj
 0001:00097196       __flush                    10098196 f   LIBCMT:fflush.obj
 0001:000971fe       __fflush_nolock            100981fe f   LIBCMT:fflush.obj
 0001:00097320       _fflush                    10098320 f   LIBCMT:fflush.obj
 0001:00097373       __flushall                 10098373 f   LIBCMT:fflush.obj
 0001:0009737c       ___iob_func                1009837c f   LIBCMT:_file.obj
 0001:00097382       ___initstdio               10098382 f   LIBCMT:_file.obj
 0001:00097433       ___endstdio                10098433 f   LIBCMT:_file.obj
 0001:00097453       __lock_file                10098453 f   LIBCMT:_file.obj
 0001:00097494       __lock_file2               10098494 f   LIBCMT:_file.obj
 0001:000974c6       __unlock_file              100984c6 f   LIBCMT:_file.obj
 0001:00097502       __unlock_file2             10098502 f   LIBCMT:_file.obj
 0001:00097540       _strspn                    10098540 f   LIBCMT:strspn.obj
 0001:00097586       __snprintf                 10098586 f   LIBCMT:snprintf.obj
 0001:00097774       __tmpnam_helper            10098774 f   LIBCMT:tmpfile.obj
 0001:000978b0       _tmpnam                    100988b0 f   LIBCMT:tmpfile.obj
 0001:000978d7       __ftell_nolock             100988d7 f   LIBCMT:ftell.obj
 0001:00097a6b       _ftell                     10098a6b f   LIBCMT:ftell.obj
 0001:00097ad0       __fseek_nolock             10098ad0 f   LIBCMT:fseek.obj
 0001:00097b5a       _fseek                     10098b5a f   LIBCMT:fseek.obj
 0001:00097be0       _ceil                      10098be0 f   LIBCMT:_ceil_pentium4_.obj
 0001:00097c20       __ceil_pentium4            10098c20 f   LIBCMT:_ceil_pentium4_.obj
 0001:00097d00       _floor                     10098d00 f   LIBCMT:_floor_pentium4_.obj
 0001:00097d40       __floor_pentium4           10098d40 f   LIBCMT:_floor_pentium4_.obj
 0001:00097ec0       _qsort                     10098ec0 f   LIBCMT:qsort.obj
 0001:0009814b       ?what@exception@std@@UBEPBDXZ 1009914b f   LIBCMT:stdexcpt.obj
 0001:00098158       ?_Copy_str@exception@std@@AAEXPBD@Z 10099158 f   LIBCMT:stdexcpt.obj
 0001:00098198       ?_Tidy@exception@std@@AAEXXZ 10099198 f   LIBCMT:stdexcpt.obj
 0001:000981b6       ??0exception@std@@QAE@ABQBD@Z 100991b6 f   LIBCMT:stdexcpt.obj
 0001:000981dd       ??4exception@std@@QAEAAV01@ABV01@@Z 100991dd f   LIBCMT:stdexcpt.obj
 0001:00098212       ??0bad_cast@std@@QAE@PBD@Z 10099212 f   LIBCMT:stdexcpt.obj
 0001:00098230       ??1bad_cast@std@@UAE@XZ    10099230 f   LIBCMT:stdexcpt.obj
 0001:00098230       ??1exception@std@@UAE@XZ   10099230 f   LIBCMT:stdexcpt.obj
 0001:0009823b       ??0exception@std@@QAE@ABV01@@Z 1009923b f   LIBCMT:stdexcpt.obj
 0001:00098260       ??_Gexception@std@@UAEPAXI@Z 10099260 f i LIBCMT:stdexcpt.obj
 0001:00098260       ??_Gbad_cast@std@@UAEPAXI@Z 10099260 f i LIBCMT:stdexcpt.obj
 0001:00098260       ??_Ebad_cast@std@@UAEPAXI@Z 10099260 f i LIBCMT:stdexcpt.obj
 0001:00098260       ??_Eexception@std@@UAEPAXI@Z 10099260 f i LIBCMT:stdexcpt.obj
 0001:00098287       ??0bad_cast@std@@QAE@ABV01@@Z 10099287 f   LIBCMT:stdexcpt.obj
 0001:000982a4       __get_sys_err_msg          100992a4 f i LIBCMT:strerror.obj
 0001:000982cc       _strerror                  100992cc f   LIBCMT:strerror.obj
 0001:00098336       __get_errno_from_oserr     10099336 f   LIBCMT:dosmap.obj
 0001:00098378       __errno                    10099378 f   LIBCMT:dosmap.obj
 0001:0009838b       ___doserrno                1009938b f   LIBCMT:dosmap.obj
 0001:0009839e       __dosmaperr                1009939e f   LIBCMT:dosmap.obj
 0001:000983c1       __CxxThrowException@8      100993c1 f   LIBCMT:throw.obj
 0001:0009840d       ?_JumpToContinuation@@YGXPAXPAUEHRegistrationNode@@@Z 1009940d f   LIBCMT:_trnsctrl_.obj
 0001:0009843f       ?_CallMemberFunction2@@YGXPAX00H@Z 1009943f f   LIBCMT:_trnsctrl_.obj
 0001:0009843f       ?_CallMemberFunction1@@YGXPAX00@Z 1009943f f   LIBCMT:_trnsctrl_.obj
 0001:0009843f       ?_CallMemberFunction0@@YGXPAX0@Z 1009943f f   LIBCMT:_trnsctrl_.obj
 0001:00098446       ?_UnwindNestedFrames@@YGXPAUEHRegistrationNode@@PAUEHExceptionRecord@@@Z 10099446 f   LIBCMT:_trnsctrl_.obj
 0001:0009849a       ___CxxFrameHandler3        1009949a f   LIBCMT:_trnsctrl_.obj
 0001:00098503       ?_CallSETranslator@@YAHPAUEHExceptionRecord@@PAUEHRegistrationNode@@PAX2PBU_s_FuncInfo@@H1@Z 10099503 f   LIBCMT:_trnsctrl_.obj
 0001:00098679       ?_GetRangeOfTrysToCheck@@YAPBU_s_TryBlockMapEntry@@PBU_s_FuncInfo@@HHPAI1@Z 10099679 f   LIBCMT:_trnsctrl_.obj
 0001:000986ec       __CreateFrameInfo          100996ec f   LIBCMT:_trnsctrl_.obj
 0001:00098718       __IsExceptionObjectToBeDestroyed 10099718 f   LIBCMT:_trnsctrl_.obj
 0001:0009873f       __FindAndUnlinkFrame       1009973f f   LIBCMT:_trnsctrl_.obj
 0001:00098791       ?_CallCatchBlock2@@YAPAXPAUEHRegistrationNode@@PBU_s_FuncInfo@@PAXHK@Z 10099791 f   LIBCMT:_trnsctrl_.obj
 0001:000987f1       _fgetc                     100997f1 f   LIBCMT:fgetc.obj
 0001:000988e5       _fputc                     100998e5 f   LIBCMT:fputc.obj
 0001:000989e1       __ungetc_nolock            100999e1 f   LIBCMT:ungetc.obj
 0001:00098ac4       _ungetc                    10099ac4 f   LIBCMT:ungetc.obj
 0001:00098b2d       _setvbuf                   10099b2d f   LIBCMT:setvbuf.obj
 0001:00098c23       _memcpy_s                  10099c23 f   LIBCMT:memcpy_s.obj
 0001:00098c98       _fgetpos                   10099c98 f   LIBCMT:fgetpos.obj
 0001:00098cf3       __fseeki64_nolock          10099cf3 f   LIBCMT:fseeki64.obj
 0001:00098d8f       __fseeki64                 10099d8f f   LIBCMT:fseeki64.obj
 0001:00098e0e       _fsetpos                   10099e0e f   LIBCMT:fsetpos.obj
 0001:00098e50       _strstr                    10099e50 f   LIBCMT:strstr.obj
 0001:00098fb0       __stat64i32                10099fb0 f   LIBCMT:stati32.obj
 0001:00099407       __initp_heap_handler       1009a407 f   LIBCMT:handler.obj
 0001:00099416       ?_set_new_handler@@YAP6AHI@ZP6AHI@Z@Z 1009a416 f   LIBCMT:handler.obj
 0001:0009944d       ?_set_new_mode@@YAHH@Z     1009a44d f   LIBCMT:new_mode.obj
 0001:00099480       __validdrive               1009a480 f   LIBCMT:getcwd.obj
 0001:000994da       __getdcwd_nolock           1009a4da f   LIBCMT:getcwd.obj
 0001:000995fe       __getcwd                   1009a5fe f   LIBCMT:getcwd.obj
 0001:00099647       _mkdir                     1009a647 f   LIBCMT:mkdir.obj
 0001:00099647       __mkdir                    1009a647 f   LIBCMT:mkdir.obj
 0001:00099679       __findclose                1009a679 f   LIBCMT:findfile.obj
 0001:0009969f       ___time64_t_from_ft        1009a69f f   LIBCMT:findfi32.obj
 0001:0009971b       __findfirst64i32           1009a71b f   LIBCMT:findfi32.obj
 0001:00099842       __findnext64i32            1009a842 f   LIBCMT:findfi32.obj
 0001:00099970       ___crtCorExitProcess       1009a970 f   LIBCMT:crt0dat.obj
 0001:0009999b       ___crtExitProcess          1009a99b f   LIBCMT:crt0dat.obj
 0001:000999b3       __lockexit                 1009a9b3 f   LIBCMT:crt0dat.obj
 0001:000999bc       __unlockexit               1009a9bc f   LIBCMT:crt0dat.obj
 0001:000999c5       __init_pointers            1009a9c5 f   LIBCMT:crt0dat.obj
 0001:000999f8       __initterm_e               1009a9f8 f   LIBCMT:crt0dat.obj
 0001:00099a1c       __cinit                    1009aa1c f   LIBCMT:crt0dat.obj
 0001:00099bf3       _exit                      1009abf3 f   LIBCMT:crt0dat.obj
 0001:00099c09       __exit                     1009ac09 f   LIBCMT:crt0dat.obj
 0001:00099c1f       __cexit                    1009ac1f f   LIBCMT:crt0dat.obj
 0001:00099c2e       __amsg_exit                1009ac2e f   LIBCMT:crt0dat.obj
 0001:00099c4c       __tempnam                  1009ac4c f   LIBCMT:tempnam.obj
 0001:00099eb7       __isalpha_l                1009aeb7 f i LIBCMT:_ctype.obj
 0001:00099f0d       _isalpha                   1009af0d f i LIBCMT:_ctype.obj
 0001:00099f3d       __isupper_l                1009af3d f i LIBCMT:_ctype.obj
 0001:00099f8e       _isupper                   1009af8e f i LIBCMT:_ctype.obj
 0001:00099fbc       __islower_l                1009afbc f i LIBCMT:_ctype.obj
 0001:0009a00d       _islower                   1009b00d f i LIBCMT:_ctype.obj
 0001:0009a03b       __isdigit_l                1009b03b f i LIBCMT:_ctype.obj
 0001:0009a08c       _isdigit                   1009b08c f i LIBCMT:_ctype.obj
 0001:0009a0ba       __isxdigit_l               1009b0ba f i LIBCMT:_ctype.obj
 0001:0009a110       _isxdigit                  1009b110 f i LIBCMT:_ctype.obj
 0001:0009a140       __isspace_l                1009b140 f i LIBCMT:_ctype.obj
 0001:0009a191       _isspace                   1009b191 f i LIBCMT:_ctype.obj
 0001:0009a1bf       _remove                    1009b1bf f   LIBCMT:unlink.obj
 0001:0009a1ef       __unlink                   1009b1ef f   LIBCMT:unlink.obj
 0001:0009a1fa       __CRT_INIT@12              1009b1fa f   LIBCMT:dllcrt0.obj
 0001:0009a454       __DllMainCRTStartup@12     1009b454 f   LIBCMT:dllcrt0.obj
 0001:0009a5a5       __control87                1009b5a5 f i LIBCMT:_ieee87_.obj
 0001:0009a8b7       __controlfp                1009b8b7 f   LIBCMT:_ieee87_.obj
 0001:0009abcc       ?__ArrayUnwind@@YGXPAXIHP6EX0@Z@Z 1009bbcc f   LIBCMT:ehvecdtr.obj
 0001:0009ac2a       ??_M@YGXPAXIHP6EX0@Z@Z     1009bc2a f   LIBCMT:ehvecdtr.obj
 0001:0009ac8d       ??_L@YGXPAXIHP6EX0@Z1@Z    1009bc8d f   LIBCMT:ehvecctr.obj
 0001:0009acf2       @__security_check_cookie@4 1009bcf2 f   LIBCMT:secchk.obj
 0001:0009ad10       __ftol                     1009bd10 f   LIBCMT:_ftol_.obj
 0001:0009ad40       __CIsqrt                   1009bd40 f   LIBCMT:_sqrt_.obj
 0001:0009ad54       _sqrt                      1009bd54     LIBCMT:_sqrt_.obj
 0001:0009adfa       __mbscmp_l                 1009bdfa f   LIBCMT:mbscmp.obj
 0001:0009aef9       __mbscmp                   1009bef9 f   LIBCMT:mbscmp.obj
 0001:0009af10       _fmod                      1009bf10 f   LIBCMT:_87fmod_.obj
 0001:0009af1a       __CIfmod                   1009bf1a f   LIBCMT:_87fmod_.obj
 0001:0009af32       __strtod_l                 1009bf32 f   LIBCMT:strtod.obj
 0001:0009b055       _strtod                    1009c055 f   LIBCMT:strtod.obj
 0001:0009b297       _strtol                    1009c297 f   LIBCMT:strtol.obj
 0001:0009b2c2       _strtoul                   1009c2c2 f   LIBCMT:strtol.obj
 0001:0009b2ee       __tolower_l                1009c2ee f   LIBCMT:tolower.obj
 0001:0009b403       _tolower                   1009c403 f   LIBCMT:tolower.obj
 0001:0009b42f       __wtol                     1009c42f f   LIBCMT:wtox.obj
 0001:0009b445       __wtoi                     1009c445 f   LIBCMT:wtox.obj
 0001:0009b450       _strncpy                   1009c450 f   LIBCMT:strncpy.obj
 0001:0009b580       _strncat                   1009c580 f   LIBCMT:strncat.obj
 0001:0009b6b5       __chdir                    1009c6b5 f   LIBCMT:chdir.obj
 0001:0009b7e0       __allmul                   1009c7e0 f   LIBCMT:llmul.obj
 0001:0009b820       __allrem                   1009c820 f   LIBCMT:llrem.obj
 0001:0009b8e0       __alldiv                   1009c8e0 f   LIBCMT:lldiv.obj
 0001:0009b98a       __toupper_l                1009c98a f   LIBCMT:toupper.obj
 0001:0009baa0       _toupper                   1009caa0 f   LIBCMT:toupper.obj
 0001:0009bacc       _fgets                     1009cacc f   LIBCMT:fgets.obj
 0001:0009bc04       __access_s                 1009cc04 f   LIBCMT:access.obj
 0001:0009bc83       __access                   1009cc83 f   LIBCMT:access.obj
 0001:0009bca0       _memchr                    1009cca0 f   LIBCMT:memchr.obj
 0001:0009bf4a       __putenv                   1009cf4a f   LIBCMT:putenv.obj
 0001:0009bf8f       __spawnv                   1009cf8f f   LIBCMT:spawnv.obj
 0001:0009bfe0       __aullrem                  1009cfe0 f   LIBCMT:ullrem.obj
 0001:0009c060       __aulldiv                  1009d060 f   LIBCMT:ulldiv.obj
 0001:0009c0d0       __aulldvrm                 1009d0d0 f   LIBCMT:ulldvrm.obj
 0001:0009c170       __allshr                   1009d170 f   LIBCMT:llshr.obj
 0001:0009c191       __forcdecpt_l              1009d191 f   LIBCMT:cvt.obj
 0001:0009c205       __cropzeros_l              1009d205 f   LIBCMT:cvt.obj
 0001:0009c287       __positive                 1009d287 f   LIBCMT:cvt.obj
 0001:0009c2a3       __fassign_l                1009d2a3 f   LIBCMT:cvt.obj
 0001:0009c2e5       __fassign                  1009d2e5 f   LIBCMT:cvt.obj
 0001:0009c31e       __forcdecpt                1009d31e f   LIBCMT:cvt.obj
 0001:0009c331       __cropzeros                1009d331 f   LIBCMT:cvt.obj
 0001:0009c4a5       __cftoe_l                  1009d4a5 f   LIBCMT:cvt.obj
 0001:0009c56c       __cftoe                    1009d56c f   LIBCMT:cvt.obj
 0001:0009c58c       __cftoa_l                  1009d58c f   LIBCMT:cvt.obj
 0001:0009ca05       __cftof_l                  1009da05 f   LIBCMT:cvt.obj
 0001:0009cac6       __cftog_l                  1009dac6 f   LIBCMT:cvt.obj
 0001:0009cbb3       __cfltcvt_l                1009dbb3 f   LIBCMT:cvt.obj
 0001:0009cc3b       __cfltcvt                  1009dc3b f   LIBCMT:cvt.obj
 0001:0009cc5e       __initp_misc_cfltcvt_tab   1009dc5e f   LIBCMT:cmiscdat.obj
 0001:0009cc81       __setdefaultprecision      1009dc81 f   LIBCMT:fp8.obj
 0001:0009cca9       __VEC_memcpy               1009dca9 f   LIBCMT:p4_memcpy.obj
 0001:0009cdac       ___sse2_available_init     1009ddac f   LIBCMT:cpu_disp.obj
 0001:0009cdbc       ?_Type_info_dtor@type_info@@CAXPAV1@@Z 1009ddbc f   LIBCMT:typname.obj
 0001:0009ce30       _strcmp                    1009de30 f   LIBCMT:strcmp.obj
 0001:0009ceb8       _abort                     1009deb8 f   LIBCMT:abort.obj
 0001:0009ceeb       __set_abort_behavior       1009deeb f   LIBCMT:abort.obj
 0001:0009cf0c       __GET_RTERRMSG             1009df0c f   LIBCMT:crt0msg.obj
 0001:0009cf32       __NMSG_WRITE               1009df32 f   LIBCMT:crt0msg.obj
 0001:0009d0e1       __FF_MSGBANNER             1009e0e1 f   LIBCMT:crt0msg.obj
 0001:0009d11a       ___getlocaleinfo           1009e11a f   LIBCMT:inithelp.obj
 0001:0009d2c6       __initp_misc_purevirt      1009e2c6 f   LIBCMT:inithelp.obj
 0001:0009d2d5       __VEC_memzero              1009e2d5 f   LIBCMT:p4_memset.obj
 0001:0009d390       __SEH_prolog4              1009e390 f   LIBCMT:sehprolg4.obj
 0001:0009d3d5       __SEH_epilog4              1009e3d5 f   LIBCMT:sehprolg4.obj
 0001:0009d3f0       __except_handler4          1009e3f0 f   LIBCMT:chandler4.obj
 0001:0009d57f       __stbuf                    1009e57f f   LIBCMT:_sftbuf.obj
 0001:0009d61b       __ftbuf                    1009e61b f   LIBCMT:_sftbuf.obj
 0001:0009d6cf       __output_l                 1009e6cf f   LIBCMT:output.obj
 0001:0009e27b       __initp_misc_invarg        1009f27b f   LIBCMT:invarg.obj
 0001:0009e28a       __call_reportfault         1009f28a f   LIBCMT:invarg.obj
 0001:0009e3b3       __invoke_watson            1009f3b3 f   LIBCMT:invarg.obj
 0001:0009e3d8       __invalid_parameter        1009f3d8 f   LIBCMT:invarg.obj
 0001:0009e405       __invalid_parameter_noinfo 1009f405 f   LIBCMT:invarg.obj
 0001:0009e415       __sse2_mathfcns_init       1009f415 f   LIBCMT:_mathfcns_.obj
 0001:0009e430       __CIacos_pentium4          1009f430 f   LIBCMT:_acos_pentium4_.obj
 0001:0009e448       __acos_pentium4            1009f448     LIBCMT:_acos_pentium4_.obj
 0001:0009e990       __trandisp1                1009f990 f   LIBCMT:_87disp_.obj
 0001:0009e9f7       __trandisp2                1009f9f7 f   LIBCMT:_87disp_.obj
 0001:0009ea83       __rttospopde               1009fa83     LIBCMT:_87disp_.obj
 0001:0009ea88       __rttospop                 1009fa88     LIBCMT:_87disp_.obj
 0001:0009ea8a       __rtnospop                 1009fa8a     LIBCMT:_87disp_.obj
 0001:0009ea8c       __rttosnpop                1009fa8c     LIBCMT:_87disp_.obj
 0001:0009ea8d       __rtnospopde               1009fa8d     LIBCMT:_87disp_.obj
 0001:0009ea94       __rtzeropop                1009fa94     LIBCMT:_87disp_.obj
 0001:0009ea96       __rtzeronpop               1009fa96     LIBCMT:_87disp_.obj
 0001:0009ea9b       __rtonepop                 1009fa9b     LIBCMT:_87disp_.obj
 0001:0009ea9d       __rtonenpop                1009fa9d     LIBCMT:_87disp_.obj
 0001:0009eaa2       __tosnan1                  1009faa2     LIBCMT:_87disp_.obj
 0001:0009eacd       __nosnan2                  1009facd     LIBCMT:_87disp_.obj
 0001:0009eacf       __tosnan2                  1009facf     LIBCMT:_87disp_.obj
 0001:0009eaf7       __nan2                     1009faf7     LIBCMT:_87disp_.obj
 0001:0009eb36       __rtindfpop                1009fb36     LIBCMT:_87disp_.obj
 0001:0009eb38       __rtindfnpop               1009fb38     LIBCMT:_87disp_.obj
 0001:0009eb49       __rttosnpopde              1009fb49     LIBCMT:_87disp_.obj
 0001:0009eb53       __rtchsifneg               1009fb53     LIBCMT:_87disp_.obj
 0001:0009eb60       __startTwoArgErrorHandling 1009fb60 f   LIBCMT:_genexcep_.obj
 0001:0009eb77       __startOneArgErrorHandling 1009fb77 f   LIBCMT:_genexcep_.obj
 0001:0009ebc0       __twoToTOS                 1009fbc0 f   LIBCMT:_common_.obj
 0001:0009ebd5       __load_CW                  1009fbd5 f   LIBCMT:_common_.obj
 0001:0009ebec       __convertTOStoQNaN         1009fbec f   LIBCMT:_common_.obj
 0001:0009ec05       __fload_withFB             1009fc05 f   LIBCMT:_common_.obj
 0001:0009ec48       __checkTOS_withFB          1009fc48 f   LIBCMT:_common_.obj
 0001:0009ec5e       __fast_exit                1009fc5e f   LIBCMT:_common_.obj
 0001:0009ec6b       __math_exit                1009fc6b f   LIBCMT:_common_.obj
 0001:0009ec95       __check_overflow_exit      1009fc95 f   LIBCMT:_common_.obj
 0001:0009eca9       __check_range_exit         1009fca9 f   LIBCMT:_common_.obj
 0001:0009ed4c       __ioinit                   1009fd4c f   LIBCMT:ioinit.obj
 0001:0009ef91       __ioterm                   1009ff91 f   LIBCMT:ioinit.obj
 0001:0009efe4       __fileno                   1009ffe4 f   LIBCMT:fileno.obj
 0001:0009f010       _strlen                    100a0010 f   LIBCMT:strlen.obj
 0001:0009f152       __input_l                  100a0152 f   LIBCMT:input.obj
 0001:000a0160       __CIpow_pentium4           100a1160 f   LIBCMT:_pow_pentium4_.obj
 0001:000a0179       __pow_pentium4             100a1179     LIBCMT:_pow_pentium4_.obj
 0001:000a0cd1       __fFEXP                    100a1cd1     LIBCMT:_87tran_.obj
 0001:000a0d28       __rtinfpopse               100a1d28     LIBCMT:_87tran_.obj
 0001:000a0d2a       __rtinfnpopse              100a1d2a     LIBCMT:_87tran_.obj
 0001:000a0d3a       __fFLN                     100a1d3a     LIBCMT:_87tran_.obj
 0001:000a0def       __rtinfpop                 100a1def     LIBCMT:_87tran_.obj
 0001:000a0df1       __rtinfnpop                100a1df1     LIBCMT:_87tran_.obj
 0001:000a0e0e       __ffexpm1                  100a1e0e     LIBCMT:_87tran_.obj
 0001:000a0eb7       __d_inttype                100a1eb7 f   LIBCMT:_powhlp_.obj
 0001:000a0f21       __powhlp                   100a1f21 f   LIBCMT:_powhlp_.obj
 0001:000a126f       ___updatetmbcinfo          100a226f f   LIBCMT:mbctype.obj
 0001:000a138f       __setmbcp_nolock           100a238f f   LIBCMT:mbctype.obj
 0001:000a1578       __setmbcp                  100a2578 f   LIBCMT:mbctype.obj
 0001:000a1712       ___initmbctable            100a2712 f   LIBCMT:mbctype.obj
 0001:000a1730       ___addlocaleref            100a2730 f   LIBCMT:localref.obj
 0001:000a17bf       ___removelocaleref         100a27bf f   LIBCMT:localref.obj
 0001:000a1858       ___freetlocinfo            100a2858 f   LIBCMT:localref.obj
 0001:000a19a3       __updatetlocinfoEx_nolock  100a29a3 f   LIBCMT:localref.obj
 0001:000a19f0       ___updatetlocinfo          100a29f0 f   LIBCMT:localref.obj
 0001:000a1a69       __encoded_null             100a2a69 f   LIBCMT:tidtable.obj
 0001:000a1a72       ___crtTlsAlloc@4           100a2a72 f   LIBCMT:tidtable.obj
 0001:000a1a7b       ___set_flsgetvalue         100a2a7b f   LIBCMT:tidtable.obj
 0001:000a1aaf       __mtterm                   100a2aaf f   LIBCMT:tidtable.obj
 0001:000a1aec       __initptd                  100a2aec f   LIBCMT:tidtable.obj
 0001:000a1ba0       __getptd_noexit            100a2ba0 f   LIBCMT:tidtable.obj
 0001:000a1c19       __getptd                   100a2c19 f   LIBCMT:tidtable.obj
 0001:000a1c33       __freefls@4                100a2c33 f   LIBCMT:tidtable.obj
 0001:000a1d62       __freeptd                  100a2d62 f   LIBCMT:tidtable.obj
 0001:000a1dd0       __mtinit                   100a2dd0 f   LIBCMT:tidtable.obj
 0001:000a1f4b       __fltin2                   100a2f4b f   LIBCMT:_cfin_.obj
 0001:000a1ff2       __isctype_l                100a2ff2 f   LIBCMT:isctype.obj
 0001:000a20aa       ___strgtold12_l            100a30aa f   LIBCMT:_strgtold_.obj
 0001:000a2786       __flsbuf                   100a3786 f   LIBCMT:_flsbuf.obj
 0001:000a28ea       __filbuf                   100a38ea f   LIBCMT:_filbuf.obj
 0001:000a2a0c       __read_nolock              100a3a0c f   LIBCMT:read.obj
 0001:000a2fc3       __read                     100a3fc3 f   LIBCMT:read.obj
 0001:000a30b9       __close_nolock             100a40b9 f   LIBCMT:close.obj
 0001:000a3155       __close                    100a4155 f   LIBCMT:close.obj
 0001:000a3219       __freebuf                  100a4219 f   LIBCMT:_freebuf.obj
 0001:000a324a       __openfile                 100a424a f   LIBCMT:_open.obj
 0001:000a34e1       __getstream                100a44e1 f   LIBCMT:stream.obj
 0001:000a3620       __local_unwind4            100a4620 f   LIBCMT:exsup4.obj
 0001:000a36f6       __seh_longjmp_unwind4@4    100a46f6 f   LIBCMT:exsup4.obj
 0001:000a3712       @_EH4_CallFilterFunc@8     100a4712 f   LIBCMT:exsup4.obj
 0001:000a3729       @_EH4_TransferToHandler@8  100a4729 f   LIBCMT:exsup4.obj
 0001:000a3742       @_EH4_GlobalUnwind2@8      100a4742 f   LIBCMT:exsup4.obj
 0001:000a375b       @_EH4_LocalUnwind@16       100a475b f   LIBCMT:exsup4.obj
 0001:000a3e53       ___tzset                   100a4e53 f   LIBCMT:tzset.obj
 0001:000a3ea2       __isindst                  100a4ea2 f   LIBCMT:tzset.obj
 0001:000a3ee3       __gmtime64_s               100a4ee3 f   LIBCMT:gmtime64.obj
 0001:000a411c       __get_daylight             100a511c f   LIBCMT:timeset.obj
 0001:000a4149       __get_dstbias              100a5149 f   LIBCMT:timeset.obj
 0001:000a4176       __get_timezone             100a5176 f   LIBCMT:timeset.obj
 0001:000a41a3       ___daylight                100a51a3 f   LIBCMT:timeset.obj
 0001:000a41a9       ___dstbias                 100a51a9 f   LIBCMT:timeset.obj
 0001:000a41af       ___timezone                100a51af f   LIBCMT:timeset.obj
 0001:000a41b5       ___tzname                  100a51b5 f   LIBCMT:timeset.obj
 0001:000a41bb       ___getgmtimebuf            100a51bb f   LIBCMT:gmtime.obj
 0001:000a41f2       __write_nolock             100a51f2 f   LIBCMT:write.obj
 0001:000a48ef       __write                    100a58ef f   LIBCMT:write.obj
 0001:000a49c3       __mbsnbicoll_l             100a59c3 f   LIBCMT:mbsnbico.obj
 0001:000a4aa1       __mbsnbicoll               100a5aa1 f   LIBCMT:mbsnbico.obj
 0001:000a4abb       ___wtomb_environ           100a5abb f   LIBCMT:wtombenv.obj
 0001:000a4b52       _strcpy_s                  100a5b52 f   LIBCMT:strcpy_s.obj
 0001:000a4bb1       __mtinitlocks              100a5bb1 f   LIBCMT:mlock.obj
 0001:000a4bfb       __mtdeletelocks            100a5bfb f   LIBCMT:mlock.obj
 0001:000a4c52       __unlock                   100a5c52 f   LIBCMT:mlock.obj
 0001:000a4c69       __mtinitlocknum            100a5c69 f   LIBCMT:mlock.obj
 0001:000a4d2b       __lock                     100a5d2b f   LIBCMT:mlock.obj
 0001:000a4d5e       _strnlen                   100a5d5e f   LIBCMT:strlen_s.obj
 0001:000a4d80       __CIasin_pentium4          100a5d80 f   LIBCMT:_asin_pentium4_.obj
 0001:000a4d98       __asin_pentium4            100a5d98     LIBCMT:_asin_pentium4_.obj
 0001:000a5300       __commit                   100a6300 f   LIBCMT:commit.obj
 0001:000a53d9       __fcloseall                100a63d9 f   LIBCMT:closeall.obj
 0001:000a5475       _strcat_s                  100a6475 f   LIBCMT:strcat_s.obj
 0001:000a559c       __itoa_s                   100a659c f   LIBCMT:xtoas.obj
 0001:000a55c6       __ultoa_s                  100a65c6 f   LIBCMT:xtoas.obj
 0001:000a55e0       __getpid                   100a65e0 f   LIBCMT:getpid.obj
 0001:000a55e6       __mbsrchr_l                100a65e6 f   LIBCMT:mbsrchr.obj
 0001:000a5690       __mbsrchr                  100a6690 f   LIBCMT:mbsrchr.obj
 0001:000a56a7       __rmtmp                    100a66a7 f   LIBCMT:rmtmp.obj
 0001:000a5e84       __sopen_helper             100a6e84 f   LIBCMT:open.obj
 0001:000a5f48       __sopen_s                  100a6f48 f   LIBCMT:open.obj
 0001:000a5f68       __lseek_nolock             100a6f68 f   LIBCMT:lseek.obj
 0001:000a5fdd       __lseek                    100a6fdd f   LIBCMT:lseek.obj
 0001:000a60b1       ___libm_error_support      100a70b1 f   LIBCMT:_libm_error_.obj
 0001:000a637d       __ceil_default             100a737d f   LIBCMT:_ceil_.obj
 0001:000a6455       __floor_default            100a7455 f   LIBCMT:_floor_.obj
 0001:000a652d       ___sys_nerr                100a752d f   LIBCMT:syserr.obj
 0001:000a6533       ___sys_errlist             100a7533 f   LIBCMT:syserr.obj
 0001:000a6539       _strncpy_s                 100a7539 f   LIBCMT:strncpy_s.obj
 0001:000a65ee       ??1bad_exception@std@@UAE@XZ 100a75ee f i LIBCMT:frame.obj
 0001:000a65f9       ??_Gbad_exception@std@@UAEPAXI@Z 100a75f9 f i LIBCMT:frame.obj
 0001:000a65f9       ??_Ebad_exception@std@@UAEPAXI@Z 100a75f9 f i LIBCMT:frame.obj
 0001:000a6620       ___TypeMatch               100a7620 f   LIBCMT:frame.obj
 0001:000a667f       ___FrameUnwindFilter       100a767f f   LIBCMT:frame.obj
 0001:000a66ce       ___FrameUnwindToState      100a76ce f   LIBCMT:frame.obj
 0001:000a67ef       ___DestructExceptionObject 100a77ef f   LIBCMT:frame.obj
 0001:000a6844       ___AdjustPointer           100a7844 f   LIBCMT:frame.obj
 0001:000a6ac8       ___BuildCatchObjectHelper  100a7ac8 f   LIBCMT:frame.obj
 0001:000a6c47       ___BuildCatchObject        100a7c47 f   LIBCMT:frame.obj
 0001:000a71c3       ??0bad_exception@std@@QAE@ABV01@@Z 100a81c3 f i LIBCMT:frame.obj
 0001:000a71e0       ___InternalCxxFrameHandler 100a81e0 f   LIBCMT:frame.obj
 0001:000a72c6       ?terminate@@YAXXZ          100a82c6 f   LIBCMT:hooks.obj
 0001:000a72ff       ?unexpected@@YAXXZ         100a82ff f   LIBCMT:hooks.obj
 0001:000a7312       ?_inconsistency@@YAXXZ     100a8312 f   LIBCMT:hooks.obj
 0001:000a734a       __initp_eh_hooks           100a834a f   LIBCMT:hooks.obj
 0001:000a7360       __CallSettingFrame@12      100a8360 f   LIBCMT:lowhelpr.obj
 0001:000a7387       __NLG_Return               100a8387     LIBCMT:lowhelpr.obj
 0001:000a73ac       __getbuf                   100a83ac f   LIBCMT:_getbuf.obj
 0001:000a73f5       __ftelli64_nolock          100a83f5 f   LIBCMT:ftelli64.obj
 0001:000a773f       __ftelli64                 100a873f f   LIBCMT:ftelli64.obj
 0001:000a77ac       __lseeki64_nolock          100a87ac f   LIBCMT:lseeki64.obj
 0001:000a7831       __lseeki64                 100a8831 f   LIBCMT:lseeki64.obj
 0001:000a791b       __fullpath                 100a891b f   LIBCMT:fullpath.obj
 0001:000a7a12       ___dtoxmode                100a8a12 f   LIBCMT:stat.obj
 0001:000a7acf       __fstat64i32               100a8acf f   LIBCMT:fstati32.obj
 0001:000a7e21       ___loctotime64_t           100a8e21 f   LIBCMT:dtoxtm64.obj
 0001:000a8088       __getdrive                 100a9088 f   LIBCMT:drive.obj
 0001:000a8156       __mbctolower_l             100a9156 f   LIBCMT:mbtolwr.obj
 0001:000a81fc       __mbctolower               100a91fc f   LIBCMT:mbtolwr.obj
 0001:000a820f       __mbspbrk_l                100a920f f   LIBCMT:mbspbrk.obj
 0001:000a82d4       __mbspbrk                  100a92d4 f   LIBCMT:mbspbrk.obj
 0001:000a82eb       __initp_misc_winsig        100a92eb f   LIBCMT:winsig.obj
 0001:000a8340       ___get_sigabrt             100a9340 f   LIBCMT:winsig.obj
 0001:000a834d       _raise                     100a934d f   LIBCMT:winsig.obj
 0001:000a84f0       __initp_misc_rand_s        100a94f0 f   LIBCMT:rand_s.obj
 0001:000a84ff       __RTC_Initialize           100a94ff f   LIBCMT:_initsect_.obj
 0001:000a8525       __RTC_Terminate            100a9525 f   LIBCMT:_initsect_.obj
 0001:000a8550       __ValidateImageBase        100a9550 f   LIBCMT:pesect.obj
 0001:000a8590       __FindPESection            100a9590 f   LIBCMT:pesect.obj
 0001:000a85e0       __IsNonwritableInCurrentImage 100a95e0 f   LIBCMT:pesect.obj
 0001:000a86c2       __strcats                  100a96c2 f   LIBCMT:setlocal.obj
 0001:000a8703       ___lc_strtolc              100a9703 f   LIBCMT:setlocal.obj
 0001:000a8822       ___lc_lctostr              100a9822 f   LIBCMT:setlocal.obj
 0001:000a89f2       __expandlocale             100a99f2 f   LIBCMT:setlocal.obj
 0001:000a9169       _setlocale                 100aa169 f   LIBCMT:setlocal.obj
 0001:000a92dd       __setenvp                  100aa2dd f   LIBCMT:stdenvp.obj
 0001:000a9553       __setargv                  100aa553 f   LIBCMT:stdargv.obj
 0001:000a960e       ___crtGetEnvironmentStringsA 100aa60e f   LIBCMT:a_env.obj
 0001:000a96a5       __XcptFilter               100aa6a5 f   LIBCMT:winxfltr.obj
 0001:000a97ef       ___CppXcptFilter           100aa7ef f   LIBCMT:winxfltr.obj
 0001:000a980f       _DllMain@12                100aa80f f   LIBCMT:dllmain.obj
 0001:000a9815       ___security_init_cookie    100aa815 f   LIBCMT:gs_support.obj
 0001:000a98b0       __controlfp_s              100aa8b0 f   LIBCMT:_contrlfp_.obj
 0001:000a990f       __statfp                   100aa90f f   LIBCMT:_fpctrl_.obj
 0001:000a991f       __clrfp                    100aa91f f   LIBCMT:_fpctrl_.obj
 0001:000a9930       __ctrlfp                   100aa930 f   LIBCMT:_fpctrl_.obj
 0001:000a995b       __set_statfp               100aa95b f   LIBCMT:_fpctrl_.obj
 0001:000a99b3       ___set_fpsr_sse2           100aa9b3 f   LIBCMT:_fpctrl_.obj
 0001:000a9a25       ___report_gsfailure        100aaa25 f   LIBCMT:gs_report.obj
 0001:000a9b30       __cintrindisp2             100aab30 f   LIBCMT:_87cdisp_.obj
 0001:000a9b6e       __cintrindisp1             100aab6e f   LIBCMT:_87cdisp_.obj
 0001:000a9bab       __ctrandisp2               100aabab f   LIBCMT:_87cdisp_.obj
 0001:000a9d3a       __ctrandisp1               100aad3a f   LIBCMT:_87cdisp_.obj
 0001:000a9d6d       __fload                    100aad6d f   LIBCMT:_87cdisp_.obj
 0001:000a9db0       __freea                    100aadb0 f i LIBCMT:a_map.obj
 0001:000a9fb7       ___crtLCMapStringA         100aafb7 f   LIBCMT:a_map.obj
 0001:000a9ffd       __isleadbyte_l             100aaffd f i LIBCMT:_wctype.obj
 0001:000aa035       _isleadbyte                100ab035 f i LIBCMT:_wctype.obj
 0001:000aa20a       _wcstol                    100ab20a f   LIBCMT:wcstol.obj
 0001:000aa224       _iswctype                  100ab224 f   LIBCMT:iswctype.obj
 0001:000aa279       __mbctoupper_l             100ab279 f   LIBCMT:mbtoupr.obj
 0001:000aa31f       __mbctoupper               100ab31f f   LIBCMT:mbtoupr.obj
 0001:000aa3e7       ___crtwsetenv              100ab3e7 f   LIBCMT:wsetenv.obj
 0001:000aa667       _wcslen                    100ab667 f   LIBCMT:wcslen.obj
 0001:000aa734       ___crtsetenv               100ab734 f   LIBCMT:setenv.obj
 0001:000aa976       __mbschr_l                 100ab976 f   LIBCMT:mbschr.obj
 0001:000aaa26       __mbschr                   100aba26 f   LIBCMT:mbschr.obj
 0001:000aaaaf       __spawnve                  100abaaf f   LIBCMT:spawnve.obj
 0001:000aac98       __atodbl_l                 100abc98 f   LIBCMT:atodbl.obj
 0001:000aad40       __atoflt_l                 100abd40 f   LIBCMT:atodbl.obj
 0001:000aade8       __fptostr                  100abde8 f   LIBCMT:_fptostr.obj
 0001:000aae9b       ___dtold                   100abe9b f   LIBCMT:_cfout_.obj
 0001:000aaf4e       __fltout2                  100abf4e f   LIBCMT:_cfout_.obj
 0001:000aafe0       __alldvrm                  100abfe0 f   LIBCMT:lldvrm.obj
 0001:000ab0c0       __aullshr                  100ac0c0 f   LIBCMT:ullshr.obj
 0001:000ab0df       __fptrap                   100ac0df f   LIBCMT:crt0fp.obj
 0001:000ab0e8       ___crtMessageBoxW          100ac0e8 f   LIBCMT:crtmboxw.obj
 0001:000ab254       _wcscat_s                  100ac254 f   LIBCMT:wcscat_s.obj
 0001:000ab2c9       _wcsncpy_s                 100ac2c9 f   LIBCMT:wcsncpy_s.obj
 0001:000ab396       _wcscpy_s                  100ac396 f   LIBCMT:wcscpy_s.obj
 0001:000ab3f9       __set_error_mode           100ac3f9 f   LIBCMT:errmode.obj
 0001:000ab512       ___crtGetLocaleInfoA       100ac512 f   LIBCMT:a_loc.obj
 0001:000ab54c       __isatty                   100ac54c f   LIBCMT:isatty.obj
 0001:000ab5a2       __wctomb_s_l               100ac5a2 f   LIBCMT:wctomb.obj
 0001:000ab6f7       _wctomb_s                  100ac6f7 f   LIBCMT:wctomb.obj
 0001:000ab714       __crt_debugger_hook        100ac714 f   LIBCMT:dbghook.obj
 0001:000ab71c       __87except                 100ac71c f   LIBCMT:_87except_.obj
 0001:000ab85b       __mbtowc_l                 100ac85b f   LIBCMT:mbtowc.obj
 0001:000ab971       _mbtowc                    100ac971 f   LIBCMT:mbtowc.obj
 0001:000ab98b       __frnd                     100ac98b f   LIBCMT:_frnd_.obj
 0001:000ab99f       __fpclass                  100ac99f f   LIBCMT:_ieeemisc_.obj
 0001:000aba3c       __set_exp                  100aca3c f   LIBCMT:_util_.obj
 0001:000aba69       __sptype                   100aca69 f   LIBCMT:_util_.obj
 0001:000abacf       __decomp                   100acacf f   LIBCMT:_util_.obj
 0001:000abc79       ___crtGetStringTypeA       100acc79 f   LIBCMT:a_str.obj
 0001:000ac4b8       ___free_lc_time            100ad4b8 f   LIBCMT:inittime.obj
 0001:000ac82f       ___init_time               100ad82f f   LIBCMT:inittime.obj
 0001:000ac8ac       ___free_lconv_num          100ad8ac f   LIBCMT:initnum.obj
 0001:000ac915       ___init_numeric            100ad915 f   LIBCMT:initnum.obj
 0001:000acb05       ___free_lconv_mon          100adb05 f   LIBCMT:initmon.obj
 0001:000acc03       ___init_monetary           100adc03 f   LIBCMT:initmon.obj
 0001:000acf63       ___pctype_func             100adf63 f   LIBCMT:ctype.obj
 0001:000acf8c       __ld12tod                  100adf8c f   LIBCMT:_intrncvt_.obj
 0001:000ad4dd       __ld12tof                  100ae4dd f   LIBCMT:_intrncvt_.obj
 0001:000ada2e       ___mtold12                 100aea2e f   LIBCMT:_mantold_.obj
 0001:000adc12       __set_osfhnd               100aec12 f   LIBCMT:osfinfo.obj
 0001:000adc93       __free_osfhnd              100aec93 f   LIBCMT:osfinfo.obj
 0001:000add19       __get_osfhandle            100aed19 f   LIBCMT:osfinfo.obj
 0001:000add82       ___lock_fhandle            100aed82 f   LIBCMT:osfinfo.obj
 0001:000ade21       __unlock_fhandle           100aee21 f   LIBCMT:osfinfo.obj
 0001:000ade48       __alloc_osfhnd             100aee48 f   LIBCMT:osfinfo.obj
 0001:000adfe1       __mbsnbicmp_l              100aefe1 f   LIBCMT:mbsnbicm.obj
 0001:000ae1e5       __mbsnbicmp                100af1e5 f   LIBCMT:mbsnbicm.obj
 0001:000ae1ff       __mbsnbcmp_l               100af1ff f   LIBCMT:mbsnbcmp.obj
 0001:000ae34b       __mbsnbcmp                 100af34b f   LIBCMT:mbsnbcmp.obj
 0001:000ae370       __global_unwind2           100af370 f   LIBCMT:exsup.obj
 0001:000ae3d5       __local_unwind2            100af3d5 f   LIBCMT:exsup.obj
 0001:000ae459       __abnormal_termination     100af459 f   LIBCMT:exsup.obj
 0001:000ae47c       __NLG_Notify1              100af47c f   LIBCMT:exsup.obj
 0001:000ae485       __NLG_Notify               100af485 f   LIBCMT:exsup.obj
 0001:000ae49c       __NLG_Dispatch2            100af49c     LIBCMT:exsup.obj
 0001:000ae49c       __NLG_Dispatch             100af49c     LIBCMT:exsup.obj
 0001:000ae4a4       __NLG_Call                 100af4a4 f   LIBCMT:exsup.obj
 0001:000ae4a6       __NLG_Return2              100af4a6     LIBCMT:exsup.obj
 0001:000ae4a7       ___init_ctype              100af4a7 f   LIBCMT:initctyp.obj
 0001:000ae84e       ____lc_codepage_func       100af84e f   LIBCMT:initctyp.obj
 0001:000ae874       ____lc_handle_func         100af874 f   LIBCMT:initctyp.obj
 0001:000ae89a       __putwch_nolock            100af89a f   LIBCMT:putwch.obj
 0001:000aeb4a       ___crtCompareStringA       100afb4a f   LIBCMT:a_cmp.obj
 0001:000aeb8c       __strnicoll_l              100afb8c f   LIBCMT:strnicol.obj
 0001:000aec76       __chsize_nolock            100afc76 f   LIBCMT:chsize.obj
 0001:000aee2c       __setmode_nolock           100afe2c f   LIBCMT:setmode.obj
 0001:000aeee7       __get_fmode                100afee7 f   LIBCMT:setmode.obj
 0001:000aef14       ___init_collate            100aff14 f   LIBCMT:initcoll.obj
 0001:000aef14       ___init_dummy              100aff14 f   LIBCMT:setlocal.obj
 0001:000aef14       __matherr                  100aff14 f   LIBCMT:_matherr_.obj
 0001:000aef17       __raise_exc_ex             100aff17 f   LIBCMT:_fpexcept_.obj
 0001:000af1f3       __raise_exc                100b01f3 f   LIBCMT:_fpexcept_.obj
 0001:000af216       __handle_exc               100b0216 f   LIBCMT:_fpexcept_.obj
 0001:000af3fa       __set_errno_from_matherr   100b03fa f   LIBCMT:_fpexcept_.obj
 0001:000af427       __errcode                  100b0427 f   LIBCMT:_fpexcept_.obj
 0001:000af45b       __umatherr                 100b045b f   LIBCMT:_fpexcept_.obj
 0001:000af4fb       __handle_qnan1             100b04fb f   LIBCMT:_fpexcept_.obj
 0001:000af550       __except1                  100b0550 f   LIBCMT:_fpexcept_.obj
 0001:000af61a       __EH_prolog3               100b061a f   LIBCMT:ehprolg3.obj
 0001:000af64d       __EH_prolog3_catch         100b064d f   LIBCMT:ehprolg3.obj
 0001:000af683       __EH_epilog3               100b0683 f   LIBCMT:ehprolg3.obj
 0001:000af697       ?_ValidateWrite@@YAHPAXI@Z 100b0697 f   LIBCMT:validate.obj
 0001:000af697       ?_ValidateExecute@@YAHP6GHXZ@Z 100b0697 f   LIBCMT:validate.obj
 0001:000af697       ?_ValidateRead@@YAHPBXI@Z  100b0697 f   LIBCMT:validate.obj
 0001:000af6a9       __mbsicmp_l                100b06a9 f   LIBCMT:mbsicmp.obj
 0001:000af8a0       __mbsicmp                  100b08a0 f   LIBCMT:mbsicmp.obj
 0001:000af8c0       __SEH_prolog4_GS           100b08c0 f   LIBCMT:sehprolg4gs.obj
 0001:000af908       __SEH_epilog4_GS           100b0908 f   LIBCMT:sehprolg4gs.obj
 0001:000af920       _strpbrk                   100b0920 f   LIBCMT:strpbrk.obj
 0001:000af960       _strcspn                   100b0960 f   LIBCMT:strcspn.obj
 0001:000aff33       ___get_qualified_locale    100b0f33 f   LIBCMT:getqloc.obj
 0001:000b0124       _memcmp                    100b1124 f   LIBCMT:memcmp.obj
 0001:000b16cb       __ismbblead                100b26cb f   LIBCMT:ismbbyte.obj
 0001:000b16e3       __wchartodigit             100b26e3 f   LIBCMT:wchtodig.obj
 0001:000b1883       __wcsnicoll_l              100b2883 f   LIBCMT:wcsnicol.obj
 0001:000b19a3       __wcsnicoll                100b29a3 f   LIBCMT:wcsnicol.obj
 0001:000b1a5d       ___mbtow_environ           100b2a5d f   LIBCMT:mbtowenv.obj
 0001:000b1ae4       __wsetenvp                 100b2ae4 f   LIBCMT:wstdenvp.obj
 0001:000b1bc0       ___crtGetEnvironmentStringsW 100b2bc0 f   LIBCMT:w_env.obj
 0001:000b1c18       _wcschr                    100b2c18 f   LIBCMT:wcschr.obj
 0001:000b1c3f       __dospawn                  100b2c3f f   LIBCMT:dospawn.obj
 0001:000b1e43       __cenvarg                  100b2e43 f   LIBCMT:cenvarg.obj
 0001:000b21df       _$I10_OUTPUT               100b31df f   LIBCMT:_x10fout_.obj
 0001:000b2ad7       __strnicmp_l               100b3ad7 f   LIBCMT:strnicmp.obj
 0001:000b2bb9       __strnicmp                 100b3bb9 f   LIBCMT:strnicmp.obj
 0001:000b2bb9       _strnicmp                  100b3bb9 f   LIBCMT:strnicmp.obj
 0001:000b2c0c       ___initconout              100b3c0c f   LIBCMT:initcon.obj
 0001:000b2c2b       ___termconout              100b3c2b f   LIBCMT:initcon.obj
 0001:000b2c42       ___ascii_stricmp           100b3c42 f   LIBCMT:stricmp.obj
 0001:000b2c7b       __stricmp_l                100b3c7b f   LIBCMT:stricmp.obj
 0001:000b2d3b       _strcmpi                   100b3d3b f   LIBCMT:stricmp.obj
 0001:000b2d3b       __stricmp                  100b3d3b f   LIBCMT:stricmp.obj
 0001:000b2d3b       _stricmp                   100b3d3b f   LIBCMT:stricmp.obj
 0001:000b2d82       ___crtCompareStringW       100b3d82 f   LIBCMT:w_cmp.obj
 0001:000b2de5       __mbsnicmp_l               100b3de5 f   LIBCMT:mbsnicmp.obj
 0001:000b2fb0       __mbsnicmp                 100b3fb0 f   LIBCMT:mbsnicmp.obj
 0001:000b2fd0       ___ascii_strnicmp          100b3fd0 f   LIBCMT:_strnicm.obj
 0001:000b3031       _wcsnlen                   100b4031 f   LIBCMT:wcslen_s.obj
 0001:000b3051       ??0_Init_locks@std@@QAE@XZ 100b4051 f   libcpmt:xlock.obj
 0001:000b3082       ??1_Init_locks@std@@QAE@XZ 100b4082 f   libcpmt:xlock.obj
 0001:000b30ab       ??0_Lockit@std@@QAE@H@Z    100b40ab f   libcpmt:xlock.obj
 0001:000b30d3       ??1_Lockit@std@@QAE@XZ     100b40d3 f   libcpmt:xlock.obj
 0001:000b30ea       ?_Callfns@ios_base@std@@AAEXW4event@12@@Z 100b40ea f i libcpmt:ios.obj
 0001:000b3111       ?_Tidy@ios_base@std@@AAEXXZ 100b4111 f i libcpmt:ios.obj
 0001:000b3155       ?_Ios_base_dtor@ios_base@std@@CAXPAV12@@Z 100b4155 f   libcpmt:ios.obj
 0001:000b3193       ??1out_of_range@std@@UAE@XZ 100b4193 f i libcpmt:xthrow.obj
 0001:000b3193       ??1length_error@std@@UAE@XZ 100b4193 f i libcpmt:xthrow.obj
 0001:000b3198       ??0logic_error@std@@QAE@ABV01@@Z 100b4198 f i libcpmt:xthrow.obj
 0001:000b31b5       ?_Xlength_error@std@@YAXPBD@Z 100b41b5 f   libcpmt:xthrow.obj
 0001:000b31e5       ??0length_error@std@@QAE@ABV01@@Z 100b41e5 f i libcpmt:xthrow.obj
 0001:000b3202       ?_Xout_of_range@std@@YAXPBD@Z 100b4202 f   libcpmt:xthrow.obj
 0001:000b3232       ??0out_of_range@std@@QAE@ABV01@@Z 100b4232 f i libcpmt:xthrow.obj
 0001:000b324f       ??_Gout_of_range@std@@UAEPAXI@Z 100b424f f i libcpmt:xthrow.obj
 0001:000b324f       ??_Elogic_error@std@@UAEPAXI@Z 100b424f f i libcpmt:xthrow.obj
 0001:000b324f       ??_Glength_error@std@@UAEPAXI@Z 100b424f f i libcpmt:xthrow.obj
 0001:000b324f       ??_Eout_of_range@std@@UAEPAXI@Z 100b424f f i libcpmt:xthrow.obj
 0001:000b324f       ??_Glogic_error@std@@UAEPAXI@Z 100b424f f i libcpmt:xthrow.obj
 0001:000b324f       ??_Elength_error@std@@UAEPAXI@Z 100b424f f i libcpmt:xthrow.obj
 0001:000b3270       ??0_Mutex@std@@QAE@XZ      100b4270 f   libcpmt:xmutex.obj
 0001:000b328a       ??1_Mutex@std@@QAE@XZ      100b428a f   libcpmt:xmutex.obj
 0001:000b32a1       ?_Lock@_Mutex@std@@QAEXXZ  100b42a1 f   libcpmt:xmutex.obj
 0001:000b32aa       ?_Unlock@_Mutex@std@@QAEXXZ 100b42aa f   libcpmt:xmutex.obj
 0001:000b32b3       ??1_Fac_node@std@@QAE@XZ   100b42b3 f i libcpmt:locale0.obj
 0001:000b32c8       ?_Facet_Register@facet@locale@std@@CAXPAV123@@Z 100b42c8 f   libcpmt:locale0.obj
 0001:000b32f2       __Deletegloballocale       100b42f2 f   libcpmt:locale0.obj
 0001:000b333f       ?_Getgloballocale@locale@std@@CAPAV_Locimp@12@XZ 100b433f f   libcpmt:locale0.obj
 0001:000b3345       ?_Setgloballocale@locale@std@@CAXPAX@Z 100b4345 f   libcpmt:locale0.obj
 0001:000b336f       ?_Locimp_dtor@_Locimp@locale@std@@CAXPAV123@@Z 100b436f f   libcpmt:locale0.obj
 0001:000b33cf       ??1_Fac_tidy_reg_t@std@@QAE@XZ 100b43cf f i libcpmt:locale0.obj
 0001:000b341d       ?_Locinfo_dtor@_Locinfo@std@@SAXPAV12@@Z 100b441d f   libcpmt:locale0.obj
 0001:000b3438       ??4?$_Yarn@D@std@@QAEAAV01@PBD@Z 100b4438 f i libcpmt:locale0.obj
 0001:000b3490       ?_Locinfo_ctor@_Locinfo@std@@SAXPAV12@PBD@Z 100b4490 f   libcpmt:locale0.obj
 0001:000b34dd       ??0_Locimp@locale@std@@AAE@_N@Z 100b44dd f i libcpmt:locale0.obj
 0001:000b351c       ??1_Locimp@locale@std@@MAE@XZ 100b451c f i libcpmt:locale0.obj
 0001:000b355f       ??_E_Locimp@locale@std@@MAEPAXI@Z 100b455f f i libcpmt:locale0.obj
 0001:000b355f       ??_G_Locimp@locale@std@@MAEPAXI@Z 100b455f f i libcpmt:locale0.obj
 0001:000b3580       ?_Init@locale@std@@CAPAV_Locimp@12@XZ 100b4580 f   libcpmt:locale0.obj
 0001:000b360f       __Tolower                  100b460f f   libcpmt:_tolower.obj
 0001:000b371c       __Getctype                 100b471c f   libcpmt:_tolower.obj
 0001:000b377c       ??8error_condition@std@@QBE_NABV01@@Z 100b477c f i libcpmt:syserror.obj
 0001:000b379d       ?equivalent@error_category@std@@UBE_NHABVerror_condition@2@@Z 100b479d f i libcpmt:syserror.obj
 0001:000b37be       ?equivalent@error_category@std@@UBE_NABVerror_code@2@H@Z 100b47be f i libcpmt:syserror.obj
 0001:000b37dd       ?name@_Iostream_error_category@std@@UBEPBDXZ 100b47dd f i libcpmt:syserror.obj
 0001:000b37dd       ?name@_Generic_error_category@std@@UBEPBDXZ 100b47dd f i libcpmt:syserror.obj
 0001:000b37e1       ?name@_System_error_category@std@@UBEPBDXZ 100b47e1 f i libcpmt:syserror.obj
 0001:000b37e5       ?default_error_condition@error_category@std@@UBE?AVerror_condition@2@H@Z 100b47e5 f i libcpmt:syserror.obj
 0001:000b37e5       ?default_error_condition@_System_error_category@std@@UBE?AVerror_condition@2@H@Z 100b47e5 f i libcpmt:syserror.obj
 0001:000b37f9       ?iostream_category@std@@YAABVerror_category@1@XZ 100b47f9 f   libcpmt:syserror.obj
 0001:000b37ff       ??_G_Iostream_error_category@std@@UAEPAXI@Z 100b47ff f i libcpmt:syserror.obj
 0001:000b37ff       ??_E_System_error_category@std@@UAEPAXI@Z 100b47ff f i libcpmt:syserror.obj
 0001:000b37ff       ??_G_Generic_error_category@std@@UAEPAXI@Z 100b47ff f i libcpmt:syserror.obj
 0001:000b37ff       ??_E_Generic_error_category@std@@UAEPAXI@Z 100b47ff f i libcpmt:syserror.obj
 0001:000b37ff       ??_E_Iostream_error_category@std@@UAEPAXI@Z 100b47ff f i libcpmt:syserror.obj
 0001:000b37ff       ??_Eerror_category@std@@UAEPAXI@Z 100b47ff f i libcpmt:syserror.obj
 0001:000b37ff       ??_G_System_error_category@std@@UAEPAXI@Z 100b47ff f i libcpmt:syserror.obj
 0001:000b37ff       ??_Gerror_category@std@@UAEPAXI@Z 100b47ff f i libcpmt:syserror.obj
 0001:000b3821       ?_Inside@?$basic_string@DU?$char_traits@D@std@@V?$allocator@D@2@@std@@QAE_NPBD@Z 100b4821 f i libcpmt:syserror.obj
 0001:000b385e       ?assign@?$basic_string@DU?$char_traits@D@std@@V?$allocator@D@2@@std@@QAEAAV12@ABV12@II@Z 100b485e f i libcpmt:syserror.obj
 0001:000b38f9       ?assign@?$basic_string@DU?$char_traits@D@std@@V?$allocator@D@2@@std@@QAEAAV12@PBDI@Z 100b48f9 f i libcpmt:syserror.obj
 0001:000b3970       ??0?$basic_string@DU?$char_traits@D@std@@V?$allocator@D@2@@std@@QAE@PBD@Z 100b4970 f i libcpmt:syserror.obj
 0001:000b39a1       ?message@_Generic_error_category@std@@UBE?AV?$basic_string@DU?$char_traits@D@std@@V?$allocator@D@2@@2@H@Z 100b49a1 f i libcpmt:syserror.obj
 0001:000b39c4       ?message@_Iostream_error_category@std@@UBE?AV?$basic_string@DU?$char_traits@D@std@@V?$allocator@D@2@@2@H@Z 100b49c4 f i libcpmt:syserror.obj
 0001:000b39f4       __Toupper                  100b49f4 f   libcpmt:_toupper.obj
 0001:000b3b06       ?_Xfsopen@std@@YAPAU_iobuf@@PBDHH@Z 100b4b06 f   libcpmt:fiopen.obj
 0001:000b3b25       ??$_Xfiopen@D@std@@YAPAU_iobuf@@PBDHH@Z 100b4b25 f i libcpmt:fiopen.obj
 0001:000b3bcd       ?_Fiopen@std@@YAPAU_iobuf@@PBDHH@Z 100b4bcd f   libcpmt:fiopen.obj
 0001:000b3bd8       __Mtxinit                  100b4bd8 f   libcpmt:xmtx.obj
 0001:000b3be8       __Mtxdst                   100b4be8 f   libcpmt:xmtx.obj
 0001:000b3bf8       __Mtxlock                  100b4bf8 f   libcpmt:xmtx.obj
 0001:000b3c08       __Mtxunlock                100b4c08 f   libcpmt:xmtx.obj
 0001:000b3c18       ?_Atexit@@YAXP6AXXZ@Z      100b4c18 f   libcpmt:iosptrs.obj
 0001:000b3c4a       ??1_Init_atexit@@QAE@XZ    100b4c4a f i libcpmt:iosptrs.obj
 0001:000b3c76       _RtlUnwind@16              100b4c76 f   kernel32:KERNEL32.dll
 0001:000b3c7c       ?_strlwr_s_l_stat@@YAHPADIPAUlocaleinfo_struct@@@Z 100b4c7c f   LIBCMT:strlwr.obj
 0001:000b3dfa       __strlwr_s_l               100b4dfa f   LIBCMT:strlwr.obj
 0001:000b3e2e       __strlwr                   100b4e2e f   LIBCMT:strlwr.obj
 0001:000b3e2e       _strlwr                    100b4e2e f   LIBCMT:strlwr.obj
 0001:000b3e8b       __getextendedkeycode       100b4e8b f   LIBCMT:getch.obj
 0001:000b3f3e       __getch_nolock             100b4f3e f   LIBCMT:getch.obj
 0001:000b4017       __kbhit_nolock             100b5017 f   LIBCMT:getch.obj
 0001:000b413f       _getch                     100b513f f   LIBCMT:getch.obj
 0001:000b413f       __getch                    100b513f f   LIBCMT:getch.obj
 0001:000b417d       _kbhit                     100b517d f   LIBCMT:getch.obj
 0001:000b417d       __kbhit                    100b517d f   LIBCMT:getch.obj
 0001:000b41bb       ___initconin               100b51bb f   LIBCMT:initconin.obj
 0001:000b41da       ___termconin               100b51da f   LIBCMT:initconin.obj
 0002:00000000       __imp__RegOpenKeyExA@20    100b8000     advapi32:ADVAPI32.dll
 0002:00000004       __imp__RegQueryValueExA@24 100b8004     advapi32:ADVAPI32.dll
 0002:00000008       __imp__RegCloseKey@4       100b8008     advapi32:ADVAPI32.dll
 0002:0000000c       \177ADVAPI32_NULL_THUNK_DATA 100b800c     advapi32:ADVAPI32.dll
 0002:00000010       __imp__GetStockObject@4    100b8010     gdi32:GDI32.dll
 0002:00000014       __imp__CreateSolidBrush@4  100b8014     gdi32:GDI32.dll
 0002:00000018       __imp__SelectObject@8      100b8018     gdi32:GDI32.dll
 0002:0000001c       __imp__DeleteObject@4      100b801c     gdi32:GDI32.dll
 0002:00000020       __imp__Rectangle@20        100b8020     gdi32:GDI32.dll
 0002:00000024       \177GDI32_NULL_THUNK_DATA  100b8024     gdi32:GDI32.dll
 0002:00000028       __imp__GetTickCount@0      100b8028     kernel32:KERNEL32.dll
 0002:0000002c       __imp__CloseHandle@4       100b802c     kernel32:KERNEL32.dll
 0002:00000030       __imp__WaitForSingleObject@8 100b8030     kernel32:KERNEL32.dll
 0002:00000034       __imp__SetEvent@4          100b8034     kernel32:KERNEL32.dll
 0002:00000038       __imp__CreateThread@24     100b8038     kernel32:KERNEL32.dll
 0002:0000003c       __imp__CreateEventA@16     100b803c     kernel32:KERNEL32.dll
 0002:00000040       __imp__GetComputerNameA@8  100b8040     kernel32:KERNEL32.dll
 0002:00000044       __imp__Sleep@4             100b8044     kernel32:KERNEL32.dll
 0002:00000048       __imp__UnmapViewOfFile@4   100b8048     kernel32:KERNEL32.dll
 0002:0000004c       __imp__GetFileSize@8       100b804c     kernel32:KERNEL32.dll
 0002:00000050       __imp__MapViewOfFile@20    100b8050     kernel32:KERNEL32.dll
 0002:00000054       __imp__CreateFileMappingA@24 100b8054     kernel32:KERNEL32.dll
 0002:00000058       __imp__CreateFileA@28      100b8058     kernel32:KERNEL32.dll
 0002:0000005c       __imp__InterlockedDecrement@4 100b805c     kernel32:KERNEL32.dll
 0002:00000060       __imp__DeleteFileA@4       100b8060     kernel32:KERNEL32.dll
 0002:00000064       __imp__InterlockedIncrement@4 100b8064     kernel32:KERNEL32.dll
 0002:00000068       __imp__TerminateProcess@8  100b8068     kernel32:KERNEL32.dll
 0002:0000006c       __imp__GetCurrentProcess@0 100b806c     kernel32:KERNEL32.dll
 0002:00000070       __imp__SetUnhandledExceptionFilter@4 100b8070     kernel32:KERNEL32.dll
 0002:00000074       __imp__CreateProcessA@40   100b8074     kernel32:KERNEL32.dll
 0002:00000078       __imp__GetTempPathA@8      100b8078     kernel32:KERNEL32.dll
 0002:0000007c       __imp__GetLocalTime@4      100b807c     kernel32:KERNEL32.dll
 0002:00000080       __imp__GetLastError@0      100b8080     kernel32:KERNEL32.dll
 0002:00000084       __imp__SetFilePointer@16   100b8084     kernel32:KERNEL32.dll
 0002:00000088       __imp__ReadFile@20         100b8088     kernel32:KERNEL32.dll
 0002:0000008c       __imp__WriteFile@20        100b808c     kernel32:KERNEL32.dll
 0002:00000090       __imp__FlushFileBuffers@4  100b8090     kernel32:KERNEL32.dll
 0002:00000094       __imp__GetConsoleScreenBufferInfo@8 100b8094     kernel32:KERNEL32.dll
 0002:00000098       __imp__GetStdHandle@4      100b8098     kernel32:KERNEL32.dll
 0002:0000009c       __imp__SetConsoleTextAttribute@8 100b809c     kernel32:KERNEL32.dll
 0002:000000a0       __imp__OutputDebugStringA@4 100b80a0     kernel32:KERNEL32.dll
 0002:000000a4       __imp__RaiseException@16   100b80a4     kernel32:KERNEL32.dll
 0002:000000a8       __imp__SetPriorityClass@8  100b80a8     kernel32:KERNEL32.dll
 0002:000000ac       __imp__GetSystemInfo@4     100b80ac     kernel32:KERNEL32.dll
 0002:000000b0       __imp__SetThreadPriority@8 100b80b0     kernel32:KERNEL32.dll
 0002:000000b4       __imp__WaitForMultipleObjects@16 100b80b4     kernel32:KERNEL32.dll
 0002:000000b8       __imp__PeekConsoleInputA@16 100b80b8     kernel32:KERNEL32.dll
 0002:000000bc       __imp__SetConsoleMode@8    100b80bc     kernel32:KERNEL32.dll
 0002:000000c0       __imp__ReadConsoleInputA@16 100b80c0     kernel32:KERNEL32.dll
 0002:000000c4       __imp__GetModuleHandleA@4  100b80c4     kernel32:KERNEL32.dll
 0002:000000c8       __imp__GetProcessHeap@0    100b80c8     kernel32:KERNEL32.dll
 0002:000000cc       __imp__HeapAlloc@12        100b80cc     kernel32:KERNEL32.dll
 0002:000000d0       __imp__VirtualQuery@12     100b80d0     kernel32:KERNEL32.dll
 0002:000000d4       __imp__GetModuleFileNameA@12 100b80d4     kernel32:KERNEL32.dll
 0002:000000d8       __imp__DeleteCriticalSection@4 100b80d8     kernel32:KERNEL32.dll
 0002:000000dc       __imp__EnterCriticalSection@4 100b80dc     kernel32:KERNEL32.dll
 0002:000000e0       __imp__LeaveCriticalSection@4 100b80e0     kernel32:KERNEL32.dll
 0002:000000e4       __imp__GetTempFileNameA@16 100b80e4     kernel32:KERNEL32.dll
 0002:000000e8       __imp__InitializeCriticalSection@4 100b80e8     kernel32:KERNEL32.dll
 0002:000000ec       __imp__CreateFileW@28      100b80ec     kernel32:KERNEL32.dll
 0002:000000f0       __imp__GetExitCodeProcess@8 100b80f0     kernel32:KERNEL32.dll
 0002:000000f4       __imp__IsValidLocale@8     100b80f4     kernel32:KERNEL32.dll
 0002:000000f8       __imp__EnumSystemLocalesA@8 100b80f8     kernel32:KERNEL32.dll
 0002:000000fc       __imp__GetLocaleInfoA@16   100b80fc     kernel32:KERNEL32.dll
 0002:00000100       __imp__GetUserDefaultLCID@0 100b8100     kernel32:KERNEL32.dll
 0002:00000104       __imp__HeapFree@12         100b8104     kernel32:KERNEL32.dll
 0002:00000108       __imp__SetEndOfFile@4      100b8108     kernel32:KERNEL32.dll
 0002:0000010c       __imp__CompareStringW@24   100b810c     kernel32:KERNEL32.dll
 0002:00000110       __imp__WriteConsoleW@20    100b8110     kernel32:KERNEL32.dll
 0002:00000114       __imp__SetStdHandle@8      100b8114     kernel32:KERNEL32.dll
 0002:00000118       __imp__SetEnvironmentVariableW@8 100b8118     kernel32:KERNEL32.dll
 0002:0000011c       __imp__GetStringTypeW@16   100b811c     kernel32:KERNEL32.dll
 0002:00000120       __imp__LCMapStringW@24     100b8120     kernel32:KERNEL32.dll
 0002:00000124       __imp__QueryPerformanceCounter@4 100b8124     kernel32:KERNEL32.dll
 0002:00000128       __imp__GetEnvironmentStringsW@0 100b8128     kernel32:KERNEL32.dll
 0002:0000012c       __imp__FreeEnvironmentStringsW@4 100b812c     kernel32:KERNEL32.dll
 0002:00000130       __imp__LoadLibraryW@4      100b8130     kernel32:KERNEL32.dll
 0002:00000134       __imp__GetCurrentDirectoryW@8 100b8134     kernel32:KERNEL32.dll
 0002:00000138       __imp__PeekNamedPipe@24    100b8138     kernel32:KERNEL32.dll
 0002:0000013c       __imp__GetFileInformationByHandle@8 100b813c     kernel32:KERNEL32.dll
 0002:00000140       __imp__GetCurrentProcessId@0 100b8140     kernel32:KERNEL32.dll
 0002:00000144       __imp__GetConsoleMode@8    100b8144     kernel32:KERNEL32.dll
 0002:00000148       __imp__GetConsoleCP@0      100b8148     kernel32:KERNEL32.dll
 0002:0000014c       __imp__GetTimeZoneInformation@4 100b814c     kernel32:KERNEL32.dll
 0002:00000150       __imp__SetLastError@4      100b8150     kernel32:KERNEL32.dll
 0002:00000154       __imp__GetExitCodeThread@8 100b8154     kernel32:KERNEL32.dll
 0002:00000158       __imp__ResumeThread@4      100b8158     kernel32:KERNEL32.dll
 0002:0000015c       __imp__IsProcessorFeaturePresent@4 100b815c     kernel32:KERNEL32.dll
 0002:00000160       __imp__WideCharToMultiByte@32 100b8160     kernel32:KERNEL32.dll
 0002:00000164       __imp__MultiByteToWideChar@24 100b8164     kernel32:KERNEL32.dll
 0002:00000168       __imp__GetProcAddress@8    100b8168     kernel32:KERNEL32.dll
 0002:0000016c       __imp__LoadLibraryExA@12   100b816c     kernel32:KERNEL32.dll
 0002:00000170       __imp__FreeLibrary@4       100b8170     kernel32:KERNEL32.dll
 0002:00000174       __imp__LoadLibraryA@4      100b8174     kernel32:KERNEL32.dll
 0002:00000178       __imp__GetPriorityClass@4  100b8178     kernel32:KERNEL32.dll
 0002:0000017c       __imp__ResetEvent@4        100b817c     kernel32:KERNEL32.dll
 0002:00000180       __imp__GetEnvironmentVariableA@12 100b8180     kernel32:KERNEL32.dll
 0002:00000184       __imp__LocalFree@4         100b8184     kernel32:KERNEL32.dll
 0002:00000188       __imp__FormatMessageA@28   100b8188     kernel32:KERNEL32.dll
 0002:0000018c       __imp__GetCurrentThread@0  100b818c     kernel32:KERNEL32.dll
 0002:00000190       __imp__DecodePointer@4     100b8190     kernel32:KERNEL32.dll
 0002:00000194       __imp__EncodePointer@4     100b8194     kernel32:KERNEL32.dll
 0002:00000198       __imp__GetSystemTimeAsFileTime@4 100b8198     kernel32:KERNEL32.dll
 0002:0000019c       __imp__RtlUnwind@16        100b819c     kernel32:KERNEL32.dll
 0002:000001a0       __imp__FindClose@4         100b81a0     kernel32:KERNEL32.dll
 0002:000001a4       __imp__FileTimeToSystemTime@8 100b81a4     kernel32:KERNEL32.dll
 0002:000001a8       __imp__FileTimeToLocalFileTime@8 100b81a8     kernel32:KERNEL32.dll
 0002:000001ac       __imp__GetDriveTypeA@4     100b81ac     kernel32:KERNEL32.dll
 0002:000001b0       __imp__FindFirstFileExA@24 100b81b0     kernel32:KERNEL32.dll
 0002:000001b4       __imp__GetDriveTypeW@4     100b81b4     kernel32:KERNEL32.dll
 0002:000001b8       __imp__GetFullPathNameA@16 100b81b8     kernel32:KERNEL32.dll
 0002:000001bc       __imp__CreateDirectoryA@8  100b81bc     kernel32:KERNEL32.dll
 0002:000001c0       __imp__FindNextFileA@8     100b81c0     kernel32:KERNEL32.dll
 0002:000001c4       __imp__GetModuleHandleW@4  100b81c4     kernel32:KERNEL32.dll
 0002:000001c8       __imp__ExitProcess@4       100b81c8     kernel32:KERNEL32.dll
 0002:000001cc       __imp__GetCurrentThreadId@0 100b81cc     kernel32:KERNEL32.dll
 0002:000001d0       __imp__GetCommandLineA@0   100b81d0     kernel32:KERNEL32.dll
 0002:000001d4       __imp__SetEnvironmentVariableA@8 100b81d4     kernel32:KERNEL32.dll
 0002:000001d8       __imp__GetCurrentDirectoryA@8 100b81d8     kernel32:KERNEL32.dll
 0002:000001dc       __imp__SetCurrentDirectoryA@4 100b81dc     kernel32:KERNEL32.dll
 0002:000001e0       __imp__GetFileAttributesA@4 100b81e0     kernel32:KERNEL32.dll
 0002:000001e4       __imp__GetModuleFileNameW@12 100b81e4     kernel32:KERNEL32.dll
 0002:000001e8       __imp__GetLocaleInfoW@16   100b81e8     kernel32:KERNEL32.dll
 0002:000001ec       __imp__UnhandledExceptionFilter@4 100b81ec     kernel32:KERNEL32.dll
 0002:000001f0       __imp__IsDebuggerPresent@0 100b81f0     kernel32:KERNEL32.dll
 0002:000001f4       __imp__SetHandleCount@4    100b81f4     kernel32:KERNEL32.dll
 0002:000001f8       __imp__InitializeCriticalSectionAndSpinCount@8 100b81f8     kernel32:KERNEL32.dll
 0002:000001fc       __imp__GetFileType@4       100b81fc     kernel32:KERNEL32.dll
 0002:00000200       __imp__GetStartupInfoW@4   100b8200     kernel32:KERNEL32.dll
 0002:00000204       __imp__GetCPInfo@8         100b8204     kernel32:KERNEL32.dll
 0002:00000208       __imp__GetACP@0            100b8208     kernel32:KERNEL32.dll
 0002:0000020c       __imp__GetOEMCP@0          100b820c     kernel32:KERNEL32.dll
 0002:00000210       __imp__IsValidCodePage@4   100b8210     kernel32:KERNEL32.dll
 0002:00000214       __imp__TlsAlloc@0          100b8214     kernel32:KERNEL32.dll
 0002:00000218       __imp__TlsGetValue@4       100b8218     kernel32:KERNEL32.dll
 0002:0000021c       __imp__TlsSetValue@8       100b821c     kernel32:KERNEL32.dll
 0002:00000220       __imp__TlsFree@4           100b8220     kernel32:KERNEL32.dll
 0002:00000224       __imp__GetNumberOfConsoleInputEvents@8 100b8224     kernel32:KERNEL32.dll
 0002:00000228       \177KERNEL32_NULL_THUNK_DATA 100b8228     kernel32:KERNEL32.dll
 0002:0000022c       __imp__LoadCursorA@8       100b822c     user32:USER32.dll
 0002:00000230       __imp__RegisterClassExA@4  100b8230     user32:USER32.dll
 0002:00000234       __imp__CreateWindowExA@48  100b8234     user32:USER32.dll
 0002:00000238       __imp__ShowWindow@8        100b8238     user32:USER32.dll
 0002:0000023c       __imp__PeekMessageA@20     100b823c     user32:USER32.dll
 0002:00000240       __imp__DispatchMessageA@4  100b8240     user32:USER32.dll
 0002:00000244       __imp__TranslateMessage@4  100b8244     user32:USER32.dll
 0002:00000248       __imp__InvalidateRect@12   100b8248     user32:USER32.dll
 0002:0000024c       __imp__BeginPaint@8        100b824c     user32:USER32.dll
 0002:00000250       __imp__EndPaint@8          100b8250     user32:USER32.dll
 0002:00000254       __imp__DefWindowProcA@16   100b8254     user32:USER32.dll
 0002:00000258       __imp__SetWindowTextA@8    100b8258     user32:USER32.dll
 0002:0000025c       \177USER32_NULL_THUNK_DATA 100b825c     user32:USER32.dll
 0002:00000260       __imp__connect@12          100b8260     ws2_32:WS2_32.dll
 0002:00000264       __imp__WSAGetLastError@0   100b8264     ws2_32:WS2_32.dll
 0002:00000268       __imp__WSASocketA@24       100b8268     ws2_32:WS2_32.dll
 0002:0000026c       __imp__socket@12           100b826c     ws2_32:WS2_32.dll
 0002:00000270       __imp__bind@12             100b8270     ws2_32:WS2_32.dll
 0002:00000274       __imp__setsockopt@20       100b8274     ws2_32:WS2_32.dll
 0002:00000278       __imp__closesocket@4       100b8278     ws2_32:WS2_32.dll
 0002:0000027c       __imp__sendto@24           100b827c     ws2_32:WS2_32.dll
 0002:00000280       __imp__WSASendTo@36        100b8280     ws2_32:WS2_32.dll
 0002:00000284       __imp__recvfrom@24         100b8284     ws2_32:WS2_32.dll
 0002:00000288       __imp__gethostbyname@4     100b8288     ws2_32:WS2_32.dll
 0002:0000028c       __imp__ntohs@4             100b828c     ws2_32:WS2_32.dll
 0002:00000290       __imp__htons@4             100b8290     ws2_32:WS2_32.dll
 0002:00000294       __imp__WSAStartup@8        100b8294     ws2_32:WS2_32.dll
 0002:00000298       __imp__ioctlsocket@12      100b8298     ws2_32:WS2_32.dll
 0002:0000029c       __imp__listen@8            100b829c     ws2_32:WS2_32.dll
 0002:000002a0       __imp__WSASend@28          100b82a0     ws2_32:WS2_32.dll
 0002:000002a4       __imp__WSARecv@28          100b82a4     ws2_32:WS2_32.dll
 0002:000002a8       __imp__WSAGetOverlappedResult@20 100b82a8     ws2_32:WS2_32.dll
 0002:000002ac       __imp__accept@12           100b82ac     ws2_32:WS2_32.dll
 0002:000002b0       __imp__select@20           100b82b0     ws2_32:WS2_32.dll
 0002:000002b4       \177WS2_32_NULL_THUNK_DATA 100b82b4     ws2_32:WS2_32.dll
 0002:000002b8       __imp__GetCPUInformation   100b82b8     tier0:tier0.dll
 0002:000002bc       __imp__g_pMemAlloc         100b82bc     tier0:tier0.dll
 0002:000002c0       __imp__Error               100b82c0     tier0:tier0.dll
 0002:000002c4       __imp__Warning             100b82c4     tier0:tier0.dll
 0002:000002c8       __imp__MemAllocScratch     100b82c8     tier0:tier0.dll
 0002:000002cc       __imp__SpewOutputFunc      100b82cc     tier0:tier0.dll
 0002:000002d0       __imp__Plat_IsInDebugSession 100b82d0     tier0:tier0.dll
 0002:000002d4       __imp__MemFreeScratch      100b82d4     tier0:tier0.dll
 0002:000002d8       __imp__CommandLine_Tier0   100b82d8     tier0:tier0.dll
 0002:000002dc       __imp_?DevMsg@@YAXPBDZZ    100b82dc     tier0:tier0.dll
 0002:000002e0       __imp__Plat_FloatTime      100b82e0     tier0:tier0.dll
 0002:000002e4       __imp__WriteMiniDumpUsingExceptionInfo 100b82e4     tier0:tier0.dll
 0002:000002e8       __imp__g_ClockSpeedSecondsMultiplier 100b82e8     tier0:tier0.dll
 0002:000002ec       __imp__Msg                 100b82ec     tier0:tier0.dll
 0002:000002f0       __imp__AssertValidStringPtr 100b82f0     tier0:tier0.dll
 0002:000002f4       __imp___AssertValidWritePtr 100b82f4     tier0:tier0.dll
 0002:000002f8       __imp__ThreadWaitForObjects 100b82f8     tier0:tier0.dll
 0002:000002fc       __imp__ReleaseThreadHandle 100b82fc     tier0:tier0.dll
 0002:00000300       __imp__CreateSimpleThread  100b8300     tier0:tier0.dll
 0002:00000304       __imp__GetThreadedLoadLibraryFunc 100b8304     tier0:tier0.dll
 0002:00000308       __imp_?UnlockRead@CThreadSpinRWLock@@QAEXXZ 100b8308     tier0:tier0.dll
 0002:0000030c       __imp_?LockForRead@CThreadSpinRWLock@@QAEXXZ 100b830c     tier0:tier0.dll
 0002:00000310       __imp_?UnlockWrite@CThreadSpinRWLock@@QAEXXZ 100b8310     tier0:tier0.dll
 0002:00000314       __imp_?LockForWrite@CThreadSpinRWLock@@QAEXXZ 100b8314     tier0:tier0.dll
 0002:00000318       __imp_??0CThreadSpinRWLock@@QAE@XZ 100b8318     tier0:tier0.dll
 0002:0000031c       __imp__g_ClockSpeed        100b831c     tier0:tier0.dll
 0002:00000320       __imp__ThreadInterlockedAssignIf64 100b8320     tier0:tier0.dll
 0002:00000324       __imp__g_pVCR              100b8324     tier0:tier0.dll
 0002:00000328       __imp__Plat_MSTime         100b8328     tier0:tier0.dll
 0002:0000032c       __imp__Plat_SetThreadName  100b832c     tier0:tier0.dll
 0002:00000330       __imp__GetSpewOutputColor  100b8330     tier0:tier0.dll
 0002:00000334       \177tier0_NULL_THUNK_DATA  100b8334     tier0:tier0.dll
 0002:00000338       __imp__RandomInt           100b8338     vstdlib:vstdlib.dll
 0002:0000033c       __imp__KeyValuesSystem     100b833c     vstdlib:vstdlib.dll
 0002:00000340       __imp_??0CUniformRandomStream@@QAE@XZ 100b8340     vstdlib:vstdlib.dll
 0002:00000344       __imp__RandomSeed          100b8344     vstdlib:vstdlib.dll
 0002:00000348       \177vstdlib_NULL_THUNK_DATA 100b8348     vstdlib:vstdlib.dll
 0002:0000034c       ___xc_a                    100b834c     LIBCMT:crt0init.obj
 0002:00000624       ___xc_z                    100b8624     LIBCMT:crt0init.obj
 0002:00000628       ___xi_a                    100b8628     LIBCMT:crt0init.obj
 0002:00000640       ___xi_z                    100b8640     LIBCMT:crt0init.obj
 0002:00000644       ___xp_a                    100b8644     LIBCMT:crt0init.obj
 0002:00000658       ___xp_z                    100b8658     LIBCMT:crt0init.obj
 0002:0000065c       ___xt_a                    100b865c     LIBCMT:crt0init.obj
 0002:00000660       ___xt_z                    100b8660     LIBCMT:crt0init.obj
 0002:00000690       ??_7ISpatialLeafEnumerator@@6B@ 100b8690     bsptreedata.obj
 0002:00000694       ??_C@_0BK@CAOLELCJ@CUtlLinkedList?5overflow?$CB?6?$AA@ 100b8694     bsptreedata.obj
 0002:000006b4       ??_7CBSPTreeData@@6BISpatialLeafEnumerator@@@ 100b86b4     bsptreedata.obj
 0002:000006bc       ??_7CBSPTreeData@@6BIBSPTreeData@@@ 100b86bc     bsptreedata.obj
 0002:000006ec       __real@e753c21c            100b86ec     disp_common.obj
 0002:000006f0       __real@6753c21c            100b86f0     disp_common.obj
 0002:000006f4       __real@3c23d70a            100b86f4     disp_common.obj
 0002:000006f8       __real@40000000            100b86f8     disp_common.obj
 0002:000006fc       __real@3f000000            100b86fc     disp_common.obj
 0002:00000700       __real@3a83126f            100b8700     disp_common.obj
 0002:00000704       __real@3dcccccd            100b8704     disp_vrad.obj
 0002:00000708       __real@00000000            100b8708     disp_vrad.obj
 0002:0000070c       __real@3f800000            100b870c     disp_vrad.obj
 0002:00000714       ??_7IIncremental@@6B@      100b8714     incremental.obj
 0002:00000734       __real@3f8ccccd            100b8734     incremental.obj
 0002:00000738       ??_C@_02GMLFBBN@wb?$AA@    100b8738     incremental.obj
 0002:0000073c       ??_C@_02JDPG@rb?$AA@       100b873c     incremental.obj
 0002:00000740       ??_C@_02GMHACPFF@?$CFu?$AA@ 100b8740     incremental.obj
 0002:00000748       ??_7CIncremental@@6B@      100b8748     incremental.obj
 0002:00000768       __real@3f847ae147ae147b    100b8768     leaf_ambient_lighting.obj
 0002:00000770       __real@475eb852            100b8770     leaf_ambient_lighting.obj
 0002:00000778       __real@3fc040a440000000    100b8778     leaf_ambient_lighting.obj
 0002:00000784       __real@44000000            100b8784     leaf_ambient_lighting.obj
 0002:00000788       __real@437f0000            100b8788     leaf_ambient_lighting.obj
 0002:0000078c       __real@3d000000            100b878c     leaf_ambient_lighting.obj
 0002:00000794       ??_7CLeafList@@6B@         100b8794     leaf_ambient_lighting.obj
 0002:00000798       __real@3f666666            100b8798     leaf_ambient_lighting.obj
 0002:0000079c       __real@38d1b717            100b879c     leaf_ambient_lighting.obj
 0002:000007a0       __real@7f7fffff            100b87a0     leaf_ambient_lighting.obj
 0002:000007a4       ??_C@_0BJ@GHCPOBOK@EncodeLeafAmbientResults?$AA@ 100b87a4     leaf_ambient_lighting.obj
 0002:000007c0       ??_C@_05KJDAJCPN@done?6?$AA@ 100b87c0     leaf_ambient_lighting.obj
 0002:000007c8       ??_C@_0BO@HCPEHPJN@Bad?5leaf?5ambient?5for?5leaf?5?$CFd?6?$AA@ 100b87c8     leaf_ambient_lighting.obj
 0002:000007e8       ??_C@_0BI@NHJNBLDP@Writing?5leaf?5ambient?4?4?4?$AA@ 100b87e8     leaf_ambient_lighting.obj
 0002:00000800       ??_C@_06KMNNMBLO@?$CF?920s?5?$AA@ 100b8800     leaf_ambient_lighting.obj
 0002:00000808       ??_C@_0BK@IBEJCMPD@ThreadComputeLeafAmbient?3?$AA@ 100b8808     leaf_ambient_lighting.obj
 0002:00000824       ??_C@_0BL@KPEIBPEA@ComputeLeafAmbientLighting?$AA@ 100b8824     leaf_ambient_lighting.obj
 0002:00000840       ??_C@_0DP@KHGBDNPE@?$CFd?5of?5?$CFd?5?$CI?$CFd?$CF?$CF?5of?$CJ?5surface?5light@ 100b8840     leaf_ambient_lighting.obj
 0002:00000880       __real@3eaaaaab            100b8880     lightmap.obj
 0002:00000884       __real@44800000            100b8884     lightmap.obj
 0002:00000888       __real@40800000            100b8888     lightmap.obj
 0002:00000890       __real@401921fb54442d18    100b8890     lightmap.obj
 0002:00000898       ??_C@_0BN@IJNKOGPO@Stack?5overflow?5in?5neighbors?6?$AA@ 100b8898     lightmap.obj
 0002:000008b8       ??_C@_0CF@JGGMCKKH@?$CF5?42f?5?$CF5?42f?5?$CF5?42f?5?$CF5?43f?5?$CF5?43f?5?$CF5@ 100b88b8     lightmap.obj
 0002:000008e0       __real@3b800000            100b88e0     lightmap.obj
 0002:000008e4       ??_C@_03PELOGHMK@?$CFi?6?$AA@ 100b88e4     lightmap.obj
 0002:000008e8       ??_C@_0BD@JECPNOK@?$CFf?5?$CFf?5?$CFf?5?$CFf?5?$CFf?5?$CFf?6?$AA@ 100b88e8     lightmap.obj
 0002:000008fc       ??_C@_02NMHMJFKO@3?6?$AA@  100b88fc     lightmap.obj
 0002:00000900       ??_C@_08EDLEFIHP@face?4txt?$AA@ 100b8900     lightmap.obj
 0002:0000090c       ??_C@_01NOFIACDB@w?$AA@    100b890c     lightmap.obj
 0002:00000910       ??_C@_0L@FEPNPAJD@targetname?$AA@ 100b8910     lightmap.obj
 0002:0000091c       ??_C@_0CD@DAHPBDPN@unknown?5light?5specifier?5type?5?9?5?$CF@ 100b891c     lightmap.obj
 0002:00000940       __real@406fe00000000000    100b8940     lightmap.obj
 0002:00000948       __real@400199999999999a    100b8948     lightmap.obj
 0002:00000950       __real@3f70101010101010    100b8950     lightmap.obj
 0002:00000958       ??_C@_0CA@BDDBBMDA@?$CFlf?5?$CFlf?5?$CFlf?5?$CFlf?5?$CFlf?5?$CFlf?5?$CFlf?5?$CFlf?$AA@ 100b8958     lightmap.obj
 0002:00000978       __real@0000000000000000    100b8978     lightmap.obj
 0002:00000980       __real@461c4000            100b8980     lightmap.obj
 0002:00000984       __real@42c80000            100b8984     lightmap.obj
 0002:00000988       __real@3f50624dd2f1a9fc    100b8988     lightmap.obj
 0002:00000990       ??_C@_09PKMCJAED@_distance?$AA@ 100b8990     lightmap.obj
 0002:0000099c       ??_C@_0BA@CJCCDNMI@_quadratic_attn?$AA@ 100b899c     lightmap.obj
 0002:000009ac       ??_C@_0N@HDINBGLD@_linear_attn?$AA@ 100b89ac     lightmap.obj
 0002:000009bc       ??_C@_0P@PBAMFGMP@_constant_attn?$AA@ 100b89bc     lightmap.obj
 0002:000009cc       __real@41200000            100b89cc     lightmap.obj
 0002:000009d0       __real@c0000000            100b89d0     lightmap.obj
 0002:000009d4       __real@3e800000            100b89d4     lightmap.obj
 0002:000009d8       __real@3f400000            100b89d8     lightmap.obj
 0002:000009e0       __real@4000000000000000    100b89e0     lightmap.obj
 0002:000009e8       ??_C@_0N@JGEPKKNM@_hardfalloff?$AA@ 100b89e8     lightmap.obj
 0002:000009f8       ??_C@_0CH@LBBNCLLL@can?8t?5solve?5quadratic?5for?5light?5@ 100b89f8     lightmap.obj
 0002:00000a20       __real@43800000            100b8a20     lightmap.obj
 0002:00000a28       ??_C@_0EK@BLAJEOED@light?5has?5_fifty_percent_distanc@ 100b8a28     lightmap.obj
 0002:00000a74       ??_C@_0BH@CBKPGCBN@_zero_percent_distance?$AA@ 100b8a74     lightmap.obj
 0002:00000a8c       __real@64078678            100b8a8c     lightmap.obj
 0002:00000a90       __real@bf800000            100b8a90     lightmap.obj
 0002:00000a94       ??_C@_0BI@DDBNOJDA@_fifty_percent_distance?$AA@ 100b8a94     lightmap.obj
 0002:00000aac       __real@c75db3d7            100b8aac     lightmap.obj
 0002:00000ab0       ??_C@_0BJ@EDBGLEON@too?5many?5lights?5?$CFd?5?1?5?$CFd?6?$AA@ 100b8ab0     lightmap.obj
 0002:00000acc       __real@3b808081            100b8acc     lightmap.obj
 0002:00000ad0       __real@40ebb67ae8584ed3    100b8ad0     lightmap.obj
 0002:00000ad8       __real@3eb33333            100b8ad8     lightmap.obj
 0002:00000ae0       __mask@@NegFloat@          100b8ae0     lightmap.obj
 0002:00000af0       __real@43220000            100b8af0     lightmap.obj
 0002:00000af4       __real@41700000            100b8af4     lightmap.obj
 0002:00000af8       __real@40c00000            100b8af8     lightmap.obj
 0002:00000afc       ??_C@_0BD@FLIPOLKC@Bad?5dl?9?$DOlight?4type?$AA@ 100b8afc     lightmap.obj
 0002:00000b10       ??_C@_0N@GNPJGFAI@visofs?5?$DN?$DN?5?91?$AA@ 100b8b10     lightmap.obj
 0002:00000b20       ??_C@_0DL@PDPBHJNI@?6WARNING?3?5Too?5many?5light?5styles?5@ 100b8b20     lightmap.obj
 0002:00000b60       __real@3fdd1745d1745d17    100b8b60     lightmap.obj
 0002:00000b68       ??_C@_0P@KBNNIAAA@_lightscaleHDR?$AA@ 100b8b68     lightmap.obj
 0002:00000b78       ??_C@_05FECBCJJD@angle?$AA@ 100b8b78     lightmap.obj
 0002:00000b80       ??_C@_05NCNFOFLM@pitch?$AA@ 100b8b80     lightmap.obj
 0002:00000b88       ??_C@_06GNEAMJOC@angles?$AA@ 100b8b88     lightmap.obj
 0002:00000b90       ??_C@_06NHCMNMEH@origin?$AA@ 100b8b90     lightmap.obj
 0002:00000b98       ??_C@_0DB@BIGEPKMB@WARNING?3?5light?5at?5?$CI?$CFi?5?$CFi?5?$CFi?$CJ?5has@ 100b8b98     lightmap.obj
 0002:00000bcc       ??_C@_06JJLAMBGK@target?$AA@ 100b8bcc     lightmap.obj
 0002:00000bd4       ??_C@_06PHHMIKBC@_light?$AA@ 100b8bd4     lightmap.obj
 0002:00000bdc       ??_C@_09CGMDFACH@_lightHDR?$AA@ 100b8bdc     lightmap.obj
 0002:00000be8       ??_C@_05IAKJCFIM@style?$AA@ 100b8be8     lightmap.obj
 0002:00000bf0       __real@40400000            100b8bf0     lightmap.obj
 0002:00000bf4       __real@bf000000            100b8bf4     lightmap.obj
 0002:00000bf8       __real@3d800000            100b8bf8     lightmap.obj
 0002:00000c00       ??_C@_0FA@EFMFCAOC@?5warning?5?9?5face?5vectors?5parallel@ 100b8c00     lightmap.obj
 0002:00000c50       __real@3bc79ca10c924223    100b8c50     lightmap.obj
 0002:00000c58       __real@3fe0000000000000    100b8c58     lightmap.obj
 0002:00000c60       __real@3ff0000000000000    100b8c60     lightmap.obj
 0002:00000c68       ??_C@_0P@MIACNFOK@no?5samples?5?$CFd?6?$AA@ 100b8c68     lightmap.obj
 0002:00000c78       __real@3bcccccd            100b8c78     lightmap.obj
 0002:00000c7c       ??_C@_0CA@PDACKCNA@Face?5?$CFd?3?5Error?5Building?5Luxels?6?$AA@ 100b8c7c     lightmap.obj
 0002:00000c9c       ??_C@_0CB@LPOIPBFA@Face?5?$CFd?3?5Error?5Building?5Samples?6@ 100b8c9c     lightmap.obj
 0002:00000cc0       ??_C@_0DC@GPKLACFN@Face?5?$CFd?3?5?$CIFast?$CJError?5Building?5Sa@ 100b8cc0     lightmap.obj
 0002:00000cf8       __real@400921fb54442d18    100b8cf8     lightmap.obj
 0002:00000d00       __real@3bb60b61            100b8d00     lightmap.obj
 0002:00000d04       ??_C@_09LABPNOD@_exponent?$AA@ 100b8d04     lightmap.obj
 0002:00000d10       ??_C@_0FN@PABHDJNE@WARNING?3?5light_spot?5at?5?$CI?$CFi?5?$CFi?5?$CFi@ 100b8d10     lightmap.obj
 0002:00000d70       ??_C@_0FN@BEFOEMKC@WARNING?3?5light_spot?5at?5?$CI?$CFi?5?$CFi?5?$CFi@ 100b8d70     lightmap.obj
 0002:00000dd0       __real@42b40000            100b8dd0     lightmap.obj
 0002:00000dd4       __real@43340000            100b8dd4     lightmap.obj
 0002:00000dd8       ??_C@_05FEPBHHHO@_cone?$AA@ 100b8dd8     lightmap.obj
 0002:00000de0       ??_C@_0M@EDODHMFK@_inner_cone?$AA@ 100b8de0     lightmap.obj
 0002:00000dec       ??_C@_0BB@JKKHEJNC@_AmbientScaleHDR?$AA@ 100b8dec     lightmap.obj
 0002:00000e00       ??_C@_08JGMBAOHC@_ambient?$AA@ 100b8e00     lightmap.obj
 0002:00000e0c       ??_C@_0M@IECLAJBI@_ambientHDR?$AA@ 100b8e0c     lightmap.obj
 0002:00000e18       ??_C@_0BI@FODDPJBA@sun?5extent?5from?5map?$DN?$CFf?6?$AA@ 100b8e18     lightmap.obj
 0002:00000e30       __real@3f91df46a2529d39    100b8e30     lightmap.obj
 0002:00000e38       ??_C@_0P@CJGIIPO@SunSpreadAngle?$AA@ 100b8e38     lightmap.obj
 0002:00000e48       ??_C@_0BC@HNBNCCGJ@?$CFi?5direct?5lights?6?$AA@ 100b8e48     lightmap.obj
 0002:00000e5c       ??_C@_0CA@EGKHAHLE@unsupported?5light?5entity?3?5?$CC?$CFs?$CC?6?$AA@ 100b8e5c     lightmap.obj
 0002:00000e7c       ??_C@_0BC@JJECDOGP@light_environment?$AA@ 100b8e7c     lightmap.obj
 0002:00000e90       ??_C@_0L@OACCHGED@light_spot?$AA@ 100b8e90     lightmap.obj
 0002:00000e9c       ??_C@_0O@JOPJPNEO@light_dynamic?$AA@ 100b8e9c     lightmap.obj
 0002:00000eac       ??_C@_05OEPGNJB@light?$AA@ 100b8eac     lightmap.obj
 0002:00000eb4       ??_C@_09CNJINBGN@classname?$AA@ 100b8eb4     lightmap.obj
 0002:00000ec0       __real@3eb0c6f7a0b5ed8d    100b8ec0     lightmap.obj
 0002:00000ec8       __real@3feff7ced916872b    100b8ec8     lightmap.obj
 0002:00000ed0       __real@358637bd            100b8ed0     lightmap.obj
 0002:00000ed4       __real@41000000            100b8ed4     lightmap.obj
 0002:00000ed8       ??_C@_0CH@DJPOMHAH@g_numvertnormals?5?$DO?5MAX_MAP_VERTN@ 100b8ed8     lightmap.obj
 0002:00000f00       ??_C@_0DE@NADELJPI@g_numvertnormalindices?5?$DN?$DN?5MAX_MA@ 100b8f00     lightmap.obj
 0002:00000f34       ??_C@_01CLKCMJKC@?5?$AA@   100b8f34     loadcmdline.obj
 0002:00000f38       ??_C@_0BI@GJGMGOAA@Command?5Line?5found?3?5?$CFs?6?$AA@ 100b8f38     loadcmdline.obj
 0002:00000f50       ??_C@_00CNPNBAHC@?$AA@     100b8f50     loadcmdline.obj
 0002:00000f54       ??_C@_0BH@FPHGKPHF@?$CFs?1cfg?1commandline?4cfg?$AA@ 100b8f54     loadcmdline.obj
 0002:00000f6c       ??_C@_0M@FMINHJIF@CommandLine?$AA@ 100b8f6c     loadcmdline.obj
 0002:00000f78       __real@3ee4f8b588e368f1    100b8f78     macro_texture.obj
 0002:00000f80       ??_C@_0BG@EMENODEA@CUtlRBTree?5overflow?$CB?6?$AA@ 100b8f80     macro_texture.obj
 0002:00000f98       ??_C@_0BN@BBACHLE@?9?9?5LoadMacroTextureFile?3?5?$CFs?6?$AA@ 100b8f98     macro_texture.obj
 0002:00000fb8       ??_C@_0CH@ECGPJLJC@IVTFTexture?3?3Unserialize?$CI?5?$CFs?5?$CJ?5f@ 100b8fb8     macro_texture.obj
 0002:00000fe0       ??_C@_0BD@PAFIIEPD@?$CFsmaterials?1?$CFs?4vtf?$AA@ 100b8fe0     macro_texture.obj
 0002:00000ff4       ??_C@_0BM@NEAIKAPE@materials?1macro?1?$CFs?1base?4vtf?$AA@ 100b8ff4     macro_texture.obj
 0002:00001010       ??_C@_0CK@DDPEPNHN@MaskOnMacroTexture?3?5can?8t?5find?5w@ 100b9010     macro_texture.obj
 0002:0000103c       ??_C@_0L@EHFOKKK@world_maxs?$AA@ 100b903c     macro_texture.obj
 0002:00001048       ??_C@_0L@NJGKBNIH@world_mins?$AA@ 100b9048     macro_texture.obj
 0002:00001054       ??_C@_0L@BIFLFHPF@worldspawn?$AA@ 100b9054     macro_texture.obj
 0002:00001064       ??_7ISQLDBCommand@@6B@     100b9064     mpi_stats.obj
 0002:0000107c       ??_C@_0O@PNHIGMNA@mysql_wrapper?$AA@ 100b907c     mpi_stats.obj
 0002:0000108c       ??_C@_0BA@JPGOEJJC@MySQLWrapper001?$AA@ 100b908c     mpi_stats.obj
 0002:0000109c       ??_C@_0CH@PNAKFGKH@?$CFs?5is?5not?5a?5valid?5database?5info?5@ 100b909c     mpi_stats.obj
 0002:000010c4       ??_C@_0CC@DFIBLENO@Can?8t?5open?5?$CFs?5for?5database?5info?4@ 100b90c4     mpi_stats.obj
 0002:000010e8       ??_C@_02BMJICGCB@rt?$AA@   100b90e8     mpi_stats.obj
 0002:000010ec       ??_C@_01KMDKNFGN@?1?$AA@   100b90ec     mpi_stats.obj
 0002:000010f0       ??_C@_01LFCBOECM@?4?$AA@   100b90f0     mpi_stats.obj
 0002:000010f4       ??_C@_0BK@BOAPLJJ@GetModuleFileName?5failed?4?$AA@ 100b90f4     mpi_stats.obj
 0002:00001110       ??_C@_0BL@HCECIFNB@?$CFs?5?9?5error?5launching?5?8?$CFs?8?6?$AA@ 100b9110     mpi_stats.obj
 0002:00001130       ??_7CSQLDBCommand_TextMessage@@6B@ 100b9130     mpi_stats.obj
 0002:0000114c       ??_7CSQLDBCommand_WorkerStats@@6B@ 100b914c     mpi_stats.obj
 0002:00001168       ??_C@_0FC@BAHGPOJL@update?5job_worker_start?5set?5Work@ 100b9168     mpi_stats.obj
 0002:000011bc       ??_C@_0DK@NBFPGFAE@update?5job_master_start?5set?5NumW@ 100b91bc     mpi_stats.obj
 0002:000011fc       ??_7CSQLDBCommand_JobMasterEnd@@6B@ 100b91fc     mpi_stats.obj
 0002:00001218       ??_7CSQLDBCommand_GraphEntry@@6B@ 100b9218     mpi_stats.obj
 0002:00001230       ??_C@_0P@JEKHFFKJ@?$CFs?5not?5enabled?$AA@ 100b9230     mpi_stats.obj
 0002:00001240       ??_C@_0DO@KPADPPEG@update?5job_master_start?5set?5Runn@ 100b9240     mpi_stats.obj
 0002:00001280       ??_C@_0DP@HDGOFHAI@insert?5into?5job_master_end?5value@ 100b9280     mpi_stats.obj
 0002:000012c0       ??_C@_0IP@MCMBBGMF@update?5job_worker_start?5set?5Runn@ 100b92c0     mpi_stats.obj
 0002:00001350       ??_C@_0GP@EDFCLLOB@insert?5into?5graph_entry?5?$CIJobWork@ 100b9350     mpi_stats.obj
 0002:000013c0       ??_C@_0FG@CEOKGCGH@insert?5into?5text_messages?5?$CIJobWo@ 100b93c0     mpi_stats.obj
 0002:00001418       ??_C@_0GN@MMADCNAP@insert?5into?5job_worker_start?5?$CI?5J@ 100b9418     mpi_stats.obj
 0002:00001488       ??_C@_0HF@BACCOONC@insert?5into?5job_master_start?5?$CI?5B@ 100b9488     mpi_stats.obj
 0002:00001500       ??_C@_0CO@ICGPMGDB@VMPI_Stats_Init_Worker?$CI?5?$CFs?0?5?$CFs?0?5@ 100b9500     mpi_stats.obj
 0002:00001530       ??_C@_0DA@KCNKMAAM@?6To?5watch?5this?5job?0?5run?5this?5com@ 100b9530     mpi_stats.obj
 0002:00001560       ??_C@_0BJ@CEDKCIMI@vmpi_job_watch?5?9JobID?5?$CFd?$AA@ 100b9560     mpi_stats.obj
 0002:0000157c       ??_C@_0CO@LGLFBNP@VMPI_Stats_Init_Master?$CI?5?$CFs?0?5?$CFs?0?5@ 100b957c     mpi_stats.obj
 0002:000015ac       ??_C@_0BA@NGDLFEJH@dbinfo_vrad?4txt?$AA@ 100b95ac     mpivrad.obj
 0002:000015bc       ??_C@_0BB@NBELHPEC@MPI_Init?5failed?4?$AA@ 100b95bc     mpivrad.obj
 0002:000015d0       ??_C@_0BJ@JJIJLFBG@dependency_info_vrad?4txt?$AA@ 100b95d0     mpivrad.obj
 0002:000015ec       ??_C@_0BG@IMDCKLEB@Initializing?5VMPI?4?4?4?6?$AA@ 100b95ec     mpivrad.obj
 0002:00001604       ??_C@_04CJAOHEDH@?9mpi?$AA@ 100b9604     mpivrad.obj
 0002:00001610       ??_C@_0EM@MHFJLBDO@UnSerializeFace?5?9?5invalid?5fl?9?$DOlu@ 100b9610     mpivrad.obj
 0002:00001660       ??_C@_0EF@KNAFBNPL@UnSerializeFace?5?9?5invalid?5fl?9?$DOlu@ 100b9660     mpivrad.obj
 0002:000016a8       ??_C@_0EF@CGPBKJDF@UnSerializeFace?5?9?5invalid?5fl?9?$DOli@ 100b96a8     mpivrad.obj
 0002:000016f0       ??_C@_0FI@FAOMPDFE@UnSerializeFace?5?9?5invalid?5sample@ 100b96f0     mpivrad.obj
 0002:00001748       ??_C@_0EH@GLEABIEG@UnSerializeFace?5?9?5invalid?5faceli@ 100b9748     mpivrad.obj
 0002:00001790       ??_C@_0ED@NFPMMNGD@UnSerializeFace?5?9?5invalid?5dface_@ 100b9790     mpivrad.obj
 0002:000017d4       ??_C@_0DC@EIMKAIJJ@?6?6?$CF?41f?$CF?$CF?5CPU?5utilization?5during?5@ 100b97d4     mpivrad.obj
 0002:00001808       __real@4059000000000000    100b9808     mpivrad.obj
 0002:00001810       ??_C@_06DGMHMLID@?5?$CI?$CFd?$CJ?6?$AA@ 100b9810     mpivrad.obj
 0002:00001818       ??_C@_0BG@IJEEJKAL@RunMPIBuildFaceLights?$AA@ 100b9818     mpivrad.obj
 0002:00001830       ??_C@_0BB@GPLHKLAP@BuildFaceLights?3?$AA@ 100b9830     mpivrad.obj
 0002:00001844       ??_C@_0CK@OELOGFJP@?$CF?41f?$CF?$CF?5CPU?5utilization?5during?5Po@ 100b9844     mpivrad.obj
 0002:00001870       ??_C@_0BE@KNJDPBJO@RunMPIBuildVisLeafs?$AA@ 100b9870     mpivrad.obj
 0002:00001884       ??_C@_0BB@PDLPFIJG@BuildVisLeafs?5?5?3?$AA@ 100b9884     mpivrad.obj
 0002:00001898       ??_C@_02HAOIJKIC@?$CFc?$AA@ 100b9898     mpivrad.obj
 0002:0000189c       ??_C@_02DPKJAMEF@?$CFd?$AA@ 100b989c     mpivrad.obj
 0002:000018a0       ??_C@_0CH@JKOHGKKO@Can?8t?5open?5?8?$CFs?8?5to?5read?5lighting@ 100b98a0     mpivrad.obj
 0002:000018c8       ??_C@_0BL@MNAGEPGL@VMPI_VIRTUAL_FILES_PATH_ID?$AA@ 100b98c8     mpivrad.obj
 0002:000018e4       ??_C@_0BJ@MMHONOPF@VMPI_DistributeLightData?$AA@ 100b98e4     mpivrad.obj
 0002:00001900       ??_C@_0P@EFPAADFK@?9?9plightdata?9?9?$AA@ 100b9900     mpivrad.obj
 0002:00001914       ??_7CMySqlDatabase@@6B@    100b9914     MySqlDatabase.obj
 0002:0000191c       __real@42200000            100b991c     pacifier.obj
 0002:00001920       ??_C@_01EEMJAFIK@?6?$AA@   100b9920     pacifier.obj
 0002:00001924       ??_C@_02DKCKIIND@?$CFs?$AA@ 100b9924     pacifier.obj
 0002:00001928       ??_C@_0N@IBCKMFJP@VPHYSICS?4DLL?$AA@ 100b9928     physdll.obj
 0002:00001938       __real@3fb999999999999a    100b9938     radial.obj
 0002:00001940       __real@3f13cd3a            100b9940     radial.obj
 0002:00001948       __real@bff0000000000000    100b9948     radial.obj
 0002:00001950       __real@3f7ff972            100b9950     radial.obj
 0002:00001958       __real@3ff6b851eb851eb8    100b9958     radial.obj
 0002:00001960       ??_C@_0CI@IKAIOPCD@SampleRadial?3?5Punting?0?5Waiting?5f@ 100b9960     radial.obj
 0002:00001988       __real@451f6000            100b9988     radial.obj
 0002:0000198c       __real@3727c5ac            100b998c     radial.obj
 0002:00001990       ??_C@_0BC@FNKAFBJP@luxels_bump?$CFd?4txt?$AA@ 100b9990     radial.obj
 0002:000019a4       __real@f149f2ca            100b99a4     radial.obj
 0002:000019a8       __real@7149f2ca            100b99a8     radial.obj
 0002:000019ac       __real@43000000            100b99ac     radial.obj
 0002:000019b0       ??_C@_09KNBJJDFK@_minlight?$AA@ 100b99b0     radial.obj
 0002:000019bc       __real@3c800000            100b99bc     samplehash.obj
 0002:000019c0       ??_C@_0BF@IKGOFBGG@Max?5Bucket?5Size?3?5?$CFd?6?$AA@ 100b99c0     samplehash.obj
 0002:000019d8       ??_C@_0BH@GFMDJLAG@?6BucketHeads?5Used?3?5?$CFd?6?$AA@ 100b99d8     samplehash.obj
 0002:000019f0       ??_C@_0P@BKCGNDAA@Bucket?5?$CFd?3?5?$CFd?6?$AA@ 100b99f0     samplehash.obj
 0002:00001a00       ??_C@_0N@DAHIHJDI@?6?$CFd?5Buckets?6?$AA@ 100b9a00     samplehash.obj
 0002:00001a10       ??_C@_0P@GHIKDFCB@samplehash?4txt?$AA@ 100b9a10     samplehash.obj
 0002:00001a20       ??_C@_05NCCFOPHA@model?$AA@ 100b9a20     trace.obj
 0002:00001a2c       ??_7CCoverageCountTexture@@6B@ 100b9a2c     trace.obj
 0002:00001a30       __real@c61c3c00            100b9a30     trace.obj
 0002:00001a34       __real@475db3d7            100b9a34     trace.obj
 0002:00001a38       ??_C@_09EILJBCDI@trace?4txt?$AA@ 100b9a38     trace.obj
 0002:00001a44       ??_C@_0BI@FCALANFP@vrad_brush_cast_shadows?$AA@ 100b9a44     trace.obj
 0002:00001a5c       __real@41800000            100b9a5c     utilmatlib.obj
 0002:00001a60       __real@400ccccd            100b9a60     utilmatlib.obj
 0002:00001a68       __real@bfb999999999999a    100b9a68     vismat.obj
 0002:00001a70       __real@3fb0000000000000    100b9a70     vismat.obj
 0002:00001a78       ??_C@_0P@BECINHGM@BuildVisLeafs?3?$AA@ 100b9a78     vismat.obj
 0002:00001a88       ??_C@_0EC@CEHAKKAN@?6Received?5worker?5crash?5minidump?5@ 100b9a88     vmpi_tools_shared.obj
 0002:00001acc       ??_C@_0DF@ECPFANDO@?6Saved?5worker?5crash?5minidump?5?8?$CFs@ 100b9acc     vmpi_tools_shared.obj
 0002:00001b04       ??_C@_0CP@FKGICCIC@?$CFs?2vmpi_?$CFs_on_?$CFs_?$CFd?$CF?42d?$CF2d?$CF?42d?$CF?4@ 100b9b04     vmpi_tools_shared.obj
 0002:00001b34       ??_C@_02GPIGINON@c?3?$AA@  100b9b34     vmpi_tools_shared.obj
 0002:00001b38       ??_C@_03FICNPLNB@TMP?$AA@  100b9b38     vmpi_tools_shared.obj
 0002:00001b3c       ??_C@_04JKHNIKCB@TEMP?$AA@ 100b9b3c     vmpi_tools_shared.obj
 0002:00001b44       ??_C@_0BH@GMABBDMG@?6Worker?5?8?$CFs?8?5dead?3?5?$CFs?6?$AA@ 100b9b44     vmpi_tools_shared.obj
 0002:00001b5c       ??_C@_0BN@NPDFIMEK@?6FAILURE?3?5?8?$CFs?8?5?$CIassert?3?5?$CFd?$CJ?6?$AA@ 100b9b5c     vmpi_tools_shared.obj
 0002:00001b7c       ??_C@_0BC@MFHIJMHG@Error?5code?50x?$CF08X?$AA@ 100b9b7c     vmpi_tools_shared.obj
 0002:00001b90       ??_C@_0BJ@FNEOPPMM@EXCEPTION_STACK_OVERFLOW?$AA@ 100b9b90     vmpi_tools_shared.obj
 0002:00001bac       ??_C@_0BG@HPCFEJHG@EXCEPTION_SINGLE_STEP?$AA@ 100b9bac     vmpi_tools_shared.obj
 0002:00001bc4       ??_C@_0BL@HJPDFKEO@EXCEPTION_PRIV_INSTRUCTION?$AA@ 100b9bc4     vmpi_tools_shared.obj
 0002:00001be0       ??_C@_0CD@JGPJMHJA@EXCEPTION_NONCONTINUABLE_EXCEPTI@ 100b9be0     vmpi_tools_shared.obj
 0002:00001c04       ??_C@_0BO@GJKCLCLP@EXCEPTION_INVALID_DISPOSITION?$AA@ 100b9c04     vmpi_tools_shared.obj
 0002:00001c24       ??_C@_0BH@HNBKDLPO@EXCEPTION_INT_OVERFLOW?$AA@ 100b9c24     vmpi_tools_shared.obj
 0002:00001c3c       ??_C@_0BN@LBLGDPIG@EXCEPTION_INT_DIVIDE_BY_ZERO?$AA@ 100b9c3c     vmpi_tools_shared.obj
 0002:00001c5c       ??_C@_0BI@BNDIILLI@EXCEPTION_IN_PAGE_ERROR?$AA@ 100b9c5c     vmpi_tools_shared.obj
 0002:00001c74       ??_C@_0BO@DLLOIENN@EXCEPTION_ILLEGAL_INSTRUCTION?$AA@ 100b9c74     vmpi_tools_shared.obj
 0002:00001c94       ??_C@_0BI@CHKFJJC@EXCEPTION_FLT_UNDERFLOW?$AA@ 100b9c94     vmpi_tools_shared.obj
 0002:00001cac       ??_C@_0BK@COBCCPEI@EXCEPTION_FLT_STACK_CHECK?$AA@ 100b9cac     vmpi_tools_shared.obj
 0002:00001cc8       ??_C@_0BH@LGFBHAFE@EXCEPTION_FLT_OVERFLOW?$AA@ 100b9cc8     vmpi_tools_shared.obj
 0002:00001ce0       ??_C@_0CA@JJDIIMDB@EXCEPTION_FLT_INVALID_OPERATION?$AA@ 100b9ce0     vmpi_tools_shared.obj
 0002:00001d00       ??_C@_0BN@KLCBBCKL@EXCEPTION_FLT_INEXACT_RESULT?$AA@ 100b9d00     vmpi_tools_shared.obj
 0002:00001d20       ??_C@_0BN@PHPNMCML@EXCEPTION_FLT_DIVIDE_BY_ZERO?$AA@ 100b9d20     vmpi_tools_shared.obj
 0002:00001d40       ??_C@_0BP@NMNHALMC@EXCEPTION_FLT_DENORMAL_OPERAND?$AA@ 100b9d40     vmpi_tools_shared.obj
 0002:00001d60       ??_C@_0CA@LEJEDDLG@EXCEPTION_DATATYPE_MISALIGNMENT?$AA@ 100b9d60     vmpi_tools_shared.obj
 0002:00001d80       ??_C@_0BF@FLLDOCJP@EXCEPTION_BREAKPOINT?$AA@ 100b9d80     vmpi_tools_shared.obj
 0002:00001d98       ??_C@_0CA@JNIHFDGO@EXCEPTION_ARRAY_BOUNDS_EXCEEDED?$AA@ 100b9d98     vmpi_tools_shared.obj
 0002:00001db8       ??_C@_0BL@CMOMFGDN@EXCEPTION_ACCESS_VIOLATION?$AA@ 100b9db8     vmpi_tools_shared.obj
 0002:00001dd4       ??_C@_0BB@DGPLGLPD@Worker?5quitting?4?$AA@ 100b9dd4     vmpi_tools_shared.obj
 0002:00001de8       ??_C@_0BF@IBMFMPIL@?$CFd?5workers?5remain?4?6?6?$AA@ 100b9de8     vmpi_tools_shared.obj
 0002:00001e00       ??_C@_0CO@ODPIGCJH@?6?6?9?9?9?5WARNING?3?5lost?5connection?5t@ 100b9e00     vmpi_tools_shared.obj
 0002:00001e30       ??_C@_0BE@INCGBJA@invalid?5packet?5size?$AA@ 100b9e30     vmpi_tools_shared.obj
 0002:00001e44       ??_C@_05HBJBFCNN@maps?1?$AA@ 100b9e44     vrad.obj
 0002:00001e4c       ??_C@_05MHMEBBGO@scale?$AA@ 100b9e4c     vrad.obj
 0002:00001e54       ??_C@_0L@DFIGMJBA@sky_camera?$AA@ 100b9e54     vrad.obj
 0002:00001e60       ??_C@_03JLINDLFM@?$CK?$CFi?$AA@ 100b9e60     vrad.obj
 0002:00001e64       ??_C@_02NNLOPPJJ@2?6?$AA@  100b9e64     vrad.obj
 0002:00001e68       __real@43848000            100b9e68     vrad.obj
 0002:00001e6c       ??_C@_0BB@MAHHKGJO@Couldn?8t?5open?5?$CFs?$AA@ 100b9e6c     vrad.obj
 0002:00001e80       ??_C@_01MCMALHOG@a?$AA@    100b9e80     vrad.obj
 0002:00001e84       __real@3f7fbe77            100b9e84     vrad.obj
 0002:00001e88       ??_C@_0BM@HMAENGJA@transfer?5lists?3?5?$CF5?41f?5megs?6?$AA@ 100b9e88     vrad.obj
 0002:00001ea4       __real@35800000            100b9ea4     vrad.obj
 0002:00001ea8       ??_C@_0BG@HDAKPLLO@transfers?5?$CFd?0?5max?5?$CFd?6?$AA@ 100b9ea8     vrad.obj
 0002:00001ec0       ??_C@_0BK@EFFNFDIC@Can?8t?5open?5?$CFs?5for?5?9dump?4?6?$AA@ 100b9ec0     vrad.obj
 0002:00001edc       ??_C@_0BL@DGDJHEMF@samples_style?$CFd_bump?$CFd?4txt?$AA@ 100b9edc     vrad.obj
 0002:00001ef8       ??_C@_0M@JMMNIPIN@?$CFs?5elapsed?6?$AA@ 100b9ef8     vrad.obj
 0002:00001f04       ??_C@_0N@DDBNFIAA@WriteBSPFile?$AA@ 100b9f04     vrad.obj
 0002:00001f14       ??_C@_0M@BBJDCBAD@Writing?5?$CFs?6?$AA@ 100b9f14     vrad.obj
 0002:00001f20       ??_C@_0BB@NOIADJDF@Ready?5to?5Finish?6?$AA@ 100b9f20     vrad.obj
 0002:00001f34       ??_C@_0DC@LOLIGMNM@Error?3?5expected?5a?5value?5after?5?8?9@ 100b9f34     vrad.obj
 0002:00001f68       ??_C@_0CL@ENFMPANK@Error?3?5expected?5a?5value?5after?5?8?9@ 100b9f68     vrad.obj
 0002:00001f94       ??_C@_0CH@ENHJKCJD@Error?3?5expected?5a?5value?5after?5?8?9@ 100b9f94     vrad.obj
 0002:00001fbc       ??_C@_0CO@MGMEDAAF@Error?3?5expected?5positive?5value?5a@ 100b9fbc     vrad.obj
 0002:00001fec       ??_C@_0CK@NLJBHBGJ@Error?3?5expected?5a?5value?5after?5?8?9@ 100b9fec     vrad.obj
 0002:00002018       ??_C@_0DK@LPOHCAJF@Error?3?5expected?5a?5sample?5size?5af@ 100ba018     vrad.obj
 0002:00002054       ??_C@_0DN@GNPLJNJI@Error?3?5expected?5an?5angular?5exten@ 100ba054     vrad.obj
 0002:00002094       ??_C@_0CP@ODFLFNLI@Error?3?5expected?5a?5value?5after?5?8?9@ 100ba094     vrad.obj
 0002:000020c4       ??_C@_0CK@KBIKAFBE@Error?3?5expected?5an?5angle?5after?5?8@ 100ba0c4     vrad.obj
 0002:000020f0       ??_C@_0DC@JLKOOPHA@Error?3?5expected?5a?5scale?5factor?5a@ 100ba0f0     vrad.obj
 0002:00002124       ??_C@_0CM@DICOCPHH@Error?3?5expected?5a?5filepath?5after@ 100ba124     vrad.obj
 0002:00002150       ??_C@_0CK@BMPDILNF@Error?3?5expected?5a?5value?5after?5?8?9@ 100ba150     vrad.obj
 0002:0000217c       ??_C@_0CJ@IMKDEKGG@Error?3?5expected?5a?5value?5after?5?8?9@ 100ba17c     vrad.obj
 0002:000021a8       ??_C@_0BA@CKJLLMMA@?9mpi_ListParams?$AA@ 100ba1a8     vrad.obj
 0002:000021b8       ??_C@_0CE@FPKFAJFE@Error?3?5g_MaxDispPatchRadius?5?$DM?510@ 100ba1b8     vrad.obj
 0002:000021dc       ??_C@_0BB@BHHCPJMK@?9disppatchradius?$AA@ 100ba1dc     vrad.obj
 0002:000021f0       ??_C@_0DC@LHODJDEH@Error?3?5expected?5positive?5value?5a@ 100ba1f0     vrad.obj
 0002:00002224       ??_C@_09PCOLJEDM@?9dispchop?$AA@ 100ba224     vrad.obj
 0002:00002230       ??_C@_05LJLLGPCO@?9chop?$AA@ 100ba230     vrad.obj
 0002:00002238       ??_C@_0DB@NEKIJCAJ@Error?3?5expected?5positive?5value?5a@ 100ba238     vrad.obj
 0002:0000226c       ??_C@_08KHKCNEKI@?9maxchop?$AA@ 100ba26c     vrad.obj
 0002:00002278       ??_C@_04CDKLNDGE@?9ldr?$AA@ 100ba278     vrad.obj
 0002:00002280       ??_C@_04KMMJEEDD@?9hdr?$AA@ 100ba280     vrad.obj
 0002:00002288       ??_C@_0P@EOOCKJDE@?9FullMinidumps?$AA@ 100ba288     vrad.obj
 0002:00002298       ??_C@_05FACLEBO@?9game?$AA@ 100ba298     vrad.obj
 0002:000022a0       ??_C@_09NFNCOJPN@?9vproject?$AA@ 100ba2a0     vrad.obj
 0002:000022ac       ??_C@_0L@JACELBLD@?9NoVConfig?$AA@ 100ba2ac     vrad.obj
 0002:000022b8       ??_C@_0M@OJHILNKA@?9allowdebug?$AA@ 100ba2b8     vrad.obj
 0002:000022c4       ??_C@_06NIKDPCHB@?9steam?$AA@ 100ba2c4     vrad.obj
 0002:000022cc       ??_C@_0M@IBLANKAJ@?9StopOnExit?$AA@ 100ba2cc     vrad.obj
 0002:000022d8       ??_C@_0BD@EELFOCBJ@?9maxdispsamplesize?$AA@ 100ba2d8     vrad.obj
 0002:000022ec       ??_C@_0P@HPGOFLKP@sun?5extent?$DN?$CFf?6?$AA@ 100ba2ec     vrad.obj
 0002:000022fc       ??_C@_08DHFIGNHC@?9softsun?$AA@ 100ba2fc     vrad.obj
 0002:00002308       ??_C@_0M@CBLILJMC@?9onlydetail?$AA@ 100ba308     vrad.obj
 0002:00002314       ??_C@_08FEEIKDPD@?9loghash?$AA@ 100ba314     vrad.obj
 0002:00002320       ??_C@_04FCIJMIMA@?9low?$AA@ 100ba320     vrad.obj
 0002:00002328       ??_C@_0O@FPIKJGEE@?9luxeldensity?$AA@ 100ba328     vrad.obj
 0002:00002338       ??_C@_0L@HNANKPIF@?9dlightmap?$AA@ 100ba338     vrad.obj
 0002:00002344       ??_C@_07BHLPKHMJ@?9smooth?$AA@ 100ba344     vrad.obj
 0002:0000234c       ??_C@_0P@KANMIPBJ@?9centersamples?$AA@ 100ba34c     vrad.obj
 0002:0000235c       ??_C@_09PGPNLOCE@?9extrasky?$AA@ 100ba35c     vrad.obj
 0002:00002368       ??_C@_06NNNCIECK@?9final?$AA@ 100ba368     vrad.obj
 0002:00002370       ??_C@_0BB@KHCCPNCP@?9noskyboxrecurse?$AA@ 100ba370     vrad.obj
 0002:00002384       ??_C@_05HNADDAME@?9fast?$AA@ 100ba384     vrad.obj
 0002:0000238c       ??_C@_0N@MAABNFCA@?9fastambient?$AA@ 100ba38c     vrad.obj
 0002:0000239c       ??_C@_0M@FDBGGJEB@?9debugextra?$AA@ 100ba39c     vrad.obj
 0002:000023a8       ??_C@_08IMICOENE@?9noextra?$AA@ 100ba3a8     vrad.obj
 0002:000023b4       ??_C@_07BJCJLBBK@?9lights?$AA@ 100ba3b4     vrad.obj
 0002:000023bc       ??_C@_0DB@BDMKGILF@Error?3?5expected?5positive?5value?5a@ 100ba3bc     vrad.obj
 0002:000023f0       ??_C@_08CFGFJOBF@?9threads?$AA@ 100ba3f0     vrad.obj
 0002:000023fc       ??_C@_02EJEOCNCO@?9v?$AA@  100ba3fc     vrad.obj
 0002:00002400       ??_C@_08FBJJFDKJ@?9verbose?$AA@ 100ba400     vrad.obj
 0002:0000240c       ??_C@_07KFPFLCEG@?9bounce?$AA@ 100ba40c     vrad.obj
 0002:00002414       ??_C@_0BH@JEHCMBEP@?9LargeDispSampleRadius?$AA@ 100ba414     vrad.obj
 0002:0000242c       ??_C@_0L@NOOOENJH@?9dumptrace?$AA@ 100ba42c     vrad.obj
 0002:00002438       ??_C@_0N@CNNAGOIB@?9dumpnormals?$AA@ 100ba438     vrad.obj
 0002:00002448       ??_C@_0L@EFMNLOLF@?9rederrors?$AA@ 100ba448     vrad.obj
 0002:00002454       ??_C@_0P@EPIPBGIM@?9nodetaillight?$AA@ 100ba454     vrad.obj
 0002:00002464       ??_C@_05KKGMOIBC@?9dump?$AA@ 100ba464     vrad.obj
 0002:0000246c       ??_C@_0BA@CGJMIDKO@?9textureshadows?$AA@ 100ba46c     vrad.obj
 0002:0000247c       ??_C@_0L@NBENLBOO@?9nossprops?$AA@ 100ba47c     vrad.obj
 0002:00002488       ??_C@_0BB@MLCCFEAD@?9StaticPropPolys?$AA@ 100ba488     vrad.obj
 0002:0000249c       ??_C@_0BB@MBCJJMAO@?9OnlyStaticProps?$AA@ 100ba49c     vrad.obj
 0002:000024b0       ??_C@_0BD@DNGJPLNJ@?9StaticPropNormals?$AA@ 100ba4b0     vrad.obj
 0002:000024c4       ??_C@_0BE@NDBMCFND@?9StaticPropLighting?$AA@ 100ba4c4     vrad.obj
 0002:000024d8       ??_C@_02PHMGELLB@?6?6?$AA@ 100ba4d8     vrad.obj
 0002:000024dc       ??_C@_05NKLPODEL@?$CC?$CFs?$CC?5?$AA@ 100ba4dc     vrad.obj
 0002:000024e4       ??_C@_0P@IFCDDMDK@Command?5line?3?5?$AA@ 100ba4e4     vrad.obj
 0002:000024f8       ??_C@_0NIC@ENDAAHID@usage?5?5?3?5vrad?5?$FLoptions?4?4?4?$FN?5bspfi@ 100ba4f8     vrad.obj
 0002:0000327c       ??_C@_0BL@CFPPEOD@CUtlBlockMemory?5overflow?$CB?6?$AA@ 100bb27c     vrad.obj
 0002:00003298       __real@3f7d70a4            100bb298     vrad.obj
 0002:000032a0       __real@3fefae147ae147ae    100bb2a0     vrad.obj
 0002:000032a8       __real@3e7ad7f29abcaf48    100bb2a8     vrad.obj
 0002:000032b0       __real@3fc015bf9217271a    100bb2b0     vrad.obj
 0002:000032b8       __real@3ea2f983            100bb2b8     vrad.obj
 0002:000032bc       ??_C@_0BK@MJIEFJMM@Memory?5allocation?5failure?$AA@ 100bb2bc     vrad.obj
 0002:000032d8       ??_C@_0N@EADPJHMA@bounce?$CFi?4txt?$AA@ 100bb2d8     vrad.obj
 0002:000032e8       ??_C@_0CJ@NCFEPHJP@?7Bounce?5?$CD?$CFi?5added?5RGB?$CI?$CF?40f?0?5?$CF?40f@ 100bb2e8     vrad.obj
 0002:00003314       ??_C@_0N@PIEJBCMB@GatherLight?3?$AA@ 100bb314     vrad.obj
 0002:00003324       ??_C@_0CC@LKJNCCBD@?$FL?$CFi?5texlights?5parsed?5from?5?8?$CFs?8?$FN?6@ 100bb324     vrad.obj
 0002:00003348       ??_C@_0CP@OFGECOKO@Warning?3?5Overriding?5?8?$CFs?8?5from?5?8?$CF@ 100bb348     vrad.obj
 0002:00003378       ??_C@_0CP@KKCIOHGE@Warning?3?5Redundant?5?8?$CFs?8?5def?5in?5?8@ 100bb378     vrad.obj
 0002:000033a8       ??_C@_0CL@EFGEGNOL@ERROR?$AH?3?5Duplication?5of?5?8?$CFs?8?5in?5f@ 100bb3a8     vrad.obj
 0002:000033d4       ??_C@_0CB@DABPJMEH@ignoring?5bad?5texlight?5?8?$CFs?8?5in?5?$CFs@ 100bb3d4     vrad.obj
 0002:000033f8       ??_C@_03IKGEINEE@?$CFs?5?$AA@ 100bb3f8     vrad.obj
 0002:000033fc       ??_C@_0BN@LDCGIJDN@Too?5many?5texlights?0?5max?5?$DN?5?$CFd?$AA@ 100bb3fc     vrad.obj
 0002:0000341c       ??_C@_0BG@BHDNPGHA@forcetextureshadow?5?$CFs?$AA@ 100bb41c     vrad.obj
 0002:00003434       ??_C@_0M@DHOOLBNM@noshadow?5?$CFs?$AA@ 100bb434     vrad.obj
 0002:00003440       ??_C@_02OJDBNLEE@?5?7?$AA@ 100bb440     vrad.obj
 0002:00003444       ??_C@_04KDIHJALN@ldr?3?$AA@ 100bb444     vrad.obj
 0002:0000344c       ??_C@_04FGAHDGHN@hdr?3?$AA@ 100bb44c     vrad.obj
 0002:00003454       ??_C@_0BP@JGKOHDBG@?$FLReading?5texlights?5from?5?8?$CFs?8?$FN?6?$AA@ 100bb454     vrad.obj
 0002:00003474       ??_C@_0CK@GFBMDCM@Warning?3?5Couldn?8t?5open?5texlight?5@ 100bb474     vrad.obj
 0002:000034a0       ??_C@_01KDCPPGHE@r?$AA@    100bb4a0     vrad.obj
 0002:000034a4       ??_C@_0CJ@EIFAKEJO@numplanes?5?$CL?5fakeplanes?5?$DO?$DN?5MAX_MA@ 100bb4a4     vrad.obj
 0002:000034d0       ??_C@_0CF@KLOCJNNC@?$CFi?5square?5feet?5?$FL?$CF?42f?5square?5inch@ 100bb4d0     vrad.obj
 0002:000034f8       __real@3be38e39            100bb4f8     vrad.obj
 0002:000034fc       ??_C@_0BF@HFDJCILA@?$CFd?5degenerate?5faces?6?$AA@ 100bb4fc     vrad.obj
 0002:00003514       ??_C@_09OJELJLLL@?$CFi?5faces?6?$AA@ 100bb514     vrad.obj
 0002:00003520       ??_C@_0CN@DOIJONC@SubdividePatch?3?5Error?5?9?5Should?5n@ 100bb520     vrad.obj
 0002:00003550       ??_C@_0BH@CIDNLHHM@zero?5area?5child?5patch?6?$AA@ 100bb550     vrad.obj
 0002:00003568       ??_C@_0BO@EEIDENFP@?$CFi?5patches?5after?5subdivision?6?$AA@ 100bb568     vrad.obj
 0002:00003588       ??_C@_0BP@LMMAAIIN@?$CFi?5patches?5before?5subdivision?6?$AA@ 100bb588     vrad.obj
 0002:000035a8       ??_C@_0BF@IPJHBMFG@FinalLightFace?5Done?6?$AA@ 100bb5a8     vrad.obj
 0002:000035c0       ??_C@_0BA@OGCLONJ@FinalLightFace?3?$AA@ 100bb5c0     vrad.obj
 0002:000035d0       ??_C@_0P@HPDKDCLK@FinalLightFace?$AA@ 100bb5d0     vrad.obj
 0002:000035e0       ??_C@_0CG@DMLBMHAM@Build?5Patch?1Sample?5Hash?5Table?$CIs?$CJ@ 100bb5e0     vrad.obj
 0002:00003608       ??_C@_0P@KHFHCFEC@bounce0_?$CFd?4txt?$AA@ 100bb608     vrad.obj
 0002:00003618       ??_C@_0BB@JGMBMJFJ@BuildFacelights?3?$AA@ 100bb618     vrad.obj
 0002:0000362c       ??_C@_0DB@KBHMIMHP@Unable?5to?5load?5incremental?5light@ 100bb62c     vrad.obj
 0002:00003660       ??_C@_0BF@OEPJPHNF@Done?5?$CI?$CF?42f?5seconds?$CJ?6?$AA@ 100bb660     vrad.obj
 0002:00003678       ??_C@_0DA@JMFAGBHH@Setting?5up?5ray?9trace?5acceleratio@ 100bb678     vrad.obj
 0002:000036a8       ??_C@_0CL@KNEIIPPE@No?5vis?5information?0?5direct?5light@ 100bb6a8     vrad.obj
 0002:000036d4       ??_C@_0M@PABEJIHC@LoadBSPFile?$AA@ 100bb6d4     vrad.obj
 0002:000036e0       ??_C@_0M@LGGMODLI@Loading?5?$CFs?6?$AA@ 100bb6e0     vrad.obj
 0002:000036ec       ??_C@_04KPILAJPA@?4bsp?$AA@ 100bb6ec     vrad.obj
 0002:000036f4       ??_C@_03BGGFHCCD@?4r0?$AA@ 100bb6f4     vrad.obj
 0002:000036f8       ??_C@_04MOJOPOCE@?4rad?$AA@ 100bb6f8     vrad.obj
 0002:00003700       ??_C@_0EH@JAJFKBAP@Could?5not?5find?5lights?4rad?5in?5?$CFs?4@ 100bb700     vrad.obj
 0002:00003748       ??_C@_0L@LKJKEPKE@lights?4rad?$AA@ 100bb748     vrad.obj
 0002:00003754       ??_C@_06BEJGOBHG@?$CFs?4log?$AA@ 100bb754     vrad.obj
 0002:0000375c       ??_C@_0M@KCNIJEDH@master?5done?$AA@ 100bb75c     vrad.obj
 0002:00003768       ??_C@_0CH@KPIGPHP@?6?5?5?5?5?5?5Valve?5Radiosity?5Simulator@ 100bb768     vrad.obj
 0002:00003790       ??_C@_0CN@NDPLHIIL@Valve?5Software?5?9?5vrad?4exe?5SSE?5?$CIS@ 100bb790     vrad.obj
 0002:000037c0       ??_C@_04MGPNHKCO@vrad?$AA@ 100bb7c0     vrad.obj
 0002:000037c8       ??_C@_0BO@GFDJNPPN@Patch?5Sample?5Radius?5Clamped?$CB?6?$AA@ 100bb7c8     vrad_dispcoll.obj
 0002:000037e8       __real@3f8020c5            100bb7e8     vrad_dispcoll.obj
 0002:000037ec       __real@3f800008            100bb7ec     vrad_dispcoll.obj
 0002:000037f0       __real@00800000            100bb7f0     vrad_dispcoll.obj
 0002:000037f8       ??_7CVRADDispColl@@6B@     100bb7f8     vrad_dispcoll.obj
 0002:00003808       ??_7CLightSurface@@6B@     100bb808     vraddetailprops.obj
 0002:00003810       __real@41a00000            100bb810     vraddetailprops.obj
 0002:00003814       __real@3fc97b42            100bb814     vraddetailprops.obj
 0002:00003818       __real@3eb50481            100bb818     vraddetailprops.obj
 0002:0000381c       ??_C@_0CK@NCLOHJLK@WARNING?3?5Bogus?5detail?5props?5enco@ 100bb81c     vraddetailprops.obj
 0002:00003848       ??_C@_0CC@ODFKEGF@Computing?5detail?5prop?5lighting?5?3@ 100bb848     vraddetailprops.obj
 0002:00003870       ??_7CBSPDispRayDistanceEnumerator@@6B@ 100bb870     vraddisps.obj
 0002:00003878       ??_7CBSPDispRayEnumerator@@6BIBSPTreeDataEnumerator@@@ 100bb878     vraddisps.obj
 0002:00003880       ??_7CBSPDispRayEnumerator@@6BISpatialLeafEnumerator@@@ 100bb880     vraddisps.obj
 0002:00003884       __real@3d4ccccd            100bb884     vraddisps.obj
 0002:00003888       __real@3e19999a            100bb888     vraddisps.obj
 0002:0000388c       ??_C@_0BC@KDFDLPHD@Done?$DM?$CF1?44lf?5sec?$DO?6?$AA@ 100bb88c     vraddisps.obj
 0002:000038a0       ??_C@_0CF@MJKJABOA@?$CFi?5Square?5Feet?5?$FL?$CF?42f?5Square?5Inch@ 100bb8a0     vraddisps.obj
 0002:000038c8       ??_C@_0BC@CABNLFKF@?$CFi?5Displacements?6?$AA@ 100bb8c8     vraddisps.obj
 0002:000038dc       ??_C@_0BO@GCFJMJIH@Disp?5UV?5?$CI?$CFf?$CJ?5outside?5bounds?$CB?6?$AA@ 100bb8dc     vraddisps.obj
 0002:000038fc       ??_C@_0CL@CGBNJNHC@BuildDispSamples?3?5WARNING?5?9?5no?5s@ 100bb8fc     vraddisps.obj
 0002:00003928       ??_C@_0DH@EEADOEGB@BuildDispSamples?3?5WARNING?5?9?5fail@ 100bb928     vraddisps.obj
 0002:00003964       ??_7CBSPDispFaceListEnumerator@@6BIBSPTreeDataEnumerator@@@ 100bb964     vraddisps.obj
 0002:0000396c       ??_7CBSPDispFaceListEnumerator@@6BISpatialLeafEnumerator@@@ 100bb96c     vraddisps.obj
 0002:0000397c       ??_7CVRadDispMgr@@6B@      100bb97c     vraddisps.obj
 0002:000039d8       __real@bc800000            100bb9d8     vraddisps.obj
 0002:000039dc       __real@ff7fffff            100bb9dc     vraddisps.obj
 0002:000039e0       ??_C@_0L@NBJCPIOE@g_Overlays?$AA@ 100bb9e0     vraddll.obj
 0002:000039ec       ??_C@_0BF@HNDIMLHJ@g_TexDataStringTable?$AA@ 100bb9ec     vraddll.obj
 0002:00003a04       ??_C@_0BE@MPGIGLFF@g_TexDataStringData?$AA@ 100bba04     vraddll.obj
 0002:00003a18       ??_C@_0BB@JNCIGBKG@g_CubemapSamples?$AA@ 100bba18     vraddll.obj
 0002:00003a2c       ??_C@_0BC@GHLMHHHL@g_ClipPortalVerts?$AA@ 100bba2c     vraddll.obj
 0002:00003a40       ??_C@_0P@HGMJFHKI@dleafwaterdata?$AA@ 100bba40     vraddll.obj
 0002:00003a50       ??_C@_0N@FAPCGMGP@dworldlights?$AA@ 100bba50     vraddll.obj
 0002:00003a60       ??_C@_0N@KPNFHHN@dareaportals?$AA@ 100bba60     vraddll.obj
 0002:00003a70       ??_C@_06BMCPKLDE@dareas?$AA@ 100bba70     vraddll.obj
 0002:00003a78       ??_C@_0M@JCBGCPCJ@dbrushsides?$AA@ 100bba78     vraddll.obj
 0002:00003a84       ??_C@_08KAEBKHEC@dbrushes?$AA@ 100bba84     vraddll.obj
 0002:00003a90       ??_C@_0L@NFIFPLK@dsurfedges?$AA@ 100bba90     vraddll.obj
 0002:00003a9c       ??_C@_0N@JLHOBJJN@dleafbrushes?$AA@ 100bba9c     vraddll.obj
 0002:00003aac       ??_C@_0L@EEBPJLOP@dleaffaces?$AA@ 100bbaac     vraddll.obj
 0002:00003ab8       ??_C@_06MFBOOLFH@dedges?$AA@ 100bbab8     vraddll.obj
 0002:00003ac0       ??_C@_06EAIIBNO@dfaces?$AA@ 100bbac0     vraddll.obj
 0002:00003ac8       ??_C@_0O@JLIDMNFB@g_primindices?$AA@ 100bbac8     vraddll.obj
 0002:00003ad8       ??_C@_0M@CEAKPJME@g_primverts?$AA@ 100bbad8     vraddll.obj
 0002:00003ae4       ??_C@_0N@GELBKKKG@g_primitives?$AA@ 100bbae4     vraddll.obj
 0002:00003af4       ??_C@_0L@BCBLBPFF@dorigfaces?$AA@ 100bbaf4     vraddll.obj
 0002:00003b00       ??_C@_0L@FMOFOJNE@g_dispinfo?$AA@ 100bbb00     vraddll.obj
 0002:00003b0c       ??_C@_08MOKKJDPM@dtexdata?$AA@ 100bbb0c     vraddll.obj
 0002:00003b18       ??_C@_07GNNMAGOE@texinfo?$AA@ 100bbb18     vraddll.obj
 0002:00003b20       ??_C@_0O@FDLIBCD@g_vertnormals?$AA@ 100bbb20     vraddll.obj
 0002:00003b30       ??_C@_0BE@HOHHGKMJ@g_vertnormalindices?$AA@ 100bbb30     vraddll.obj
 0002:00003b44       ??_C@_09IBNIPKGG@dvertexes?$AA@ 100bbb44     vraddll.obj
 0002:00003b50       ??_C@_07GIIHGMOO@dplanes?$AA@ 100bbb50     vraddll.obj
 0002:00003b58       ??_C@_06PIFMHCKK@dleafs?$AA@ 100bbb58     vraddll.obj
 0002:00003b60       ??_C@_08LHODGMI@dentdata?$AA@ 100bbb60     vraddll.obj
 0002:00003b6c       ??_C@_0O@GACIHEPC@dlightdataHDR?$AA@ 100bbb6c     vraddll.obj
 0002:00003b7c       ??_C@_0O@OPEKODKF@dlightdataLDR?$AA@ 100bbb7c     vraddll.obj
 0002:00003b8c       ??_C@_08CBOIAODG@dvisdata?$AA@ 100bbb8c     vraddll.obj
 0002:00003b98       ??_C@_07PICKNALA@dmodels?$AA@ 100bbb98     vraddll.obj
 0002:00003ba4       ??_7CVRadDLL@@6BILaunchableDLL@@@ 100bbba4     vraddll.obj
 0002:00003bac       ??_7CVRadDLL@@6BIVRadDLL@@@ 100bbbac     vraddll.obj
 0002:00003bcc       ??_C@_0O@KPLJONPH@vmf_entities_?$AA@ 100bbbcc     vraddll.obj
 0002:00003bdc       ??_C@_09EFCFLAFC@vraddll_1?$AA@ 100bbbdc     vraddll.obj
 0002:00003be8       ??_C@_0BB@EFNBGOD@launchable_dll_1?$AA@ 100bbbe8     vraddll.obj
 0002:00003c04       ??_C@_07FLCBLKFO@models?1?$AA@ 100bbc04     vradstaticprops.obj
 0002:00003c0c       ??_C@_0DA@GOHLNAIA@Error?5allocating?5?$CFd?5bytes?5for?5Ve@ 100bbc0c     vradstaticprops.obj
 0002:00003c3c       ??_C@_0CP@JIJCKMIO@Error?5Vertex?5File?5?$CFs?5checksum?5?$CFd@ 100bbc3c     vradstaticprops.obj
 0002:00003c6c       ??_C@_0CO@EPFJDMKK@Error?5Vertex?5File?5?$CFs?5version?5?$CFd?5@ 100bbc6c     vradstaticprops.obj
 0002:00003c9c       ??_C@_0CJ@LHDPNPII@Error?5Vertex?5File?5?$CFs?5id?5?$CFd?5shoul@ 100bbc9c     vradstaticprops.obj
 0002:00003cc8       ??_C@_0BP@FEBLCPLO@Bad?5size?5for?5vertex?5data?5?$CC?$CFs?$CC?6?$AA@ 100bbcc8     vradstaticprops.obj
 0002:00003ce8       ??_C@_0CB@HKBKLBIF@Unable?5to?5load?5vertex?5data?5?$CC?$CFs?$CC?6@ 100bbce8     vradstaticprops.obj
 0002:00003d0c       ??_C@_04FIJFNMIG@?4vvd?$AA@ 100bbd0c     vradstaticprops.obj
 0002:00003d18       ??_C@_0FI@LOLAELP@Error?$CB?5To?5use?5model?5?$CC?$CFs?$CC?6?5?5?5?5?5?5a@ 100bbd18     vradstaticprops.obj
 0002:00003d70       ??_C@_0CD@DHAHLJAK@Error?$CB?5Invalid?5model?5version?5?$CC?$CFs@ 100bbd70     vradstaticprops.obj
 0002:00003d94       ??_C@_0CA@IIJAMPAG@Error?$CB?5Invalid?5model?5file?5?$CC?$CFs?$CC?6?$AA@ 100bbd94     vradstaticprops.obj
 0002:00003db4       ??_C@_04LGCIMDIF@IDAG?$AA@ 100bbdb4     vradstaticprops.obj
 0002:00003dbc       ??_C@_04MIGFPFAJ@IDST?$AA@ 100bbdbc     vradstaticprops.obj
 0002:00003dc4       ??_C@_0CC@EIDPPGJI@Error?$CB?5Unable?5to?5load?5model?5?$CC?$CFs?$CC@ 100bbdc4     vradstaticprops.obj
 0002:00003de8       ??_C@_04JECKGBDM@?4phy?$AA@ 100bbde8     vradstaticprops.obj
 0002:00003df0       ??_C@_0DI@DHCNBBNJ@Error?$CB?5Invalid?5VTX?5file?5checksum@ 100bbdf0     vradstaticprops.obj
 0002:00003e28       ??_C@_0DH@GAMCLLPD@Error?$CB?5Invalid?5VTX?5file?5version?3@ 100bbe28     vradstaticprops.obj
 0002:00003e60       ??_C@_0CB@FKPELHOH@Error?$CB?5Unable?5to?5load?5file?5?$CC?$CFs?$CC?6@ 100bbe60     vradstaticprops.obj
 0002:00003e84       ??_C@_09CIJGEPKI@?4dx80?4vtx?$AA@ 100bbe84     vradstaticprops.obj
 0002:00003e90       ??_C@_09HMEKPKBH@sp_?$CFd?4vhv?$AA@ 100bbe90     vradstaticprops.obj
 0002:00003e9c       ??_C@_0O@CNPNABKL@sp_hdr_?$CFd?4vhv?$AA@ 100bbe9c     vradstaticprops.obj
 0002:00003eac       ??_C@_0BJ@HPDOEAO@Loaded?5alpha?5texture?5?$CFs?6?$AA@ 100bbeac     vradstaticprops.obj
 0002:00003ec8       ??_C@_04GJCHGKGK@?4vtf?$AA@ 100bbec8     vradstaticprops.obj
 0002:00003ed0       ??_C@_0L@MBFMKBNG@materials?1?$AA@ 100bbed0     vradstaticprops.obj
 0002:00003edc       __real@42480000            100bbedc     vradstaticprops.obj
 0002:00003ee0       ??_C@_0BA@DJHGLKJI@ComputeLighting?$AA@ 100bbee0     vradstaticprops.obj
 0002:00003ef0       ??_C@_0BJ@CMGOPOGI@unexpected?5strips?5found?6?$AA@ 100bbef0     vradstaticprops.obj
 0002:00003f0c       ??_C@_0BG@KHLFPKH@EncodeLightingResults?$AA@ 100bbf0c     vradstaticprops.obj
 0002:00003f24       ??_C@_07MPDMINNB@$nocull?$AA@ 100bbf24     vradstaticprops.obj
 0002:00003f2c       ??_C@_0N@NEFMJPPI@$basetexture?$AA@ 100bbf2c     vradstaticprops.obj
 0002:00003f3c       ??_C@_0L@OMKAMLJA@$alphatest?$AA@ 100bbf3c     vradstaticprops.obj
 0002:00003f48       ??_C@_0N@EGJMIADL@$translucent?$AA@ 100bbf48     vradstaticprops.obj
 0002:00003f58       ??_C@_03JLLDDLCC@vmt?$AA@  100bbf58     vradstaticprops.obj
 0002:00003f5c       ??_C@_04CCEICEG@?4vmt?$AA@ 100bbf5c     vradstaticprops.obj
 0002:00003f64       ??_C@_0CB@NNCBMIFA@ThreadComputeStaticPropLighting?3@ 100bbf64     vradstaticprops.obj
 0002:00003f88       ??_C@_0CE@HIKOEODF@CVradStaticPropMgr?3?3ComputeLight@ 100bbf88     vradstaticprops.obj
 0002:00003fac       ??_C@_0CC@LNGBDODB@Computing?5static?5prop?5lighting?5?3@ 100bbfac     vradstaticprops.obj
 0002:00003fd0       ??_C@_0FC@MJNMKPP@Cannot?5load?5the?5static?5props?4?4?4?5@ 100bbfd0     vradstaticprops.obj
 0002:00004024       ??_C@_0CK@LDHPLPGM@Unable?5to?5get?5?8?$CFs?8?5for?5physics?5i@ 100bc024     vradstaticprops.obj
 0002:00004050       ??_C@_0BF@PLKAEACL@VPhysicsCollision007?$AA@ 100bc050     vradstaticprops.obj
 0002:00004068       ??_C@_0BN@EOHKBIML@Unable?5to?5load?5vphysics?5DLL?4?$AA@ 100bc068     vradstaticprops.obj
 0002:0000408c       ??_7CVradStaticPropMgr@@6B@ 100bc08c     vradstaticprops.obj
 0002:000040a0       ??_C@_0BK@FBHKPEMJ@ZIP_PreloadDirectoryEntry?$AA@ 100bc0a0     zip_utils.obj
 0002:000040bc       ??_C@_0BC@HEOACHKI@ZIP_PreloadHeader?$AA@ 100bc0bc     zip_utils.obj
 0002:000040d0       ??_C@_0BE@DFBHNPNK@ZIP_LocalFileHeader?$AA@ 100bc0d0     zip_utils.obj
 0002:000040e4       ??_C@_0P@DELNDGBJ@ZIP_FileHeader?$AA@ 100bc0e4     zip_utils.obj
 0002:000040f4       ??_C@_0BK@HMMNJNAE@ZIP_EndOfCentralDirRecord?$AA@ 100bc0f4     zip_utils.obj
 0002:00004110       ??_C@_0BD@DIHGEHMN@?$CFd_?$CFd_?$CFd_?$CFd_?$CFd?4tmp?$AA@ 100bc110     zip_utils.obj
 0002:00004124       ??_C@_07PDHECPID@_?$CFs?4tmp?$AA@ 100bc124     zip_utils.obj
 0002:00004130       ??_7CFileStream@@6B@       100bc130     zip_utils.obj
 0002:00004138       ??_C@_08CBJJBCAI@XZP?$CFc?5?$CFd?$AA@ 100bc138     zip_utils.obj
 0002:00004144       ??_C@_03LJCPBJM@XZP?$AA@   100bc144     zip_utils.obj
 0002:0000414c       ??_7CBufferStream@@6B@     100bc14c     zip_utils.obj
 0002:00004154       ??_C@_03OFAPEBGM@?$CFs?6?$AA@ 100bc154     zip_utils.obj
 0002:00004158       ??_C@_09CMIIOJHF@signature?$AA@ 100bc158     zip_utils.obj
 0002:00004164       ??_C@_0BB@LEECKDMO@numberOfThisDisk?$AA@ 100bc164     zip_utils.obj
 0002:00004178       ??_C@_0CL@OMGIEOOH@numberOfTheDiskWithStartOfCentra@ 100bc178     zip_utils.obj
 0002:000041a4       ??_C@_0CC@CAOEOPLI@nCentralDirectoryEntries_ThisDis@ 100bc1a4     zip_utils.obj
 0002:000041c8       ??_C@_0BP@GOGNIAAK@nCentralDirectoryEntries_Total?$AA@ 100bc1c8     zip_utils.obj
 0002:000041e8       ??_C@_0BF@DGGHGBPA@centralDirectorySize?$AA@ 100bc1e8     zip_utils.obj
 0002:00004200       ??_C@_0BI@PHNJPAJL@startOfCentralDirOffset?$AA@ 100bc200     zip_utils.obj
 0002:00004218       ??_C@_0O@PEAODJEB@commentLength?$AA@ 100bc218     zip_utils.obj
 0002:00004228       ??_C@_0O@OABAGKLC@versionMadeBy?$AA@ 100bc228     zip_utils.obj
 0002:00004238       ??_C@_0BH@KAODBOOK@versionNeededToExtract?$AA@ 100bc238     zip_utils.obj
 0002:00004250       ??_C@_05GECEPKB@flags?$AA@ 100bc250     zip_utils.obj
 0002:00004258       ??_C@_0BC@JMCGMPDB@compressionMethod?$AA@ 100bc258     zip_utils.obj
 0002:0000426c       ??_C@_0BB@LHLABCIP@lastModifiedTime?$AA@ 100bc26c     zip_utils.obj
 0002:00004280       ??_C@_0BB@BBDDFBN@lastModifiedDate?$AA@ 100bc280     zip_utils.obj
 0002:00004294       ??_C@_05KBIBMHFC@crc32?$AA@ 100bc294     zip_utils.obj
 0002:0000429c       ??_C@_0P@IEFIMPBE@compressedSize?$AA@ 100bc29c     zip_utils.obj
 0002:000042ac       ??_C@_0BB@BDLNGEJN@uncompressedSize?$AA@ 100bc2ac     zip_utils.obj
 0002:000042c0       ??_C@_0P@GEFKFGAH@fileNameLength?$AA@ 100bc2c0     zip_utils.obj
 0002:000042d0       ??_C@_0BB@MBCIFNFD@extraFieldLength?$AA@ 100bc2d0     zip_utils.obj
 0002:000042e4       ??_C@_0BC@JLPEPFDC@fileCommentLength?$AA@ 100bc2e4     zip_utils.obj
 0002:000042f8       ??_C@_0BA@EPOPKLNJ@diskNumberStart?$AA@ 100bc2f8     zip_utils.obj
 0002:00004308       ??_C@_0BE@CBMOBGJC@internalFileAttribs?$AA@ 100bc308     zip_utils.obj
 0002:0000431c       ??_C@_0BE@HMGGBLGA@externalFileAttribs?$AA@ 100bc31c     zip_utils.obj
 0002:00004330       ??_C@_0BM@OJCDHDKM@relativeOffsetOfLocalHeader?$AA@ 100bc330     zip_utils.obj
 0002:0000434c       ??_C@_07NGFJPNPN@Version?$AA@ 100bc34c     zip_utils.obj
 0002:00004354       ??_C@_0BB@GFAJHKJ@DirectoryEntries?$AA@ 100bc354     zip_utils.obj
 0002:00004368       ??_C@_0BI@IAOOMPJP@PreloadDirectoryEntries?$AA@ 100bc368     zip_utils.obj
 0002:00004380       ??_C@_09FBMAGD@Alignment?$AA@ 100bc380     zip_utils.obj
 0002:0000438c       ??_C@_06MHCOIGNA@Length?$AA@ 100bc38c     zip_utils.obj
 0002:00004394       ??_C@_0L@HLJLKILN@DataOffset?$AA@ 100bc394     zip_utils.obj
 0002:000043a4       ??_7CZip@@6B@              100bc3a4     zip_utils.obj
 0002:000043f4       ??_C@_0BI@OECFCPNB@swapmoppsurfaceheader_t?$AA@ 100bc3f4     bsplib.obj
 0002:0000440c       ??_C@_0BL@DNFCANOP@swapcompactsurfaceheader_t?$AA@ 100bc40c     bsplib.obj
 0002:00004428       ??_C@_0BE@OFLJJEKJ@swapcollideheader_t?$AA@ 100bc428     bsplib.obj
 0002:0000443c       ??_C@_0BD@OLKDGEE@LUMP_OVERLAY_FADES?$AA@ 100bc43c     bsplib.obj
 0002:00004450       ??_C@_0P@IIOJAODF@LUMP_MAP_FLAGS?$AA@ 100bc450     bsplib.obj
 0002:00004460       ??_C@_0P@FDJNLOGC@LUMP_FACES_HDR?$AA@ 100bc460     bsplib.obj
 0002:00004470       ??_C@_0BB@NEDFPAGN@LUMP_XZIPPAKFILE?$AA@ 100bc470     bsplib.obj
 0002:00004484       ??_C@_0BL@BKCBAMMA@LUMP_LEAF_AMBIENT_LIGHTING?$AA@ 100bc484     bsplib.obj
 0002:000044a0       ??_C@_0BP@BFFHMJPJ@LUMP_LEAF_AMBIENT_LIGHTING_HDR?$AA@ 100bc4a0     bsplib.obj
 0002:000044c0       ??_C@_0BF@CANCIIGC@LUMP_WORLDLIGHTS_HDR?$AA@ 100bc4c0     bsplib.obj
 0002:000044d8       ??_C@_0BC@KEAACHGA@LUMP_LIGHTING_HDR?$AA@ 100bc4d8     bsplib.obj
 0002:000044ec       ??_C@_0BI@BMFPOHKD@LUMP_LEAF_AMBIENT_INDEX?$AA@ 100bc4ec     bsplib.obj
 0002:00004504       ??_C@_0BM@MBKMFPBI@LUMP_LEAF_AMBIENT_INDEX_HDR?$AA@ 100bc504     bsplib.obj
 0002:00004520       ??_C@_0BD@CLELFBLI@LUMP_WATEROVERLAYS?$AA@ 100bc520     bsplib.obj
 0002:00004534       ??_C@_0BI@NJJHKFEP@LUMP_PHYSCOLLIDESURFACE?$AA@ 100bc534     bsplib.obj
 0002:0000454c       ??_C@_0P@ILJIKKIG@LUMP_DISP_TRIS?$AA@ 100bc54c     bsplib.obj
 0002:0000455c       ??_C@_0BN@FKFFDEEC@LUMP_FACE_MACRO_TEXTURE_INFO?$AA@ 100bc55c     bsplib.obj
 0002:0000457c       ??_C@_0BI@PEOPPAME@LUMP_LEAFMINDISTTOWATER?$AA@ 100bc57c     bsplib.obj
 0002:00004594       ??_C@_0O@EGIHIGHE@LUMP_OVERLAYS?$AA@ 100bc594     bsplib.obj
 0002:000045a4       ??_C@_0BK@HOIMAHNF@LUMP_TEXDATA_STRING_TABLE?$AA@ 100bc5a4     bsplib.obj
 0002:000045c0       ??_C@_0BJ@PGCIOLBP@LUMP_TEXDATA_STRING_DATA?$AA@ 100bc5c0     bsplib.obj
 0002:000045dc       ??_C@_0O@MHPJGMBB@LUMP_CUBEMAPS?$AA@ 100bc5dc     bsplib.obj
 0002:000045ec       ??_C@_0BF@NDALMOFD@LUMP_CLIPPORTALVERTS?$AA@ 100bc5ec     bsplib.obj
 0002:00004604       ??_C@_0N@GNKDOCCI@LUMP_PAKFILE?$AA@ 100bc604     bsplib.obj
 0002:00004614       ??_C@_0BB@KPDLNDCB@LUMP_PRIMINDICES?$AA@ 100bc614     bsplib.obj
 0002:00004628       ??_C@_0P@OELFIIM@LUMP_PRIMVERTS?$AA@ 100bc628     bsplib.obj
 0002:00004638       ??_C@_0BA@IJBIAGAH@LUMP_PRIMITIVES?$AA@ 100bc638     bsplib.obj
 0002:00004648       ??_C@_0BD@ODLDHPKI@LUMP_LEAFWATERDATA?$AA@ 100bc648     bsplib.obj
 0002:0000465c       ??_C@_0P@GGMDDMAI@LUMP_GAME_LUMP?$AA@ 100bc65c     bsplib.obj
 0002:0000466c       ??_C@_0CE@CBCIIDNL@LUMP_DISP_LIGHTMAP_SAMPLE_POSITI@ 100bc66c     bsplib.obj
 0002:00004690       ??_C@_0BA@IIJJJMKK@LUMP_DISP_VERTS?$AA@ 100bc690     bsplib.obj
 0002:000046a0       ??_C@_0BK@HINDNDEN@LUMP_DISP_LIGHTMAP_ALPHAS?$AA@ 100bc6a0     bsplib.obj
 0002:000046bc       ??_C@_0BH@FFAKLLAA@LUMP_VERTNORMALINDICES?$AA@ 100bc6bc     bsplib.obj
 0002:000046d4       ??_C@_0BB@DBIDJPFD@LUMP_VERTNORMALS?$AA@ 100bc6d4     bsplib.obj
 0002:000046e8       ??_C@_0BB@MBCNHCIA@LUMP_PHYSCOLLIDE?$AA@ 100bc6e8     bsplib.obj
 0002:000046fc       ??_C@_0O@OEJDLIOJ@LUMP_PHYSDISP?$AA@ 100bc6fc     bsplib.obj
 0002:0000470c       ??_C@_0BD@EJIHOJDL@LUMP_ORIGINALFACES?$AA@ 100bc70c     bsplib.obj
 0002:00004720       ??_C@_0O@EJABBFOH@LUMP_DISPINFO?$AA@ 100bc720     bsplib.obj
 0002:00004730       ??_C@_0N@HPHHNHMM@LUMP_UNUSED3?$AA@ 100bc730     bsplib.obj
 0002:00004740       ??_C@_0N@GGGMOGIN@LUMP_UNUSED2?$AA@ 100bc740     bsplib.obj
 0002:00004750       ??_C@_0N@ENEBLFEO@LUMP_UNUSED1?$AA@ 100bc750     bsplib.obj
 0002:00004760       ??_C@_0N@FEFKIEAP@LUMP_UNUSED0?$AA@ 100bc760     bsplib.obj
 0002:00004770       ??_C@_0BB@OJCKABCN@LUMP_AREAPORTALS?$AA@ 100bc770     bsplib.obj
 0002:00004784       ??_C@_0L@HCKCACPC@LUMP_AREAS?$AA@ 100bc784     bsplib.obj
 0002:00004790       ??_C@_0BA@BNCFENGJ@LUMP_BRUSHSIDES?$AA@ 100bc790     bsplib.obj
 0002:000047a0       ??_C@_0N@DPCCMAAJ@LUMP_BRUSHES?$AA@ 100bc7a0     bsplib.obj
 0002:000047b0       ??_C@_0BB@HIKJEPMN@LUMP_LEAFBRUSHES?$AA@ 100bc7b0     bsplib.obj
 0002:000047c4       ??_C@_0P@CJINAEPL@LUMP_LEAFFACES?$AA@ 100bc7c4     bsplib.obj
 0002:000047d4       ??_C@_0BB@LDCFDKDP@LUMP_WORLDLIGHTS?$AA@ 100bc7d4     bsplib.obj
 0002:000047e8       ??_C@_0M@BPMHBODO@LUMP_MODELS?$AA@ 100bc7e8     bsplib.obj
 0002:000047f4       ??_C@_0P@GAMKMAKO@LUMP_SURFEDGES?$AA@ 100bc7f4     bsplib.obj
 0002:00004804       ??_C@_0L@KLJDECJB@LUMP_EDGES?$AA@ 100bc804     bsplib.obj
 0002:00004810       ??_C@_0N@GOAPMGFG@LUMP_FACEIDS?$AA@ 100bc810     bsplib.obj
 0002:00004820       ??_C@_0L@JGNBNLGM@LUMP_LEAFS?$AA@ 100bc820     bsplib.obj
 0002:0000482c       ??_C@_0P@FFNBCDDI@LUMP_OCCLUSION?$AA@ 100bc82c     bsplib.obj
 0002:0000483c       ??_C@_0O@ENKADPOO@LUMP_LIGHTING?$AA@ 100bc83c     bsplib.obj
 0002:0000484c       ??_C@_0L@GKIFCIBI@LUMP_FACES?$AA@ 100bc84c     bsplib.obj
 0002:00004858       ??_C@_0N@HABLHKMA@LUMP_TEXINFO?$AA@ 100bc858     bsplib.obj
 0002:00004868       ??_C@_0L@KEDBCMKN@LUMP_NODES?$AA@ 100bc868     bsplib.obj
 0002:00004874       ??_C@_0BA@JJJJNMIF@LUMP_VISIBILITY?$AA@ 100bc874     bsplib.obj
 0002:00004884       ??_C@_0O@PFMNCFLL@LUMP_VERTEXES?$AA@ 100bc884     bsplib.obj
 0002:00004894       ??_C@_0N@FBMJPELH@LUMP_TEXDATA?$AA@ 100bc894     bsplib.obj
 0002:000048a4       ??_C@_0M@IPGKKCGA@LUMP_PLANES?$AA@ 100bc8a4     bsplib.obj
 0002:000048b0       ??_C@_0O@FEFHONOO@LUMP_ENTITIES?$AA@ 100bc8b0     bsplib.obj
 0002:000048c0       ??_C@_0N@MKKKCKNB@FileHeader_t?$AA@ 100bc8c0     bsplib.obj
 0002:000048d0       ??_C@_0N@OAJJGDEO@MeshHeader_t?$AA@ 100bc8d0     bsplib.obj
 0002:000048e0       ??_C@_0BM@MCIAFPDJ@DetailPropLightstylesLump_t?$AA@ 100bc8e0     bsplib.obj
 0002:000048fc       ??_C@_0BH@MHMAAGLE@DetailSpriteDictLump_t?$AA@ 100bc8fc     bsplib.obj
 0002:00004914       ??_C@_0BD@PIOIBHCF@DetailObjectLump_t?$AA@ 100bc914     bsplib.obj
 0002:00004928       ??_C@_0BH@NLNJCPJB@DetailObjectDictLump_t?$AA@ 100bc928     bsplib.obj
 0002:00004940       ??_C@_0BF@EHIAMEIF@StaticPropLeafLump_t?$AA@ 100bc940     bsplib.obj
 0002:00004958       ??_C@_0BD@LEBBNIAA@StaticPropLumpV5_t?$AA@ 100bc958     bsplib.obj
 0002:0000496c       ??_C@_0BD@MKNLPGF@StaticPropLumpV4_t?$AA@ 100bc96c     bsplib.obj
 0002:00004980       ??_C@_0BB@KBIEIIMO@StaticPropLump_t?$AA@ 100bc980     bsplib.obj
 0002:00004994       ??_C@_0BF@PHBHNLJO@StaticPropDictLump_t?$AA@ 100bc994     bsplib.obj
 0002:000049ac       ??_C@_0M@OMEEDGMC@dgamelump_t?$AA@ 100bc9ac     bsplib.obj
 0002:000049b8       ??_C@_0BC@DOHNMHNB@dgamelumpheader_t?$AA@ 100bc9b8     bsplib.obj
 0002:000049cc       ??_C@_0P@GCGCOJHF@doverlayfade_t?$AA@ 100bc9cc     bsplib.obj
 0002:000049dc       ??_C@_0BA@LPAAAJLB@dwateroverlay_t?$AA@ 100bc9dc     bsplib.obj
 0002:000049ec       ??_C@_0L@NFDMIKGD@doverlay_t?$AA@ 100bc9ec     bsplib.obj
 0002:000049f8       ??_C@_0BB@PEILJHEN@dcubemapsample_t?$AA@ 100bc9f8     bsplib.obj
 0002:00004a0c       ??_C@_0BE@LJCKGEBK@doccluderpolydata_t?$AA@ 100bca0c     bsplib.obj
 0002:00004a20       ??_C@_0BA@DGINHBJN@doccluderdata_t?$AA@ 100bca20     bsplib.obj
 0002:00004a30       ??_C@_0BB@LPGCFBAA@dleafwaterdata_t?$AA@ 100bca30     bsplib.obj
 0002:00004a44       ??_C@_0O@KHFJINND@dworldlight_t?$AA@ 100bca44     bsplib.obj
 0002:00004a54       ??_C@_0O@FELKPDKA@dareaportal_t?$AA@ 100bca54     bsplib.obj
 0002:00004a64       ??_C@_07FLKMNIGI@darea_t?$AA@ 100bca64     bsplib.obj
 0002:00004a6c       ??_C@_0M@EEEPECPF@dphysdisp_t?$AA@ 100bca6c     bsplib.obj
 0002:00004a78       ??_C@_0N@JKAKAPKN@dphysmodel_t?$AA@ 100bca78     bsplib.obj
 0002:00004a88       ??_C@_08LBJNJKCK@dmodel_t?$AA@ 100bca88     bsplib.obj
 0002:00004a94       ??_C@_07IPMONJMK@dedge_t?$AA@ 100bca94     bsplib.obj
 0002:00004a9c       ??_C@_0N@DICEINDF@dbrushside_t?$AA@ 100bca9c     bsplib.obj
 0002:00004aac       ??_C@_08MGPMFBMD@dbrush_t?$AA@ 100bcaac     bsplib.obj
 0002:00004ab8       ??_C@_09BJPDADAO@dfaceid_t?$AA@ 100bcab8     bsplib.obj
 0002:00004ac4       ??_C@_07BLGLPECE@dface_t?$AA@ 100bcac4     bsplib.obj
 0002:00004acc       ??_C@_0M@IELDMBMH@dprimvert_t?$AA@ 100bcacc     bsplib.obj
 0002:00004ad8       ??_C@_0N@JCLKPMCB@dprimitive_t?$AA@ 100bcad8     bsplib.obj
 0002:00004ae8       ??_C@_0BG@DPNAMNGO@CFaceMacroTextureInfo?$AA@ 100bcae8     bsplib.obj
 0002:00004b00       ??_C@_08JOFBHKDH@CDispTri?$AA@ 100bcb00     bsplib.obj
 0002:00004b0c       ??_C@_09FEANDIFA@CDispVert?$AA@ 100bcb0c     bsplib.obj
 0002:00004b18       ??_C@_0BB@CINMEECK@CDispSubNeighbor?$AA@ 100bcb18     bsplib.obj
 0002:00004b2c       ??_C@_0BF@GAGKEJIM@CDispCornerNeighbors?$AA@ 100bcb2c     bsplib.obj
 0002:00004b44       ??_C@_0O@KJLBJMCP@CDispNeighbor?$AA@ 100bcb44     bsplib.obj
 0002:00004b54       ??_C@_0M@HCKLBNLM@ddispinfo_t?$AA@ 100bcb54     bsplib.obj
 0002:00004b60       ??_C@_0L@PNLMHHJK@dtexdata_t?$AA@ 100bcb60     bsplib.obj
 0002:00004b6c       ??_C@_09PPMCCLHO@texinfo_t?$AA@ 100bcb6c     bsplib.obj
 0002:00004b78       ??_C@_07KAKOAHCD@dnode_t?$AA@ 100bcb78     bsplib.obj
 0002:00004b80       ??_C@_09OHGFAMOH@dvertex_t?$AA@ 100bcb80     bsplib.obj
 0002:00004b8c       ??_C@_0BH@JAMCCGHN@dleafambientlighting_t?$AA@ 100bcb8c     bsplib.obj
 0002:00004ba4       ??_C@_0BE@ILNCIEDE@dleafambientindex_t?$AA@ 100bcba4     bsplib.obj
 0002:00004bb8       ??_C@_0BE@EMOGJPEN@CompressedLightCube?$AA@ 100bcbb8     bsplib.obj
 0002:00004bcc       ??_C@_07EMPPBFPC@dleaf_t?$AA@ 100bcbcc     bsplib.obj
 0002:00004bd4       ??_C@_0BC@EHFLNAFD@dleaf_version_0_t?$AA@ 100bcbd4     bsplib.obj
 0002:00004be8       ??_C@_08DNNOELGF@dplane_t?$AA@ 100bcbe8     bsplib.obj
 0002:00004bf4       ??_C@_0N@LGEPKNAO@dflagslump_t?$AA@ 100bcbf4     bsplib.obj
 0002:00004c04       ??_C@_06FDEEFMHN@lump_t?$AA@ 100bcc04     bsplib.obj
 0002:00004c0c       ??_C@_09LJDKPBKI@dheader_t?$AA@ 100bcc0c     bsplib.obj
 0002:00004c18       ??_C@_07NFANNNEC@UNKNOWN?$AA@ 100bcc18     bsplib.obj
 0002:00004c20       ??_C@_0CE@COMABEJA@warning?3?5Vis?5decompression?5overr@ 100bcc20     bsplib.obj
 0002:00004c44       ??_C@_0BI@BDJEEEMN@DecompressVis?3?50?5repeat?$AA@ 100bcc44     bsplib.obj
 0002:00004c5c       ??_C@_0CO@EDJFKPFP@ValidateLump?3?5old?5version?5for?5lu@ 100bcc5c     bsplib.obj
 0002:00004c8c       ??_C@_0CD@HCMHJLHJ@ValidateLump?3?5odd?5size?5for?5lump?5@ 100bcc8c     bsplib.obj
 0002:00004cb0       ??_C@_0BJ@EBHLPGFH@?$CFs?5is?5version?5?$CFi?0?5not?5?$CFi?$AA@ 100bccb0     bsplib.obj
 0002:00004ccc       ??_C@_0BG@HLMOFCME@?$CFs?5is?5not?5a?5IBSP?5file?$AA@ 100bcccc     bsplib.obj
 0002:00004ce4       ??_C@_0CM@NMKLEGFP@Error?5opening?5?$CFs?$CB?5?$CICheck?5for?5wri@ 100bcce4     bsplib.obj
 0002:00004d10       ??_C@_0BC@NGDGCNAP@SIZE?5OVERFLOW?$CB?$CB?$CB?6?$AA@ 100bcd10     bsplib.obj
 0002:00004d28       __real@4058f9999999999a    100bcd28     bsplib.obj
 0002:00004d30       ??_C@_0O@CDGPIHOI@SIZE?5DANGER?$CB?6?$AA@ 100bcd30     bsplib.obj
 0002:00004d40       __real@42be0000            100bcd40     bsplib.obj
 0002:00004d44       ??_C@_0M@JOCMPPEI@VERY?5FULL?$CB?6?$AA@ 100bcd44     bsplib.obj
 0002:00004d50       __real@42a00000            100bcd50     bsplib.obj
 0002:00004d54       ??_C@_0CG@GIAMFAD@?$CF?917?417s?5?$CF8i?1?$CF?98i?5?$CF8i?1?$CF?98i?5?$CI?$CF4?41@ 100bcd54     bsplib.obj
 0002:00004d7c       ??_C@_0CP@IAHEFLFI@?$CF?917?417s?5?5?5?5?5?$FLvariable?$FN?5?5?5?5?$CF8i?1?$CF@ 100bcd7c     bsplib.obj
 0002:00004dac       ??_C@_0BK@IGGDCDAB@ParseEpar?3?5token?5too?5long?$AA@ 100bcdac     bsplib.obj
 0002:00004dc8       ??_C@_01CELHOKLL@?$HN?$AA@ 100bcdc8     bsplib.obj
 0002:00004dcc       ??_C@_0CH@DFFBFKCE@ParseEntity?3?5EOF?5without?5closing@ 100bcdcc     bsplib.obj
 0002:00004df4       ??_C@_0CB@GIFGAPCN@num_entities?5?$DN?$DN?5MAX_MAP_ENTITIES@ 100bcdf4     bsplib.obj
 0002:00004e18       ??_C@_0BJ@FJKNDMCD@ParseEntity?3?5?$HL?5not?5found?$AA@ 100bce18     bsplib.obj
 0002:00004e34       ??_C@_01HCONENDN@?$HL?$AA@ 100bce34     bsplib.obj
 0002:00004e38       ??_C@_0M@HBEEPJK@?$CFlf?5?$CFlf?5?$CFlf?$AA@ 100bce38     bsplib.obj
 0002:00004e44       __real@bd000000            100bce44     bsplib.obj
 0002:00004e4c       ??_7CToolBSPTree@@6B@      100bce4c     bsplib.obj
 0002:00004e60       ??_C@_0DJ@IALAKHCH@Unknown?5Static?5Prop?5Lump?5version@ 100bce60     bsplib.obj
 0002:00004e9c       ??_C@_0CM@DGBFFHA@Unknown?5game?5lump?5?8?$CFs?8?5didn?8t?5ge@ 100bce9c     bsplib.obj
 0002:00004ec8       ??_C@_0CP@MLMNILJJ@?$CB?$CB?$CB?5WARNING?3?5Can?8t?5swap?5the?5phys@ 100bcec8     bsplib.obj
 0002:00004ef8       ??_C@_0N@FNMJMILG@vphysics?4dll?$AA@ 100bcef8     bsplib.obj
 0002:00004f08       ??_C@_0CF@KAOEHNKC@Writing?5unknown?5lump?5?$CD?$CFd?5?$CI?$CFd?5byt@ 100bcf08     bsplib.obj
 0002:00004f30       ??_C@_0IA@GAOHBJHI@Bad?5surface?5extents?5?9?5surface?5is@ 100bcf30     bsplib.obj
 0002:00004fb0       ??_C@_0CF@NFIIJEKN@Bad?5surface?5extents?5point?3?5?$CFf?5?$CFf@ 100bcfb0     bsplib.obj
 0002:00004fd8       ??_C@_0BK@FMCFBMBH@Total?5triangle?5count?3?5?$CFd?6?$AA@ 100bcfd8     bsplib.obj
 0002:00004ff4       ??_C@_0BD@KJOFLPKK@?6Level?5flags?5?$DN?5?$CFx?6?$AA@ 100bcff4     bsplib.obj
 0002:00005008       ??_C@_0BA@OKFOANKN@physics?5terrain?$AA@ 100bd008     bsplib.obj
 0002:00005018       ??_C@_07BECGJCFH@physics?$AA@ 100bd018     bsplib.obj
 0002:00005020       ??_C@_07HAGEJOAM@pakfile?$AA@ 100bd020     bsplib.obj
 0002:00005028       ??_C@_0N@GEIOMNMD@static?5props?$AA@ 100bd028     bsplib.obj
 0002:00005038       ??_C@_0BB@GCFBENPL@HDR?5dtl?5prp?5lght?$AA@ 100bd038     bsplib.obj
 0002:0000504c       ??_C@_0N@OKIEHKI@dtl?5prp?5lght?$AA@ 100bd04c     bsplib.obj
 0002:0000505c       ??_C@_0N@PNEBPMFL@detail?5props?$AA@ 100bd05c     bsplib.obj
 0002:0000506c       ??_C@_0BC@HDMIFODJ@occluder?5vert?5ind?$AA@ 100bd06c     bsplib.obj
 0002:00005080       ??_C@_0BC@NAFGJACF@occluder?5polygons?$AA@ 100bd080     bsplib.obj
 0002:00005094       ??_C@_09CDMHCIBJ@occluders?$AA@ 100bd094     bsplib.obj
 0002:000050a0       ??_C@_0BK@IJPLGGMB@HDR?5leaf?5ambient?5lighting?$AA@ 100bd0a0     bsplib.obj
 0002:000050bc       ??_C@_0BK@KDGPPABP@LDR?5leaf?5ambient?5lighting?$AA@ 100bd0bc     bsplib.obj
 0002:000050d8       ??_C@_0BC@NDPGEBNJ@HDR?5ambient?5table?$AA@ 100bd0d8     bsplib.obj
 0002:000050ec       ??_C@_0BC@NIFOJGNP@LDR?5ambient?5table?$AA@ 100bd0ec     bsplib.obj
 0002:00005100       ??_C@_07IJNKCNKH@entdata?$AA@ 100bd100     bsplib.obj
 0002:00005108       ??_C@_07KDEMBFFJ@visdata?$AA@ 100bd108     bsplib.obj
 0002:00005110       ??_C@_0O@HOKFDDPB@HDR?5lightdata?$AA@ 100bd110     bsplib.obj
 0002:00005120       ??_C@_0O@GHAJLMOK@LDR?5lightdata?$AA@ 100bd120     bsplib.obj
 0002:00005130       ??_C@_08OPBNIBHL@overlays?$AA@ 100bd130     bsplib.obj
 0002:0000513c       ??_C@_0P@OHGDELCP@cubemapsamples?$AA@ 100bd13c     bsplib.obj
 0002:0000514c       ??_C@_0N@FDGMEJJL@waterindices?$AA@ 100bd14c     bsplib.obj
 0002:0000515c       ??_C@_0L@CJICAPGG@waterverts?$AA@ 100bd15c     bsplib.obj
 0002:00005168       ??_C@_0M@JKGNKDNF@waterstrips?$AA@ 100bd168     bsplib.obj
 0002:00005174       ??_C@_0O@LIODANAI@leafwaterdata?$AA@ 100bd174     bsplib.obj
 0002:00005184       ??_C@_0BA@BFIGOCBO@HDR?5worldlights?$AA@ 100bd184     bsplib.obj
 0002:00005194       ??_C@_0BA@MBLHKOJJ@LDR?5worldlights?$AA@ 100bd194     bsplib.obj
 0002:000051a4       ??_C@_05JGEJPNHM@edges?$AA@ 100bd1a4     bsplib.obj
 0002:000051ac       ??_C@_09GFFIGDJK@surfedges?$AA@ 100bd1ac     bsplib.obj
 0002:000051b8       ??_C@_05EPHILNBP@areas?$AA@ 100bd1b8     bsplib.obj
 0002:000051c0       ??_C@_0M@CBJFCJLI@leafbrushes?$AA@ 100bd1c0     bsplib.obj
 0002:000051cc       ??_C@_09CMBPKHMP@leaffaces?$AA@ 100bd1cc     bsplib.obj
 0002:000051d8       ??_C@_06NGLEBKLK@leaves?$AA@ 100bd1d8     bsplib.obj
 0002:000051e0       ??_C@_09HKBLCDHF@origfaces?$AA@ 100bd1e0     bsplib.obj
 0002:000051ec       ??_C@_09OHGAGFHN@hdr?5faces?$AA@ 100bd1ec     bsplib.obj
 0002:000051f8       ??_C@_05FHFPJHPF@faces?$AA@ 100bd1f8     bsplib.obj
 0002:00005200       ??_C@_0P@BFHINAIM@disp_lmsamples?$AA@ 100bd200     bsplib.obj
 0002:00005210       ??_C@_09IJKGAMIE@disp_tris?$AA@ 100bd210     bsplib.obj
 0002:0000521c       ??_C@_0L@PDBBOHIC@disp_verts?$AA@ 100bd21c     bsplib.obj
 0002:00005228       ??_C@_09KKCDNLGN@dispinfos?$AA@ 100bd228     bsplib.obj
 0002:00005234       ??_C@_07EMAOIIJD@texdata?$AA@ 100bd234     bsplib.obj
 0002:0000523c       ??_C@_08KDBINAFC@texinfos?$AA@ 100bd23c     bsplib.obj
 0002:00005248       ??_C@_05JJOLJDEA@nodes?$AA@ 100bd248     bsplib.obj
 0002:00005250       ??_C@_08FMFHCCLE@vertexes?$AA@ 100bd250     bsplib.obj
 0002:0000525c       ??_C@_06MEGIMCLI@planes?$AA@ 100bd25c     bsplib.obj
 0002:00005264       ??_C@_0L@KJBAAPNN@brushsides?$AA@ 100bd264     bsplib.obj
 0002:00005270       ??_C@_07CCOFLMCN@brushes?$AA@ 100bd270     bsplib.obj
 0002:00005278       ??_C@_06FEMFHOOG@models?$AA@ 100bd278     bsplib.obj
 0002:00005280       ??_C@_0N@KMPENJN@?9?9?9?9?9?9?9?9?9?9?9?9?$AA@ 100bd280     bsplib.obj
 0002:00005290       ??_C@_0BA@PJCADNHP@?9?9?9?9?9?9?9?9?9?9?9?9?9?9?9?$AA@ 100bd290     bsplib.obj
 0002:000052a0       ??_C@_08GGNFKEJM@?9?9?9?9?9?9?9?9?$AA@ 100bd2a0     bsplib.obj
 0002:000052ac       ??_C@_0BG@JCNLNGNG@?$CF?917s?5?$CF16s?5?$CF16s?5?$CF9s?5?6?$AA@ 100bd2ac     bsplib.obj
 0002:000052c4       ??_C@_0N@LMANCJJM@Object?5names?$AA@ 100bd2c4     bsplib.obj
 0002:000052d4       ??_C@_0BA@PGGIKFJB@Objects?1Maxobjs?$AA@ 100bd2d4     bsplib.obj
 0002:000052e4       ??_C@_0BA@IJMFAECG@Memory?5?1?5Maxmem?$AA@ 100bd2e4     bsplib.obj
 0002:000052f4       ??_C@_08BLLBNFLJ@Fullness?$AA@ 100bd2f4     bsplib.obj
 0002:00005300       ??_C@_0CF@BMEFMFJB@Reading?5unknown?5lump?5?$CD?$CFd?5?$CI?$CFd?5byt@ 100bd300     bsplib.obj
 0002:00005328       ??_C@_0DJ@MFKFBFPP@Map?5has?5too?5many?5texinfos?5?$CIhas?5?$CF@ 100bd328     bsplib.obj
 0002:00005364       ??_C@_05IJGIMKK@ident?$AA@ 100bd364     bsplib.obj
 0002:0000536c       ??_C@_07CPCPJPKL@version?$AA@ 100bd36c     bsplib.obj
 0002:00005374       ??_C@_05JJJGJDHJ@lumps?$AA@ 100bd374     bsplib.obj
 0002:0000537c       ??_C@_0M@HBIBAMBI@mapRevision?$AA@ 100bd37c     bsplib.obj
 0002:00005388       ??_C@_07JHJOMNHC@fileofs?$AA@ 100bd388     bsplib.obj
 0002:00005390       ??_C@_07HIABLANJ@filelen?$AA@ 100bd390     bsplib.obj
 0002:00005398       ??_C@_06CKNLMMCG@fourCC?$AA@ 100bd398     bsplib.obj
 0002:000053a0       ??_C@_0N@EFAKEOG@m_LevelFlags?$AA@ 100bd3a0     bsplib.obj
 0002:000053b0       ??_C@_06IKLLLDHL@normal?$AA@ 100bd3b0     bsplib.obj
 0002:000053b8       ??_C@_04OKFALBN@dist?$AA@  100bd3b8     bsplib.obj
 0002:000053c0       ??_C@_04GPMDFGEJ@type?$AA@ 100bd3c0     bsplib.obj
 0002:000053c8       ??_C@_08ODCIAOPM@contents?$AA@ 100bd3c8     bsplib.obj
 0002:000053d4       ??_C@_07NKHKICEG@cluster?$AA@ 100bd3d4     bsplib.obj
 0002:000053dc       ??_C@_02HIEKPFIC@bf?$AA@   100bd3dc     bsplib.obj
 0002:000053e0       ??_C@_04FIAKMPII@mins?$AA@ 100bd3e0     bsplib.obj
 0002:000053e8       ??_C@_04IFBFDIKF@maxs?$AA@ 100bd3e8     bsplib.obj
 0002:000053f0       ??_C@_0O@JFONBDAD@firstleafface?$AA@ 100bd3f0     bsplib.obj
 0002:00005400       ??_C@_0N@BDFNHCAO@numleaffaces?$AA@ 100bd400     bsplib.obj
 0002:00005410       ??_C@_0P@OFLACFMD@firstleafbrush?$AA@ 100bd410     bsplib.obj
 0002:00005420       ??_C@_0P@FMNNGKO@numleafbrushes?$AA@ 100bd420     bsplib.obj
 0002:00005430       ??_C@_0BA@IKLKJAHM@leafWaterDataID?$AA@ 100bd430     bsplib.obj
 0002:00005440       ??_C@_0BC@OICOOBDE@m_AmbientLighting?$AA@ 100bd440     bsplib.obj
 0002:00005454       ??_C@_07LJHCELCO@m_Color?$AA@ 100bd454     bsplib.obj
 0002:0000545c       ??_C@_0BD@BFDCJBID@ambientSampleCount?$AA@ 100bd45c     bsplib.obj
 0002:00005470       ??_C@_0BD@HFMKPMGE@firstAmbientSample?$AA@ 100bd470     bsplib.obj
 0002:00005484       ??_C@_04OIHHNFHN@cube?$AA@ 100bd484     bsplib.obj
 0002:0000548c       ??_C@_01FJMABOPO@x?$AA@    100bd48c     bsplib.obj
 0002:00005490       ??_C@_01EANLCPLP@y?$AA@    100bd490     bsplib.obj
 0002:00005494       ??_C@_01GLPGHMHM@z?$AA@    100bd494     bsplib.obj
 0002:00005498       ??_C@_03PNAAIPML@pad?$AA@  100bd498     bsplib.obj
 0002:0000549c       ??_C@_05BBEJFBFA@point?$AA@ 100bd49c     bsplib.obj
 0002:000054a4       ??_C@_08HJGMHDFH@planenum?$AA@ 100bd4a4     bsplib.obj
 0002:000054b0       ??_C@_08GOINNFB@children?$AA@ 100bd4b0     bsplib.obj
 0002:000054bc       ??_C@_09FEPJDPNN@firstface?$AA@ 100bd4bc     bsplib.obj
 0002:000054c8       ??_C@_08JKOEMKBP@numfaces?$AA@ 100bd4c8     bsplib.obj
 0002:000054d4       ??_C@_04GOEDGNCF@area?$AA@ 100bd4d4     bsplib.obj
 0002:000054dc       ??_C@_0BP@NMBCBGBE@textureVecsTexelsPerWorldUnits?$AA@ 100bd4dc     bsplib.obj
 0002:000054fc       ??_C@_0CA@IPOFBMEA@lightmapVecsLuxelsPerWorldUnits?$AA@ 100bd4fc     bsplib.obj
 0002:0000551c       ??_C@_0N@LJNLFOD@reflectivity?$AA@ 100bd51c     bsplib.obj
 0002:0000552c       ??_C@_0BC@OEOFGALD@nameStringTableID?$AA@ 100bd52c     bsplib.obj
 0002:00005540       ??_C@_05IGKADHGO@width?$AA@ 100bd540     bsplib.obj
 0002:00005548       ??_C@_06LNLHEAAG@height?$AA@ 100bd548     bsplib.obj
 0002:00005550       ??_C@_0L@CHMFFBH@view_width?$AA@ 100bd550     bsplib.obj
 0002:0000555c       ??_C@_0M@JEOKFFPM@view_height?$AA@ 100bd55c     bsplib.obj
 0002:00005568       ??_C@_0O@FDHHLLPE@startPosition?$AA@ 100bd568     bsplib.obj
 0002:00005578       ??_C@_0BB@BEGJFCOK@m_iDispVertStart?$AA@ 100bd578     bsplib.obj
 0002:0000558c       ??_C@_0BA@EEICBDCB@m_iDispTriStart?$AA@ 100bd58c     bsplib.obj
 0002:0000559c       ??_C@_05PLIADJJL@power?$AA@ 100bd59c     bsplib.obj
 0002:000055a4       ??_C@_07GOCNGAOG@minTess?$AA@ 100bd5a4     bsplib.obj
 0002:000055ac       ??_C@_0P@JNKEKPLM@smoothingAngle?$AA@ 100bd5ac     bsplib.obj
 0002:000055bc       ??_C@_0L@CFKODFKO@m_iMapFace?$AA@ 100bd5bc     bsplib.obj
 0002:000055c8       ??_C@_0BG@DDOEIFEL@m_iLightmapAlphaStart?$AA@ 100bd5c8     bsplib.obj
 0002:000055e0       ??_C@_0BP@PAFNNLAB@m_iLightmapSamplePositionStart?$AA@ 100bd5e0     bsplib.obj
 0002:00005600       ??_C@_0BA@KPACCIDF@m_EdgeNeighbors?$AA@ 100bd600     bsplib.obj
 0002:00005610       ??_C@_0BC@NIPPIPEI@m_CornerNeighbors?$AA@ 100bd610     bsplib.obj
 0002:00005624       ??_C@_0P@LOALHPHF@m_AllowedVerts?$AA@ 100bd624     bsplib.obj
 0002:00005634       ??_C@_0P@MHNHNEHJ@m_SubNeighbors?$AA@ 100bd634     bsplib.obj
 0002:00005644       ??_C@_0M@PJNEJPND@m_Neighbors?$AA@ 100bd644     bsplib.obj
 0002:00005650       ??_C@_0N@NFFMJJFJ@m_nNeighbors?$AA@ 100bd650     bsplib.obj
 0002:00005660       ??_C@_0M@BHAIIGNN@m_iNeighbor?$AA@ 100bd660     bsplib.obj
 0002:0000566c       ??_C@_0BG@LCLHGLFD@m_NeighborOrientation?$AA@ 100bd66c     bsplib.obj
 0002:00005684       ??_C@_06NDMNEFDP@m_Span?$AA@ 100bd684     bsplib.obj
 0002:0000568c       ??_C@_0P@OADNGDCO@m_NeighborSpan?$AA@ 100bd68c     bsplib.obj
 0002:0000569c       ??_C@_09IDMJOBKC@m_vVector?$AA@ 100bd69c     bsplib.obj
 0002:000056a8       ??_C@_08FJDFPGMN@m_flDist?$AA@ 100bd6a8     bsplib.obj
 0002:000056b4       ??_C@_09GMODKCE@m_flAlpha?$AA@ 100bd6b4     bsplib.obj
 0002:000056c0       ??_C@_08KOPEMDCL@m_uiTags?$AA@ 100bd6c0     bsplib.obj
 0002:000056cc       ??_C@_0BF@IGHHBDIM@m_MacroTextureNameID?$AA@ 100bd6cc     bsplib.obj
 0002:000056e4       ??_C@_0L@PGKNLMCD@firstIndex?$AA@ 100bd6e4     bsplib.obj
 0002:000056f0       ??_C@_0L@PBJJKAHO@indexCount?$AA@ 100bd6f0     bsplib.obj
 0002:000056fc       ??_C@_09DEIHPKFL@firstVert?$AA@ 100bd6fc     bsplib.obj
 0002:00005708       ??_C@_09MANBFGEA@vertCount?$AA@ 100bd708     bsplib.obj
 0002:00005714       ??_C@_03PCBNCGFH@pos?$AA@  100bd714     bsplib.obj
 0002:00005718       ??_C@_04JGNFNGGK@side?$AA@ 100bd718     bsplib.obj
 0002:00005720       ??_C@_06POEBIPME@onNode?$AA@ 100bd720     bsplib.obj
 0002:00005728       ??_C@_09CDIOBNOD@firstedge?$AA@ 100bd728     bsplib.obj
 0002:00005734       ??_C@_08FLPCKAJG@numedges?$AA@ 100bd734     bsplib.obj
 0002:00005740       ??_C@_08OAJLBCOI@dispinfo?$AA@ 100bd740     bsplib.obj
 0002:0000574c       ??_C@_0BD@KHDHNEKP@surfaceFogVolumeID?$AA@ 100bd74c     bsplib.obj
 0002:00005760       ??_C@_06OAJMEMBL@styles?$AA@ 100bd760     bsplib.obj
 0002:00005768       ??_C@_08OBOMOBNA@lightofs?$AA@ 100bd768     bsplib.obj
 0002:00005774       ??_C@_0BO@KLAFEDGH@m_LightmapTextureMinsInLuxels?$AA@ 100bd774     bsplib.obj
 0002:00005794       ??_C@_0BO@NBHLKPOL@m_LightmapTextureSizeInLuxels?$AA@ 100bd794     bsplib.obj
 0002:000057b4       ??_C@_08HJLENCAJ@origFace?$AA@ 100bd7b4     bsplib.obj
 0002:000057c0       ??_C@_0L@NCAJFDDK@m_NumPrims?$AA@ 100bd7c0     bsplib.obj
 0002:000057cc       ??_C@_0M@KIFLCOML@firstPrimID?$AA@ 100bd7cc     bsplib.obj
 0002:000057d8       ??_C@_0BA@NGBALEKI@smoothingGroups?$AA@ 100bd7d8     bsplib.obj
 0002:000057e8       ??_C@_0N@OPGHGHFA@hammerfaceid?$AA@ 100bd7e8     bsplib.obj
 0002:000057f8       ??_C@_09DMACBJEF@firstside?$AA@ 100bd7f8     bsplib.obj
 0002:00005804       ??_C@_08GEFICKEP@numsides?$AA@ 100bd804     bsplib.obj
 0002:00005810       ??_C@_05JDNDNKBA@bevel?$AA@ 100bd810     bsplib.obj
 0002:00005818       ??_C@_01MHEDDDHA@v?$AA@    100bd818     bsplib.obj
 0002:0000581c       ??_C@_08MKPBLOEI@headnode?$AA@ 100bd81c     bsplib.obj
 0002:00005828       ??_C@_0L@OJKNJKNO@modelIndex?$AA@ 100bd828     bsplib.obj
 0002:00005834       ??_C@_08KHMGMMON@dataSize?$AA@ 100bd834     bsplib.obj
 0002:00005840       ??_C@_0M@EIAFECAC@keydataSize?$AA@ 100bd840     bsplib.obj
 0002:0000584c       ??_C@_0L@BOALBGOC@solidCount?$AA@ 100bd84c     bsplib.obj
 0002:00005858       ??_C@_0BB@NNJGKKC@numDisplacements?$AA@ 100bd858     bsplib.obj
 0002:0000586c       ??_C@_0P@JEEOJIEO@numareaportals?$AA@ 100bd86c     bsplib.obj
 0002:0000587c       ??_C@_0BA@PNCAMLID@firstareaportal?$AA@ 100bd87c     bsplib.obj
 0002:0000588c       ??_C@_0M@HGJDIFIH@m_PortalKey?$AA@ 100bd88c     bsplib.obj
 0002:00005898       ??_C@_09FKCCELOM@otherarea?$AA@ 100bd898     bsplib.obj
 0002:000058a4       ??_C@_0BG@GLOJEMCM@m_FirstClipPortalVert?$AA@ 100bd8a4     bsplib.obj
 0002:000058bc       ??_C@_0BD@FMOIFBLK@m_nClipPortalVerts?$AA@ 100bd8bc     bsplib.obj
 0002:000058d0       ??_C@_09DDBFFAKC@intensity?$AA@ 100bd8d0     bsplib.obj
 0002:000058dc       ??_C@_07BMMJEPCG@stopdot?$AA@ 100bd8dc     bsplib.obj
 0002:000058e4       ??_C@_08DPGBBIMD@stopdot2?$AA@ 100bd8e4     bsplib.obj
 0002:000058f0       ??_C@_08EGJNFMPO@exponent?$AA@ 100bd8f0     bsplib.obj
 0002:000058fc       ??_C@_06KGHINEPG@radius?$AA@ 100bd8fc     bsplib.obj
 0002:00005904       ??_C@_0O@CNHFALEA@constant_attn?$AA@ 100bd904     bsplib.obj
 0002:00005914       ??_C@_0M@CJNGHEBK@linear_attn?$AA@ 100bd914     bsplib.obj
 0002:00005920       ??_C@_0P@FEPJNKCE@quadratic_attn?$AA@ 100bd920     bsplib.obj
 0002:00005930       ??_C@_05HEIBENID@owner?$AA@ 100bd930     bsplib.obj
 0002:00005938       ??_C@_08BCLLBMPF@surfaceZ?$AA@ 100bd938     bsplib.obj
 0002:00005944       ??_C@_04BMEMFAGD@minZ?$AA@ 100bd944     bsplib.obj
 0002:0000594c       ??_C@_0BB@HHFELCML@surfaceTexInfoID?$AA@ 100bd94c     bsplib.obj
 0002:00005960       ??_C@_09LGKNDAKM@firstpoly?$AA@ 100bd960     bsplib.obj
 0002:0000596c       ??_C@_09FHKLOLHG@polycount?$AA@ 100bd96c     bsplib.obj
 0002:00005978       ??_C@_0BB@KCKOGCPC@firstvertexindex?$AA@ 100bd978     bsplib.obj
 0002:0000598c       ??_C@_0M@LGFIEHAP@vertexcount?$AA@ 100bd98c     bsplib.obj
 0002:00005998       ??_C@_04IAGNFIBA@size?$AA@ 100bd998     bsplib.obj
 0002:000059a0       ??_C@_03HLJILIDP@nId?$AA@  100bd9a0     bsplib.obj
 0002:000059a4       ??_C@_08ECOBNKEH@nTexInfo?$AA@ 100bd9a4     bsplib.obj
 0002:000059b0       ??_C@_0BL@BMLGJAII@m_nFaceCountAndRenderOrder?$AA@ 100bd9b0     bsplib.obj
 0002:000059cc       ??_C@_06FBJMKLEP@aFaces?$AA@ 100bd9cc     bsplib.obj
 0002:000059d4       ??_C@_03EGPHBDGJ@flU?$AA@  100bd9d4     bsplib.obj
 0002:000059d8       ??_C@_03GNNKEAKK@flV?$AA@  100bd9d8     bsplib.obj
 0002:000059dc       ??_C@_0M@DNMEENHI@vecUVPoints?$AA@ 100bd9dc     bsplib.obj
 0002:000059e8       ??_C@_09NFLAMELP@vecOrigin?$AA@ 100bd9e8     bsplib.obj
 0002:000059f4       ??_C@_0P@BCDLPAHE@vecBasisNormal?$AA@ 100bd9f4     bsplib.obj
 0002:00005a04       ??_C@_0BA@OHDMMINB@flFadeDistMinSq?$AA@ 100bda04     bsplib.obj
 0002:00005a14       ??_C@_0BA@KCDOILFD@flFadeDistMaxSq?$AA@ 100bda14     bsplib.obj
 0002:00005a24       ??_C@_09NEJACIE@lumpCount?$AA@ 100bda24     bsplib.obj
 0002:00005a30       ??_C@_02EGCJHIOB@id?$AA@   100bda30     bsplib.obj
 0002:00005a34       ??_C@_06EJPGAGFJ@m_Name?$AA@ 100bda34     bsplib.obj
 0002:00005a3c       ??_C@_08ECNOKJJC@m_Origin?$AA@ 100bda3c     bsplib.obj
 0002:00005a48       ??_C@_08PILCLMDH@m_Angles?$AA@ 100bda48     bsplib.obj
 0002:00005a54       ??_C@_0L@DKADNPBA@m_PropType?$AA@ 100bda54     bsplib.obj
 0002:00005a60       ??_C@_0M@PCPKPBEP@m_FirstLeaf?$AA@ 100bda60     bsplib.obj
 0002:00005a6c       ??_C@_0M@HIJBBFID@m_LeafCount?$AA@ 100bda6c     bsplib.obj
 0002:00005a78       ??_C@_07KCLBIANA@m_Solid?$AA@ 100bda78     bsplib.obj
 0002:00005a80       ??_C@_07ELHNBIGJ@m_Flags?$AA@ 100bda80     bsplib.obj
 0002:00005a88       ??_C@_06FKMGMEBJ@m_Skin?$AA@ 100bda88     bsplib.obj
 0002:00005a90       ??_C@_0O@NDJEDMNM@m_FadeMinDist?$AA@ 100bda90     bsplib.obj
 0002:00005aa0       ??_C@_0O@DFPEJDDN@m_FadeMaxDist?$AA@ 100bdaa0     bsplib.obj
 0002:00005ab0       ??_C@_0BB@LGCHAJAF@m_LightingOrigin?$AA@ 100bdab0     bsplib.obj
 0002:00005ac4       ??_C@_0BE@CDLLNLBJ@m_flForcedFadeScale?$AA@ 100bdac4     bsplib.obj
 0002:00005ad8       ??_C@_0O@DNAIOLB@m_nMinDXLevel?$AA@ 100bdad8     bsplib.obj
 0002:00005ae8       ??_C@_0O@MPNNPFLO@m_nMaxDXLevel?$AA@ 100bdae8     bsplib.obj
 0002:00005af8       ??_C@_06JOGDGIMJ@m_Leaf?$AA@ 100bdaf8     bsplib.obj
 0002:00005b00       ??_C@_0O@IFMDLEOF@m_DetailModel?$AA@ 100bdb00     bsplib.obj
 0002:00005b10       ??_C@_0L@DIBKBJPK@m_Lighting?$AA@ 100bdb10     bsplib.obj
 0002:00005b1c       ??_C@_0O@JEEBDPBL@m_LightStyles?$AA@ 100bdb1c     bsplib.obj
 0002:00005b2c       ??_C@_0BC@PMMMLGGN@m_LightStyleCount?$AA@ 100bdb2c     bsplib.obj
 0002:00005b40       ??_C@_0N@OCPKHEBL@m_SwayAmount?$AA@ 100bdb40     bsplib.obj
 0002:00005b50       ??_C@_0N@PHKBCMEN@m_ShapeAngle?$AA@ 100bdb50     bsplib.obj
 0002:00005b60       ??_C@_0M@LMGIPCHC@m_ShapeSize?$AA@ 100bdb60     bsplib.obj
 0002:00005b6c       ??_C@_0O@IEBBNBA@m_Orientation?$AA@ 100bdb6c     bsplib.obj
 0002:00005b7c       ??_C@_0L@CKJLJANI@m_Padding2?$AA@ 100bdb7c     bsplib.obj
 0002:00005b88       ??_C@_06OCPFMGCJ@m_Type?$AA@ 100bdb88     bsplib.obj
 0002:00005b90       ??_C@_0L@DDIAKBJJ@m_Padding3?$AA@ 100bdb90     bsplib.obj
 0002:00005b9c       ??_C@_09EBEAFDEH@m_flScale?$AA@ 100bdb9c     bsplib.obj
 0002:00005ba8       ??_C@_04PNKKEILI@m_UL?$AA@ 100bdba8     bsplib.obj
 0002:00005bb0       ??_C@_04DKBMOPJI@m_LR?$AA@ 100bdbb0     bsplib.obj
 0002:00005bb8       ??_C@_07FKFDNKFP@m_TexUL?$AA@ 100bdbb8     bsplib.obj
 0002:00005bc0       ??_C@_07JNOFHNHP@m_TexLR?$AA@ 100bdbc0     bsplib.obj
 0002:00005bc8       ??_C@_07MNJGHCEE@m_Style?$AA@ 100bdbc8     bsplib.obj
 0002:00005bd0       ??_C@_06MAPALLJB@m_nLod?$AA@ 100bdbd0     bsplib.obj
 0002:00005bd8       ??_C@_0M@NBOPACBB@m_nVertexes?$AA@ 100bdbd8     bsplib.obj
 0002:00005be4       ??_C@_09FGLPPFBG@m_nOffset?$AA@ 100bdbe4     bsplib.obj
 0002:00005bf0       ??_C@_09BEMAELPI@m_nUnused?$AA@ 100bdbf0     bsplib.obj
 0002:00005bfc       ??_C@_0L@JPACMPLE@m_nVersion?$AA@ 100bdbfc     bsplib.obj
 0002:00005c08       ??_C@_0M@LAEBCFFC@m_nChecksum?$AA@ 100bdc08     bsplib.obj
 0002:00005c14       ??_C@_0P@LGPPEEMA@m_nVertexFlags?$AA@ 100bdc14     bsplib.obj
 0002:00005c24       ??_C@_0O@ONPOBLGK@m_nVertexSize?$AA@ 100bdc24     bsplib.obj
 0002:00005c34       ??_C@_09CHONMIDK@m_nMeshes?$AA@ 100bdc34     bsplib.obj
 0002:00005c40       ??_C@_0CB@HNEIEEGN@Unknown?5occlusion?5lump?5version?$CB?6@ 100bdc40     bsplib.obj
 0002:00005c64       ??_C@_0L@JODPFALJ@vphysicsID?$AA@ 100bdc64     bsplib.obj
 0002:00005c70       ??_C@_09NOHACFLB@modelType?$AA@ 100bdc70     bsplib.obj
 0002:00005c7c       ??_C@_0M@DBJCOOM@surfaceSize?$AA@ 100bdc7c     bsplib.obj
 0002:00005c88       ??_C@_0O@IFELHGBJ@dragAxisAreas?$AA@ 100bdc88     bsplib.obj
 0002:00005c98       ??_C@_0M@HLOKJILB@axisMapSize?$AA@ 100bdc98     bsplib.obj
 0002:00005ca4       ??_C@_08CCCKJNKJ@moppSize?$AA@ 100bdca4     bsplib.obj
 0002:00005cb0       ??_C@_0BJ@JDOEEAFA@odd?5size?5for?5LUMP_LEAFS?6?$AA@ 100bdcb0     bsplib.obj
 0002:00005ccc       ??_C@_0BM@KBEAGEDM@Unknown?5LUMP_LEAFS?5version?6?$AA@ 100bdccc     bsplib.obj
 0002:00005ce8       __real@4e6e6b28            100bdce8     builddisp.obj
 0002:00005cec       __real@47c34f80            100bdcec     builddisp.obj
 0002:00005cf0       __real@42fa0000            100bdcf0     builddisp.obj
 0002:00005cf8       ??_7CDispUtilsHelper@@6B@  100bdcf8     builddisp.obj
 0002:00005d0c       ??_7CCoreDispInfo@@6B@     100bdd0c     builddisp.obj
 0002:00005d20       ??_7bad_alloc@std@@6B@     100bdd20     chunkfile.obj
 0002:00005d2c       ??_7ios_base@std@@6B@      100bdd2c     chunkfile.obj
 0002:00005d30       ??_C@_08HPBFPDOD@error?5?$CFd?$AA@ 100bdd30     chunkfile.obj
 0002:00005d3c       ??_C@_0CH@BEKFMMLP@unterminated?5string?5or?5string?5to@ 100bdd3c     chunkfile.obj
 0002:00005d64       ??_C@_0BH@IIAFKHHE@unexpected?5symbol?5?8?$CFs?8?$AA@ 100bdd64     chunkfile.obj
 0002:00005d7c       ??_C@_0BH@CFIIDOJD@unexpected?5end?5of?5file?$AA@ 100bdd7c     chunkfile.obj
 0002:00005d98       ??_7?$basic_istream@DU?$char_traits@D@std@@@std@@6B@ 100bdd98     chunkfile.obj
 0002:00005d9c       ??_C@_0BA@JFNIOLAK@string?5too?5long?$AA@ 100bdd9c     chunkfile.obj
 0002:00005db4       ??_7?$basic_streambuf@DU?$char_traits@D@std@@@std@@6B@ 100bddb4     chunkfile.obj
 0002:00005df4       ??_7?$basic_filebuf@DU?$char_traits@D@std@@@std@@6B@ 100bddf4     chunkfile.obj
 0002:00005e34       ??_7runtime_error@std@@6B@ 100bde34     chunkfile.obj
 0002:00005e40       ??_7facet@locale@std@@6B@  100bde40     chunkfile.obj
 0002:00005e44       ??_C@_0BI@CFPLBAOH@invalid?5string?5position?$AA@ 100bde44     chunkfile.obj
 0002:00005e60       ??_7?$codecvt@DDH@std@@6B@ 100bde60     chunkfile.obj
 0002:00005e80       ??_C@_0BA@ELKIONDK@bad?5locale?5name?$AA@ 100bde80     chunkfile.obj
 0002:00005e90       ??_C@_08EPJLHIJG@bad?5cast?$AA@ 100bde90     chunkfile.obj
 0002:00005ea0       ??_7?$basic_ifstream@DU?$char_traits@D@std@@@std@@6B@ 100bdea0     chunkfile.obj
 0002:00005ea4       ??_C@_0BJ@HHDOALOL@?6Press?5any?5key?5to?5quit?4?6?$AA@ 100bdea4     cmdlib.obj
 0002:00005ec0       ??_C@_0CE@CLJFPNFI@Error?5trying?5to?5allocate?5?$CFd?5byte@ 100bdec0     cmdlib.obj
 0002:00005ee4       ??_C@_01KICIPPFI@?2?$AA@   100bdee4     cmdlib.obj
 0002:00005ee8       ??_C@_04HDOCAJNK@?$CFs?$CFs?$AA@ 100bdee8     cmdlib.obj
 0002:00005ef0       ??_C@_0M@BBODMOGM@?$CFd?5second?$CFs?$AA@ 100bdef0     cmdlib.obj
 0002:00005efc       ??_C@_0BJ@KMIJFNCM@?$CFd?5minute?$CFs?0?5?$CFd?5second?$CFs?$AA@ 100bdefc     cmdlib.obj
 0002:00005f18       ??_C@_0CE@PALCMKJH@?$CFd?5hour?$CFs?0?5?$CFd?5minute?$CFs?0?5?$CFd?5secon@ 100bdf18     cmdlib.obj
 0002:00005f3c       ??_C@_01LKDEMHDF@s?$AA@    100bdf3c     cmdlib.obj
 0002:00005f40       ??_C@_0BO@EENJAGHE@CmdLib_InitFileSystem?5failed?4?$AA@ 100bdf40     cmdlib.obj
 0002:00005f60       ??_C@_0BB@KKAAPNA@Error?5opening?5?$CFs?$AA@ 100bdf60     cmdlib.obj
 0002:00005f74       ??_C@_0BC@HMDGJKFB@Error?5opening?5?$CFs?6?$AA@ 100bdf74     cmdlib.obj
 0002:00005f88       ??_C@_0BC@OGGEBGDM@File?5read?5failure?$AA@ 100bdf88     cmdlib.obj
 0002:00005f9c       ??_C@_0BD@IHJMODLC@File?5write?5failure?$AA@ 100bdf9c     cmdlib.obj
 0002:00005fb0       ??_C@_01OGPIMHDM@?$DP?$AA@ 100bdfb0     cmdlib.obj
 0002:00005fb4       ??_C@_01NBENCBCI@?$CK?$AA@ 100bdfb4     cmdlib.obj
 0002:00005fb8       ??_C@_0CP@DAHDEIHG@CmdLib_FPrintf?3?5can?8t?5allocate?5s@ 100bdfb8     cmdlib.obj
 0002:00005fe8       ??_C@_03EGHOKNNL@?6?6?6?$AA@ 100bdfe8     cmdlib.obj
 0002:00005fec       ??_C@_0BL@BBEKHHIC@Can?8t?5create?5LogFile?3?$CC?$CFs?$CC?6?$AA@ 100bdfec     cmdlib.obj
 0002:0000600c       ??_7CDispCollTree@@6B@     100be00c     dispcoll_common.obj
 0002:00006010       __real@43bf4000            100be010     dispcoll_common.obj
 0002:00006014       ??_C@_0CC@NMNJEPNA@Brush?5?$CFi?3?5?$CFs?6Side?5?$CFi?6Texture?3?5?$CFs@ 100be014     map_shared.obj
 0002:00006038       ??_C@_0L@HEEMIGIK@mapversion?$AA@ 100be038     map_shared.obj
 0002:00006044       ??_C@_08GKHEJHEP@hammerid?$AA@ 100be044     map_shared.obj
 0002:00006050       ??_C@_0L@CGBMHOHE@func_water?$AA@ 100be050     map_shared.obj
 0002:0000605c       ??_C@_0M@OOKLDPAJ@func_ladder?$AA@ 100be05c     map_shared.obj
 0002:00006068       ??_C@_0M@MMLAJCHD@func_detail?$AA@ 100be068     map_shared.obj
 0002:00006074       ??_C@_0DE@OJGHMBLP@Error?5in?5LoadEntsFromMapFile?5?$CIin@ 100be074     map_shared.obj
 0002:000060a8       ??_C@_06GOJKNBFM@entity?$AA@ 100be0a8     map_shared.obj
 0002:000060b0       ??_C@_0CD@BOFJFDD@FreeWinding?3?5freed?5a?5freed?5windi@ 100be0b0     polylib.obj
 0002:000060d4       __real@c7c34f80            100be0d4     polylib.obj
 0002:000060d8       __real@47800000            100be0d8     polylib.obj
 0002:000060dc       ??_C@_0CD@BHBKGNIF@BaseWindingForPlane?3?5no?5axis?5fou@ 100be0dc     polylib.obj
 0002:00006100       ??_C@_0CD@PEDPMDOJ@ClipWinding?3?5MAX_POINTS_ON_WINDI@ 100be100     polylib.obj
 0002:00006124       ??_C@_0CG@OLJCNKCC@ClipWinding?3?5points?5exceeded?5est@ 100be124     polylib.obj
 0002:0000614c       ??_C@_0CC@KGOJGFKG@script?5file?5exceeded?5MAX_INCLUDE@ 100be14c     scriplib.obj
 0002:00006170       ??_C@_0BH@GPEKOEFF@Macro?5buffer?5overflow?6?$AA@ 100be170     scriplib.obj
 0002:00006188       ??_C@_0BM@NCGMJOHK@Token?5too?5large?5on?5line?5?$CFi?6?$AA@ 100be188     scriplib.obj
 0002:000061a4       ??_C@_0BH@EBCLMMIF@Macro?5expand?5overflow?6?$AA@ 100be1a4     scriplib.obj
 0002:000061bc       ??_C@_0CA@JGLJFGLA@unknown?5macro?5token?5?$CC?$CFs?$CC?5in?5?$CFs?6?$AA@ 100be1bc     scriplib.obj
 0002:000061dc       ??_C@_0O@DIEIKEFB@memory?5buffer?$AA@ 100be1dc     scriplib.obj
 0002:000061ec       ??_C@_0BH@IMFFIBJN@Line?5?$CFi?5is?5incomplete?6?$AA@ 100be1ec     scriplib.obj
 0002:00006204       ??_C@_0CK@NIJIDEPG@ReadFileToBuffer?$CI?$CJ?3?5Error?5openin@ 100be204     scriplib.obj
 0002:00006230       ??_C@_06IHDMMOPO@?$CFs?4tmp?$AA@ 100be230     scriplib.obj
 0002:00006238       ??_C@_04IMHDFGMD@mgd_?$AA@ 100be238     scriplib.obj
 0002:00006244       ??_7CScriptLib@@6B@        100be244     scriplib.obj
 0002:00006260       ??_C@_0CD@EHIHBPDL@unknown?5variable?5token?5?$CC?$CFs?$CC?5in?5?$CF@ 100be260     scriplib.obj
 0002:00006284       ??_C@_0BA@JJDJCKLN@$definevariable?$AA@ 100be284     scriplib.obj
 0002:00006294       ??_C@_0N@DFPGLGNC@$definemacro?$AA@ 100be294     scriplib.obj
 0002:000062a4       ??_C@_08LNBPPNO@$include?$AA@ 100be2a4     scriplib.obj
 0002:000062b0       ??_C@_02DJGKEECL@?4?4?$AA@ 100be2b0     scriplib.obj
 0002:000062b4       ??_C@_02CEGDFPFP@?4?2?$AA@ 100be2b4     scriplib.obj
 0002:000062b8       ??_C@_03FFNGDGKN@tmp?$AA@  100be2b8     scriplib.obj
 0002:000062bc       ??_C@_04FGEHGIFJ@temp?$AA@ 100be2bc     scriplib.obj
 0002:000062c4       ??_C@_0M@FBLNEIAD@?$CFi?5threads?6?$AA@ 100be2c4     threads.obj
 0002:000062d0       ??_C@_0BG@BEEOCMHK@Recursive?5ThreadLock?6?$AA@ 100be2d0     threads.obj
 0002:000062e8       ??_C@_0BL@HADBLPO@ThreadUnlock?5without?5lock?6?$AA@ 100be2e8     threads.obj
 0002:00006304       ??_C@_06MEKNBDFO@?5?$CI?$CFi?$CJ?6?$AA@ 100be304     threads.obj
 0002:00006310       __real@c0f869f000000000    100be310     collisionutils.obj
 0002:00006318       __real@4010000000000000    100be318     collisionutils.obj
 0002:00006320       ??_C@_0P@PAEMGLHD@VFileSystem017?$AA@ 100be320     scratchpad3d.obj
 0002:00006330       ??_C@_0BB@DHLFOMEN@filesystem_stdio?$AA@ 100be330     scratchpad3d.obj
 0002:00006348       __real@c77fe000            100be348     bitmap:colorconversion.obj
 0002:0000634c       __real@38800000            100be34c     bitmap:colorconversion.obj
 0002:00006350       __real@3a800000            100be350     bitmap:colorconversion.obj
 0002:00006354       __real@3da7ef9e            100be354     bitmap:colorconversion.obj
 0002:00006358       __real@3f1c01a3            100be358     bitmap:colorconversion.obj
 0002:0000635c       __real@3e9e00d2            100be35c     bitmap:colorconversion.obj
 0002:00006360       __real@39800000            100be360     bitmap:colorconversion.obj
 0002:00006364       __real@477fff00            100be364     bitmap:colorconversion.obj
 0002:00006368       __real@45800000            100be368     bitmap:colorconversion.obj
 0002:0000636c       __real@42fe0000            100be36c     bitmap:colorconversion.obj
 0002:00006370       __real@3c010204            100be370     bitmap:colorconversion.obj
 0002:00006374       __real@3e991687            100be374     bitmap:colorconversion.obj
 0002:00006378       __real@3f1645a2            100be378     bitmap:colorconversion.obj
 0002:0000637c       __real@3de978d5            100be37c     bitmap:colorconversion.obj
 0002:00006380       __real@37800000            100be380     bitmap:colorconversion.obj
 0002:00006384       ??_C@_05OIKDKKFM@ATI2N?$AA@ 100be384     bitmap:imageformat.obj
 0002:0000638c       ??_C@_05OKOFBEAF@ATI1N?$AA@ 100be38c     bitmap:imageformat.obj
 0002:00006394       ??_C@_07CFELPLPD@NV_NULL?$AA@ 100be394     bitmap:imageformat.obj
 0002:0000639c       ??_C@_09JCCMAMGI@ATI_DST24?$AA@ 100be39c     bitmap:imageformat.obj
 0002:000063a8       ??_C@_09KCFMNALD@ATI_DST16?$AA@ 100be3a8     bitmap:imageformat.obj
 0002:000063b4       ??_C@_07FDMLLIPO@NV_RAWZ?$AA@ 100be3b4     bitmap:imageformat.obj
 0002:000063bc       ??_C@_07BONOLAGC@NV_INTZ?$AA@ 100be3bc     bitmap:imageformat.obj
 0002:000063c4       ??_C@_08HKKCPHEG@NV_DST24?$AA@ 100be3c4     bitmap:imageformat.obj
 0002:000063d0       ??_C@_08EKNCCLJN@NV_DST16?$AA@ 100be3d0     bitmap:imageformat.obj
 0002:000063dc       ??_C@_0BL@OLOJPJLN@IMAGE_FORMAT_RGBA32323232F?$AA@ 100be3dc     bitmap:imageformat.obj
 0002:000063f8       ??_C@_0BI@FLDBGJMJ@IMAGE_FORMAT_RGB323232F?$AA@ 100be3f8     bitmap:imageformat.obj
 0002:00006410       ??_C@_0BC@EJLIBMHN@IMAGE_FORMAT_R32F?$AA@ 100be410     bitmap:imageformat.obj
 0002:00006424       ??_C@_0BG@EPLNNPIA@IMAGE_FORMAT_UVLX8888?$AA@ 100be424     bitmap:imageformat.obj
 0002:0000643c       ??_C@_0N@GBJBEFCM@RGBA16161616?$AA@ 100be43c     bitmap:imageformat.obj
 0002:0000644c       ??_C@_0O@JEJKBFCF@RGBA16161616F?$AA@ 100be44c     bitmap:imageformat.obj
 0002:0000645c       ??_C@_08KPDDCJI@UVWQ8888?$AA@ 100be45c     bitmap:imageformat.obj
 0002:00006468       ??_C@_04BKKPBAPE@UV88?$AA@ 100be468     bitmap:imageformat.obj
 0002:00006470       ??_C@_08PAENDFNP@BGRA5551?$AA@ 100be470     bitmap:imageformat.obj
 0002:0000647c       ??_C@_0BB@BFEFPFPF@DXT1_ONEBITALPHA?$AA@ 100be47c     bitmap:imageformat.obj
 0002:00006490       ??_C@_08JCEOFHI@BGRA4444?$AA@ 100be490     bitmap:imageformat.obj
 0002:0000649c       ??_C@_08NEJEGGIM@BGRX5551?$AA@ 100be49c     bitmap:imageformat.obj
 0002:000064a8       ??_C@_06KEKLLBKJ@BGR565?$AA@ 100be4a8     bitmap:imageformat.obj
 0002:000064b0       ??_C@_08HHEFCPK@BGRX8888?$AA@ 100be4b0     bitmap:imageformat.obj
 0002:000064bc       ??_C@_04FDJDJFPM@DXT5?$AA@ 100be4bc     bitmap:imageformat.obj
 0002:000064c4       ??_C@_04FMJDCHK@DXT3?$AA@  100be4c4     bitmap:imageformat.obj
 0002:000064cc       ??_C@_04DHPPFAPI@DXT1?$AA@ 100be4cc     bitmap:imageformat.obj
 0002:000064d4       ??_C@_08CDKNABKJ@BGRA8888?$AA@ 100be4d4     bitmap:imageformat.obj
 0002:000064e0       ??_C@_08JNAJMDOE@ARGB8888?$AA@ 100be4e0     bitmap:imageformat.obj
 0002:000064ec       ??_C@_0BC@KDPNAOFO@BGR888_BLUESCREEN?$AA@ 100be4ec     bitmap:imageformat.obj
 0002:00006500       ??_C@_0BC@GLHJGMNI@RGB888_BLUESCREEN?$AA@ 100be500     bitmap:imageformat.obj
 0002:00006514       ??_C@_02GGHJHNOB@A8?$AA@   100be514     bitmap:imageformat.obj
 0002:00006518       ??_C@_02HLJNLEKG@P8?$AA@   100be518     bitmap:imageformat.obj
 0002:0000651c       ??_C@_04HCHBAFFB@IA88?$AA@ 100be51c     bitmap:imageformat.obj
 0002:00006524       ??_C@_02GIGKCMFJ@I8?$AA@   100be524     bitmap:imageformat.obj
 0002:00006528       ??_C@_06KDJFLKOF@RGB565?$AA@ 100be528     bitmap:imageformat.obj
 0002:00006530       ??_C@_06OJPBDKDD@BGR888?$AA@ 100be530     bitmap:imageformat.obj
 0002:00006538       ??_C@_06OOMPDBHP@RGB888?$AA@ 100be538     bitmap:imageformat.obj
 0002:00006540       ??_C@_08OCGEPAFE@ABGR8888?$AA@ 100be540     bitmap:imageformat.obj
 0002:0000654c       ??_C@_08OILDNPBG@RGBA8888?$AA@ 100be54c     bitmap:imageformat.obj
 0002:0000655c       ??_C@_0P@JPKGKFHD@AlphaThreshold?$AA@ 100be55c     bitmap:ATI_Compress.obj
 0002:0000656c       ??_C@_0N@PCNBPLHN@DXT1UseAlpha?$AA@ 100be56c     bitmap:ATI_Compress.obj
 0002:0000657c       ??_C@_0BF@OHABJJJO@UseAdaptiveWeighting?$AA@ 100be57c     bitmap:ATI_Compress.obj
 0002:00006594       ??_C@_07HHHMHOCD@WeightB?$AA@ 100be594     bitmap:ATI_Compress.obj
 0002:0000659c       ??_C@_07KALIKGG@WeightG?$AA@ 100be59c     bitmap:ATI_Compress.obj
 0002:000065a4       ??_C@_07DNLOGMHC@WeightR?$AA@ 100be5a4     bitmap:ATI_Compress.obj
 0002:000065b0       __real@3f847ae140000000    100be5b0     bitmap:ATI_Compress.obj
 0002:000065b8       ??_C@_0BE@DKLHGILP@UseChannelWeighting?$AA@ 100be5b8     bitmap:ATI_Compress.obj
 0002:000065cc       ??_7CCodec@ATI_Compress@@6B@ 100be5cc     bitmap:Codec.obj
 0002:000065f8       __real@4060000000000000    100be5f8     bitmap:Codec.obj
 0002:00006600       __real@405fc00000000000    100be600     bitmap:Codec.obj
 0002:00006608       ??_7CCodecBuffer@@6B@      100be608     bitmap:CodecBuffer.obj
 0002:000066e8       __real@40efffe000000000    100be6e8     bitmap:CodecBuffer.obj
 0002:00006700       __real@3f40000000000000    100be700     bitmap:S3_quant.obj
 0002:00006708       __real@400c000000000000    100be708     bitmap:S3_quant.obj
 0002:00006710       __real@4008000000000000    100be710     bitmap:S3_quant.obj
 0002:00006718       __real@4014000000000000    100be718     bitmap:S3_quant.obj
 0002:00006720       __real@4058000000000000    100be720     bitmap:S3_quant.obj
 0002:00006728       ??_7CCodec_ATI2N_DXT5@@6B@ 100be728     bitmap:Codec_ATI2N_DXT5.obj
 0002:000067a8       __real@4f800000            100be7a8     bitmap:Codec_ATI2N_DXT5.obj
 0002:000067b0       ??_7CCodec_ATI2N@@6B@      100be7b0     bitmap:Codec_ATI2N.obj
 0002:00006830       ??_7CCodec_ATI1N@@6B@      100be830     bitmap:Codec_ATI1N.obj
 0002:000068a8       ??_7CCodec_DXT5_xGxR@@6B@  100be8a8     bitmap:Codec_DXT5_xGxR.obj
 0002:00006930       ??_7CCodec_DXT5_RGxB@@6B@  100be930     bitmap:Codec_DXT5_RGxB.obj
 0002:000069b8       ??_7CCodec_DXT5_xRBG@@6B@  100be9b8     bitmap:Codec_DXT5_xRBG.obj
 0002:00006a40       ??_7CCodec_DXT5_RBxG@@6B@  100bea40     bitmap:Codec_DXT5_RBxG.obj
 0002:00006ac8       ??_7CCodec_DXT5_RxBG@@6B@  100beac8     bitmap:Codec_DXT5_RxBG.obj
 0002:00006b50       ??_7CCodec_DXT5_xGBR@@6B@  100beb50     bitmap:Codec_DXT5_xGBR.obj
 0002:00006bd8       ??_7CCodec_DXT5@@6B@       100bebd8     bitmap:Codec_DXT5.obj
 0002:00006c50       ??_7CCodec_DXT3@@6B@       100bec50     bitmap:Codec_DXT3.obj
 0002:00006cc8       ??_7CCodec_DXT1@@6B@       100becc8     bitmap:Codec_DXT1.obj
 0002:00006d40       ?_toFloat@half@@0QBTuif@1@B 100bed40     bitmap:half.obj
 0002:00046d40       ?_eLut@half@@0QBGB         100fed40     bitmap:half.obj
 0002:00047140       __real@501502f9            100ff140     bitmap:half.obj
 0002:00047148       ??_7CCodecBuffer_Block@@6B@ 100ff148     bitmap:CodecBuffer_Block.obj
 0002:00047228       ??_7CCodecBuffer_RGBA32F@@6B@ 100ff228     bitmap:CodecBuffer_RGBA32F.obj
 0002:00047310       ??_7CCodecBuffer_RGBA16F@@6B@ 100ff310     bitmap:CodecBuffer_RGBA16F.obj
 0002:000473f8       ??_7CCodecBuffer_RGBA16@@6B@ 100ff3f8     bitmap:CodecBuffer_RGBA16.obj
 0002:000474e0       ??_7CCodecBuffer_RGBA2101010@@6B@ 100ff4e0     bitmap:CodecBuffer_RGBA2101010.obj
 0002:000475c8       ??_7CCodecBuffer_RGBA8888@@6B@ 100ff5c8     bitmap:CodecBuffer_RGBA8888.obj
 0002:000476b0       __real@3ecccccd            100ff6b0     bitmap:resample.obj
 0002:000476b4       __real@42cc0000            100ff6b4     bitmap:resample.obj
 0002:000476b8       ??_7CCodec_DXTC@@6B@       100ff6b8     bitmap:Codec_DXTC.obj
 0002:00047730       ??_C@_0P@GGJMOEEN@ForceFloatPath?$AA@ 100ff730     bitmap:Codec_DXTC.obj
 0002:00047740       ??_C@_0BA@FGFEHBI@RefinementSteps?$AA@ 100ff740     bitmap:Codec_DXTC.obj
 0002:00047750       ??_C@_0N@GJGMBLDI@3DRefinement?$AA@ 100ff750     bitmap:Codec_DXTC.obj
 0002:00047760       ??_C@_07DPIIIHGG@UseSSE2?$AA@ 100ff760     bitmap:Codec_DXTC.obj
 0002:00047768       ??_7CCodec_Block_4x4@@6B@  100ff768     bitmap:Codec_Block_4x4.obj
 0002:00047790       __real@401c000000000000    100ff790     bitmap:Codec_DXTC_Alpha.obj
 0002:00047798       __real@4018000000000000    100ff798     bitmap:Codec_DXTC_Alpha.obj
 0002:000477a0       __real@3fd0000000000000    100ff7a0     bitmap:Codec_DXTC_RGBA.obj
 0002:000477a8       ??_7CCodec_DXT5_Swizzled@@6B@ 100ff7a8     bitmap:Codec_DXT5_Swizzled.obj
 0002:00047830       ??_7CCodec_Block@@6B@      100ff830     bitmap:Codec_Block.obj
 0002:0004789c       __real@51ba43b7            100ff89c     bitmap:ATiXCodec.obj
 0002:000478a0       __real@4b189680            100ff8a0     bitmap:ATiXCodec.obj
 0002:000478a8       __real@3fe3333340000000    100ff8a8     bitmap:ATiXCodec.obj
 0002:000478b0       __real@3f926e9780000000    100ff8b0     bitmap:ATiXCodec.obj
 0002:000478b8       __real@3fb99999a0000000    100ff8b8     bitmap:ATiXCodec.obj
 0002:000478c0       __real@4048000000000000    100ff8c0     bitmap:ATiXCodec.obj
 0002:000478c8       __real@47fa0000            100ff8c8     bitmap:ATiXCodec.obj
 0002:000478cc       __real@43010000            100ff8cc     bitmap:ATiXCodec.obj
 0002:000478d0       __real@c000000000000000    100ff8d0     bitmap:ATiXCodec.obj
 0002:000478d8       __real@3fefcfcfcfcfcfd0    100ff8d8     bitmap:ATiXCodec.obj
 0002:000478e0       __real@3f78181818181818    100ff8e0     bitmap:ATiXCodec.obj
 0002:000478e8       __real@49742400            100ff8e8     bitmap:ATiXCodec.obj
 0002:000478ec       __real@47c35000            100ff8ec     bitmap:ATiXCodec.obj
 0002:000478f0       __real@3f80101020000000    100ff8f0     bitmap:ATiXCodec.obj
 0002:000478f8       __real@3f999999a0000000    100ff8f8     bitmap:ATiXCodec.obj
 0002:00047900       __real@3fa99999a0000000    100ff900     bitmap:ATiXCodec.obj
 0002:00047908       __real@3fc0000000000000    100ff908     bitmap:ATiXCodec.obj
 0002:00047910       __real@c47a0000            100ff910     bitmap:ATiXCodec.obj
 0002:00047914       __real@447a0000            100ff914     bitmap:ATiXCodec.obj
 0002:00047918       ?nanmask@@3HB              100ff918     mathlib:mathlib_base.obj
 0002:0004791c       __real@34000000            100ff91c     mathlib:mathlib_base.obj
 0002:00047920       __real@3f70000000000000    100ff920     mathlib:mathlib_base.obj
 0002:00047928       __real@3c8efa35            100ff928     mathlib:mathlib_base.obj
 0002:0004792c       __real@3e000000            100ff92c     mathlib:mathlib_base.obj
 0002:00047930       __real@3fa999999999999a    100ff930     mathlib:mathlib_base.obj
 0002:00047938       __real@40019999a0000000    100ff938     mathlib:color_conversion.obj
 0002:00047940       __real@3fdd1745c0000000    100ff940     mathlib:color_conversion.obj
 0002:00047948       __real@447fc000            100ff948     mathlib:color_conversion.obj
 0002:00047950       __real@3f50000000000000    100ff950     mathlib:color_conversion.obj
 0002:00047958       __real@3fec000000000000    100ff958     mathlib:color_conversion.obj
 0002:00047960       __real@3f50040100401004    100ff960     mathlib:color_conversion.obj
 0002:00047968       __real@3fb3333333333333    100ff968     mathlib:color_conversion.obj
 0002:00047970       ?Four_PointFives@@3T__m128@@B 100ff970     mathlib:sseconst.obj
 0002:00047980       ?Four_Zeros@@3T__m128@@B   100ff980     mathlib:sseconst.obj
 0002:00047990       ?Four_Ones@@3T__m128@@B    100ff990     mathlib:sseconst.obj
 0002:000479a0       ?Four_Twos@@3T__m128@@B    100ff9a0     mathlib:sseconst.obj
 0002:000479b0       ?Four_Threes@@3T__m128@@B  100ff9b0     mathlib:sseconst.obj
 0002:000479c0       ?Four_Fours@@3T__m128@@B   100ff9c0     mathlib:sseconst.obj
 0002:000479d0       ?Four_Origin@@3T__m128@@B  100ff9d0     mathlib:sseconst.obj
 0002:000479e0       ?Four_NegativeOnes@@3T__m128@@B 100ff9e0     mathlib:sseconst.obj
 0002:000479f0       ?Four_2ToThe21s@@3T__m128@@B 100ff9f0     mathlib:sseconst.obj
 0002:00047a00       ?Four_2ToThe22s@@3T__m128@@B 100ffa00     mathlib:sseconst.obj
 0002:00047a10       ?Four_2ToThe23s@@3T__m128@@B 100ffa10     mathlib:sseconst.obj
 0002:00047a20       ?Four_2ToThe24s@@3T__m128@@B 100ffa20     mathlib:sseconst.obj
 0002:00047a30       ?Four_Point225s@@3T__m128@@B 100ffa30     mathlib:sseconst.obj
 0002:00047a40       ?Four_Epsilons@@3T__m128@@B 100ffa40     mathlib:sseconst.obj
 0002:00047a50       ?Four_FLT_MAX@@3T__m128@@B 100ffa50     mathlib:sseconst.obj
 0002:00047a60       ?Four_Negative_FLT_MAX@@3T__m128@@B 100ffa60     mathlib:sseconst.obj
 0002:00047a70       ?g_SIMD_0123@@3T__m128@@B  100ffa70     mathlib:sseconst.obj
 0002:00047a80       ?g_SIMD_clear_signmask@@3QBHB 100ffa80     mathlib:sseconst.obj
 0002:00047a90       ?g_SIMD_signmask@@3QBHB    100ffa90     mathlib:sseconst.obj
 0002:00047aa0       ?g_SIMD_lsbmask@@3QBHB     100ffaa0     mathlib:sseconst.obj
 0002:00047ab0       ?g_SIMD_clear_wmask@@3QBHB 100ffab0     mathlib:sseconst.obj
 0002:00047ac0       ?g_SIMD_AllOnesMask@@3QBHB 100ffac0     mathlib:sseconst.obj
 0002:00047ad0       ?g_SIMD_Low16BitsMask@@3QBHB 100ffad0     mathlib:sseconst.obj
 0002:00047ae0       ?g_SIMD_ComponentMask@@3QAY03$$CBHA 100ffae0     mathlib:sseconst.obj
 0002:00047b20       ?g_SIMD_SkipTailMask@@3QAY03$$CBHA 100ffb20     mathlib:sseconst.obj
 0002:00047c50       __real@65a96816            100ffc50     raytrace:raytrace.obj
 0002:00047c54       __real@e5a96816            100ffc54     raytrace:raytrace.obj
 0002:00047c58       __real@42960000            100ffc58     raytrace:raytrace.obj
 0002:00047c5c       __real@43270000            100ffc5c     raytrace:raytrace.obj
 0002:00047c60       ??_C@_01BJJEKLCA@?$CC?$AA@ 100ffc60     tier1:utlbuffer.obj
 0002:00047c64       ??_C@_01GEODFPGF@?8?$AA@   100ffc64     tier1:utlbuffer.obj
 0002:00047c68       ??_C@_01INIBCBCB@f?$AA@    100ffc68     tier1:utlbuffer.obj
 0002:00047c6c       ??_C@_01OJONOECF@b?$AA@    100ffc6c     tier1:utlbuffer.obj
 0002:00047c70       ??_C@_01PFHFFBPC@t?$AA@    100ffc70     tier1:utlbuffer.obj
 0002:00047c74       ??_C@_01EFFIKLCJ@n?$AA@    100ffc74     tier1:utlbuffer.obj
 0002:00047c7c       ??_7CUtlCharConversion@@6B@ 100ffc7c     tier1:utlbuffer.obj
 0002:00047c84       ??_7CUtlNoEscConversion@@6B@ 100ffc84     tier1:utlbuffer.obj
 0002:00047c8c       ??_7CUtlCStringConversion@@6B@ 100ffc8c     tier1:utlbuffer.obj
 0002:00047c90       ??_C@_07CIFAGBMG@unknown?$AA@ 100ffc90     tier1:KeyValues.obj
 0002:00047c98       ??_C@_04HIBGFPH@NULL?$AA@  100ffc98     tier1:KeyValues.obj
 0002:00047ca0       ??_C@_08KKMCJABH@?$CI?$CK?$CFs?$CK?$CJ?0?5?$AA@ 100ffca0     tier1:KeyValues.obj
 0002:00047cac       ??_C@_04ONKFDMMC@?$CFs?0?5?$AA@ 100ffcac     tier1:KeyValues.obj
 0002:00047cb4       ??_C@_0CA@NDDGCEEP@KeyValues?5Error?3?5?$CFs?5in?5file?5?$CFs?6?$AA@ 100ffcb4     tier1:KeyValues.obj
 0002:00047cd4       ??_C@_0BE@CCEENLEF@?5ReadToken?5overflow?$AA@ 100ffcd4     tier1:KeyValues.obj
 0002:00047ce8       ??_C@_08HHEPHHEL@?$FL$WIN32?$FN?$AA@ 100ffce8     tier1:KeyValues.obj
 0002:00047cf4       ??_C@_02NJPGOMH@?$CFf?$AA@ 100ffcf4     tier1:KeyValues.obj
 0002:00047cf8       ??_C@_05OKCMKDO@?$CFI64i?$AA@ 100ffcf8     tier1:KeyValues.obj
 0002:00047d00       ??_C@_0EA@NBPAKPMP@RecursiveLoadFromBuffer?3?5?5got?5co@ 100ffd00     tier1:KeyValues.obj
 0002:00047d40       ??_C@_0CH@FAEPDIPE@RecursiveLoadFromBuffer?3?5?5got?5?$HN?5@ 100ffd40     tier1:KeyValues.obj
 0002:00047d68       ??_C@_0CH@HEKCOJBB@RecursiveLoadFromBuffer?3?5?5got?5NU@ 100ffd68     tier1:KeyValues.obj
 0002:00047d90       ??_C@_0CM@EGPGDPNF@RecursiveLoadFromBuffer?3?5?5got?5em@ 100ffd90     tier1:KeyValues.obj
 0002:00047dbc       ??_C@_0DF@BNKODCEE@RecursiveLoadFromBuffer?3?5?5got?5EO@ 100ffdbc     tier1:KeyValues.obj
 0002:00047df8       ??_C@_0EH@OAIGODPC@KeyValues?3?3ParseIncludedKeys?3?5Co@ 100ffdf8     tier1:KeyValues.obj
 0002:00047e40       ??_C@_0BK@NIPBBFNB@LoadFromBuffer?3?5missing?5?$HL?$AA@ 100ffe40     tier1:KeyValues.obj
 0002:00047e5c       ??_C@_0P@NHINIODK@?$CDbase?5is?5NULL?5?$AA@ 100ffe5c     tier1:KeyValues.obj
 0002:00047e6c       ??_C@_05OBFANEGE@?$CDbase?$AA@ 100ffe6c     tier1:KeyValues.obj
 0002:00047e74       ??_C@_0BC@NGELGJPP@?$CDinclude?5is?5NULL?5?$AA@ 100ffe74     tier1:KeyValues.obj
 0002:00047e88       ??_C@_08GPLAJCBH@?$CDinclude?$AA@ 100ffe88     tier1:KeyValues.obj
 0002:00047e94       ??_C@_0CH@DNILKGJA@V_AppendSlash?3?5ran?5out?5of?5space?5@ 100ffe94     tier1:strtools.obj
 0002:00047ebc       ??_C@_01JOAMLHOP@?9?$AA@   100ffebc     tier1:strtools.obj
 0002:00047ec0       ??_C@_03OOAAEEIB@?4?$CFc?$AA@ 100ffec0     tier1:strtools.obj
 0002:00047ec4       ??_C@_02CAHBHFGK@?4?1?$AA@ 100ffec4     tier1:strtools.obj
 0002:00047ec8       ??_C@_0DB@FOILCOJM@V_MakeAbsolutePath?3?5tried?5to?5?$CC?4?4@ 100ffec8     tier1:strtools.obj
 0002:00047efc       ??_C@_0CE@INIPJBEP@V_MakeAbsolutePath?3?5_getcwd?5fail@ 100ffefc     tier1:strtools.obj
 0002:00047f20       ??_C@_04HLONOPDM@?4dll?$AA@ 100fff20     tier1:interface.obj
 0002:00047f28       ??_C@_0BM@OIEJAJOK@Module?5?$CFs?5is?5a?5debug?5build?6?$AA@ 100fff28     tier1:interface.obj
 0002:00047f44       ??_C@_0L@EJCNAOMG@BuiltDebug?$AA@ 100fff44     tier1:interface.obj
 0002:00047f50       ??_C@_09ILGMALND@?$CFs?1bin?1?$CFs?$AA@ 100fff50     tier1:interface.obj
 0002:00047f5c       ??_C@_05GFOLEBJA@?$CFs?1?$CFs?$AA@ 100fff5c     tier1:interface.obj
 0002:00047f64       ??_C@_04MMFEEKAB@bin?1?$AA@ 100fff64     tier1:interface.obj
 0002:00047f6c       ??_C@_0BA@OBHPCBFP@CreateInterface?$AA@ 100fff6c     tier1:interface.obj
 0002:00048380       ??_C@_0BD@DDNAMMCP@File?5?$CFs?0?5line?5?$CFd?3?5?$AA@ 10100380     tier1:tokenreader.obj
 0002:00048398       ??_7?$basic_ios@DU?$char_traits@D@std@@@std@@6B@ 10100398     tier1:tokenreader.obj
 0002:000483a0       ??_7?$ctype@D@std@@6B@     101003a0     tier1:tokenreader.obj
 0002:000483c8       ??_7system_error@std@@6B@  101003c8     tier1:tokenreader.obj
 0002:000483d4       ??_7failure@ios_base@std@@6B@ 101003d4     tier1:tokenreader.obj
 0002:000483dc       ??_C@_0BF@OOHOMBOF@ios_base?3?3eofbit?5set?$AA@ 101003dc     tier1:tokenreader.obj
 0002:000483f4       ??_C@_0BG@FMKFHCIL@ios_base?3?3failbit?5set?$AA@ 101003f4     tier1:tokenreader.obj
 0002:0004840c       ??_C@_0BF@PHHKMMFD@ios_base?3?3badbit?5set?$AA@ 1010040c     tier1:tokenreader.obj
 0002:00048424       ??_8?$basic_ifstream@DU?$char_traits@D@std@@@std@@7B@ 10100424     tier1:tokenreader.obj
 0002:00048430       ??_7TokenReader@@6B@       10100430     tier1:tokenreader.obj
 0002:00048434       ??_8TokenReader@@7B@       10100434     tier1:tokenreader.obj
 0002:0004843c       ??_C@_04FOKBGDA@GAME?$AA@  1010043c     vmpi:filesystem_tools.obj
 0002:00048444       ??_C@_0M@CHBCHPDB@?4?4?1platform?$AA@ 10100444     vmpi:filesystem_tools.obj
 0002:00048450       ??_C@_08FONOGHLN@PLATFORM?$AA@ 10100450     vmpi:filesystem_tools.obj
 0002:00048460       ??_C@_0GC@OMFCLCAL@Similar?5to?5?9mpi_AutoLocalWorker?0@ 10100460     vmpi:vmpi.obj
 0002:000484c4       ??_C@_0L@NNMFBFMC@?9mpi_Local?$AA@ 101004c4     vmpi:vmpi.obj
 0002:000484d0       ??_C@_0DG@POMBKGPE@Automatically?5launches?5vmpi_job_@ 101004d0     vmpi:vmpi.obj
 0002:00048508       ??_C@_0P@HIKJGOCM@?9mpi_Job_Watch?$AA@ 10100508     vmpi:vmpi.obj
 0002:00048518       ??_C@_0FA@JEMHPCNE@Calculate?5a?5CRC?5for?5shuffled?5wor@ 10100518     vmpi:vmpi.obj
 0002:00048568       ??_C@_0BE@OIOKPNBL@?9mpi_CalcShuffleCRC?$AA@ 10100568     vmpi:vmpi.obj
 0002:00048580       ??_C@_0KJ@PEDLFADL@Non?9SDK?5only?4?5Sets?5a?5password?5on@ 10100580     vmpi:vmpi.obj
 0002:0004862c       ??_C@_07CKCOPKFM@?9mpi_pw?$AA@ 1010062c     vmpi:vmpi.obj
 0002:00048638       ??_C@_0EO@GIFEDMLB@Enables?5the?5workers?5storing?5all?5@ 10100638     vmpi:vmpi.obj
 0002:00048688       ??_C@_0BG@KGEKOGFD@?9mpi_Stats_TextOutput?$AA@ 10100688     vmpi:vmpi.obj
 0002:000486a0       ??_C@_0DL@FMBDABOD@Enables?5the?5use?5of?5a?5database?5to@ 101006a0     vmpi:vmpi.obj
 0002:000486dc       ??_C@_0L@EFMLKEJB@?9mpi_Stats?$AA@ 101006dc     vmpi:vmpi.obj
 0002:000486e8       ??_C@_0EL@MKKGJEBJ@Delay?5and?5group?5some?5of?5the?5work@ 101006e8     vmpi:vmpi.obj
 0002:00048734       ??_C@_0BC@KFPACIFD@?9mpi_GroupPackets?$AA@ 10100734     vmpi:vmpi.obj
 0002:00048748       ??_C@_0CM@HKPOENDC@Don?8t?5set?5worker?5thread?5prioriti@ 10100748     vmpi:vmpi.obj
 0002:00048774       ??_C@_0BN@DLMLNHKE@?9mpi_DontSetThreadPriorities?$AA@ 10100774     vmpi:vmpi.obj
 0002:00048794       ??_C@_0CO@LAOIKCIP@Don?8t?5timeout?5VMPI?5sockets?4?5Used@ 10100794     vmpi:vmpi.obj
 0002:000487c4       ??_C@_0P@NAPGNEMO@?9mpi_NoTimeout?$AA@ 101007c4     vmpi:vmpi.obj
 0002:000487d8       ??_C@_0MD@KNLHCKGO@Use?5the?5default?5work?5unit?5distri@ 101007d8     vmpi:vmpi.obj
 0002:0004889c       ??_C@_0BL@JDPJEDP@?9mpi_UseDefaultDistributor?$AA@ 1010089c     vmpi:vmpi.obj
 0002:000488b8       ??_C@_0JM@LIOLKBJK@Use?5the?5SDK?5work?5unit?5distributo@ 101008b8     vmpi:vmpi.obj
 0002:00048954       ??_C@_0BH@EJIHLPPB@?9mpi_UseSDKDistributor?$AA@ 10100954     vmpi:vmpi.obj
 0002:0004896c       ??_C@_0BP@PGFCDAAP@Force?5VMPI?5to?5run?5in?5SDK?5mode?4?$AA@ 1010096c     vmpi:vmpi.obj
 0002:0004898c       ??_C@_0N@FGBPNEKN@?9mpi_SDKMode?$AA@ 1010098c     vmpi:vmpi.obj
 0002:000489a0       ??_C@_0FO@KPMBAGGB@Don?8t?5process?5work?5units?5locally@ 101009a0     vmpi:vmpi.obj
 0002:00048a00       ??_C@_0BL@KKJENFOD@?9mpi_NoMasterWorkerThreads?$AA@ 10100a00     vmpi:vmpi.obj
 0002:00048a1c       ??_C@_0DI@ODNFCKDI@Set?5to?50?0?51?0?5or?52?5to?5control?5ver@ 10100a1c     vmpi:vmpi.obj
 0002:00048a54       ??_C@_0N@OLILDKE@?9mpi_Verbose?$AA@ 10100a54     vmpi:vmpi.obj
 0002:00048a64       ??_C@_0CH@LFMBNKJ@VMPI?5file?5transmission?5rate?5in?5k@ 10100a64     vmpi:vmpi.obj
 0002:00048a8c       ??_C@_0BG@DGIKADMG@?9mpi_FileTransmitRate?$AA@ 10100a8c     vmpi:vmpi.obj
 0002:00048aa8       ??_C@_0GD@DACCGFJF@Used?5on?5the?5master?8s?5machine?4?5Au@ 10100aa8     vmpi:vmpi.obj
 0002:00048b0c       ??_C@_0BF@LPJAFFKK@?9mpi_AutoLocalWorker?$AA@ 10100b0c     vmpi:vmpi.obj
 0002:00048b24       ??_C@_0DG@GOBINBAO@Set?5the?5maximum?5number?5of?5worker@ 10100b24     vmpi:vmpi.obj
 0002:00048b5c       ??_C@_0BB@LDMHHOKB@?9mpi_WorkerCount?$AA@ 10100b5c     vmpi:vmpi.obj
 0002:00048b70       ??_C@_0HO@EOFLOANE@Causes?5the?5master?5to?5wait?5for?5a?5@ 10100b70     vmpi:vmpi.obj
 0002:00048bf0       ??_C@_0BA@NCHOIHCK@?9mpi_TimingWait?$AA@ 10100bf0     vmpi:vmpi.obj
 0002:00048c00       ??_C@_0EH@GFFAKCGA@After?5finishing?5a?5stage?5in?5the?5w@ 10100c00     vmpi:vmpi.obj
 0002:00048c48       ??_C@_0BN@DPICJMJL@?9mpi_ShowDistributeWorkStats?$AA@ 10100c48     vmpi:vmpi.obj
 0002:00048c68       ??_C@_0HC@JCLOJEML@Enables?5a?5debug?5menu?5during?5jobs@ 10100c68     vmpi:vmpi.obj
 0002:00048cdc       ??_C@_0BB@GJNLNKMA@?9mpi_TrackEvents?$AA@ 10100cdc     vmpi:vmpi.obj
 0002:00048cf0       ??_C@_0LM@FNEKKKON@Use?5this?5on?5the?5worker?5to?5have?5i@ 10100cf0     vmpi:vmpi.obj
 0002:00048dac       ??_C@_0BB@LIDFEIHP@?9mpi_AutoRestart?$AA@ 10100dac     vmpi:vmpi.obj
 0002:00048dc0       ??_C@_0JA@OFJMLKLM@Use?5this?5on?5the?5worker?5to?5have?5i@ 10100dc0     vmpi:vmpi.obj
 0002:00048e50       ??_C@_0L@EKLCPKJD@?9mpi_Retry?$AA@ 10100e50     vmpi:vmpi.obj
 0002:00048e60       ??_C@_0HI@JJHPJIDC@Show?5a?5graphical?5representation?5@ 10100e60     vmpi:vmpi.obj
 0002:00048ed8       ??_C@_0O@IJEDKJON@?9mpi_Graphics?$AA@ 10100ed8     vmpi:vmpi.obj
 0002:00048ee8       ??_C@_0JA@OPFADIBK@Use?5this?5on?5the?5master?5to?5force?5@ 10100ee8     vmpi:vmpi.obj
 0002:00048f78       ??_C@_09DCMHDMM@?9mpi_Port?$AA@ 10100f78     vmpi:vmpi.obj
 0002:00048f88       ??_C@_0IL@OPOIOBPG@Workers?5use?5this?5to?5connect?5to?5a@ 10100f88     vmpi:vmpi.obj
 0002:00049014       ??_C@_0M@DAILNABA@?9mpi_Worker?$AA@ 10101014     vmpi:vmpi.obj
 0002:00049020       ??_C@_0N@PNBGJLEG@Enable?5VMPI?4?$AA@ 10101020     vmpi:vmpi.obj
 0002:00049030       ??_C@_03PHDJLHID@mpi?$AA@  10101030     vmpi:vmpi.obj
 0002:00049034       ??_C@_06OJAIHGIC@unused?$AA@ 10101034     vmpi:vmpi.obj
 0002:0004903c       ??_C@_0BP@LNPAKMIE@k_eVMPICmdLineParam_FirstParam?$AA@ 1010103c     vmpi:vmpi.obj
 0002:0004905c       ??_C@_0BO@FDPJCHDE@CTSListBase?3?5Misaligned?5list?6?$AA@ 1010105c     vmpi:vmpi.obj
 0002:0004907c       ??_C@_0BO@EBFLNFPO@CTSListBase?3?5Misaligned?5node?6?$AA@ 1010107c     vmpi:vmpi.obj
 0002:0004909c       ??_C@_0BB@EMIOGOGL@GetConsoleWindow?$AA@ 1010109c     vmpi:vmpi.obj
 0002:000490b0       ??_C@_0N@MDJJJHMB@kernel32?4dll?$AA@ 101010b0     vmpi:vmpi.obj
 0002:000490c0       ??_C@_0BC@BEDBBFM@mysql_wrapper?4dll?$AA@ 101010c0     vmpi:vmpi.obj
 0002:000490d4       ??_C@_0CP@DODIKJFP@VMPI_CheckSDKMode?5?9?$DO?5GetModuleFi@ 101010d4     vmpi:vmpi.obj
 0002:00049104       ??_C@_0BL@BEHDHCGA@?$CIerror?5in?5GetComputerName?$CJ?$AA@ 10101104     vmpi:vmpi.obj
 0002:00049120       ??_C@_0CJ@PJDADHIA@Invalid?5call?3?5VMPI_GetParamStrin@ 10101120     vmpi:vmpi.obj
 0002:0004914c       ??_C@_01HIHLOKLC@1?$AA@    1010114c     vmpi:vmpi.obj
 0002:00049150       ??_C@_0L@JGNDPCOE@?$CFs?5found?4?6?$AA@ 10101150     vmpi:vmpi.obj
 0002:0004915c       ??_C@_0CE@JKEKJLML@VMPI?5?9?5Workers?3?5?$CFd?0?5Downloaders?3@ 1010115c     vmpi:vmpi.obj
 0002:00049180       ??_C@_0BJ@GAHOGAMC@VMPI?5?$CISDK?$CJ?5?9?5Workers?3?5?$CFd?$AA@ 10101180     vmpi:vmpi.obj
 0002:000491a0       ??_7CVMPIConnectionCreator@@6B@ 101011a0     vmpi:vmpi.obj
 0002:000491a4       ??_C@_0CB@MCFJOHCL@?5?9?5ERROR?5in?5CreateProcess?5?$CI?$CFs?$CJ?$CB?6@ 101011a4     vmpi:vmpi.obj
 0002:000491c8       ??_C@_0BD@HDELONBC@_getcwd?$CI?$CJ?5failed?4?6?$AA@ 101011c8     vmpi:vmpi.obj
 0002:000491dc       ??_C@_0N@EDLLPPPH@?9allowdebug?5?$AA@ 101011dc     vmpi:vmpi.obj
 0002:000491ec       ??_C@_0BK@FNEJJFIK@?9mpi_worker?5127?40?40?41?3?$CFd?5?$AA@ 101011ec     vmpi:vmpi.obj
 0002:00049208       ??_C@_0BA@PPJCDJGE@?9mpi_MasterName?$AA@ 10101208     vmpi:vmpi.obj
 0002:00049218       ??_C@_0BA@OKHBLKMD@cstrike?$CFcmapsrc?$AA@ 10101218     vmpi:vmpi.obj
 0002:00049228       ??_C@_0BC@MJAJPCMI@sourcesdk_content?$AA@ 10101228     vmpi:vmpi.obj
 0002:0004923c       ??_C@_0BE@NCOEMFNB@ClientRegistry?4blob?$AA@ 1010123c     vmpi:vmpi.obj
 0002:00049250       ??_C@_09DCGKHCMF@steamapps?$AA@ 10101250     vmpi:vmpi.obj
 0002:0004925c       ??_C@_09HCHJOCLK@sourcesdk?$AA@ 1010125c     vmpi:vmpi.obj
