 vtfdiff

 Timestamp is 4e78503f (Tue Sep 20 09:35:11 2011)

 Preferred load address is 00400000

 Start         Length     Name                   Class
 0001:00000000 00041eaeH .text                   CODE
 0001:00041eb0 0000018eH .text$x                 CODE
 0001:00042040 0000010bH .text$yc                CODE
 0001:00042150 0000005aH .text$yd                CODE
 0002:00000000 00000170H .idata$5                DATA
 0002:00000170 00000004H .CRT$XCA                DATA
 0002:00000174 00000024H .CRT$XCU                DATA
 0002:00000198 00000004H .CRT$XCZ                DATA
 0002:0000019c 00000004H .CRT$XIA                DATA
 0002:000001a0 00000014H .CRT$XIC                DATA
 0002:000001b4 00000004H .CRT$XIY                DATA
 0002:000001b8 00000004H .CRT$XIZ                DATA
 0002:000001bc 00000004H .CRT$XPA                DATA
 0002:000001c0 00000004H .CRT$XPX                DATA
 0002:000001c4 00000004H .CRT$XPXA               DATA
 0002:000001c8 00000004H .CRT$XPZ                DATA
 0002:000001cc 00000004H .CRT$XTA                DATA
 0002:000001d0 00000004H .CRT$XTZ                DATA
 0002:000001e0 0004b1d4H .rdata                  DATA
 0002:0004b3b4 0000004cH .rdata$debug            DATA
 0002:0004b400 0000023cH .rdata$r                DATA
 0002:0004b63c 00000004H .rtc$IAA                DATA
 0002:0004b640 00000004H .rtc$IZZ                DATA
 0002:0004b644 00000004H .rtc$TAA                DATA
 0002:0004b648 00000004H .rtc$TZZ                DATA
 0002:0004b650 00000770H .xdata$x                DATA
 0002:0004bdc0 00000028H .idata$2                DATA
 0002:0004bde8 00000014H .idata$3                DATA
 0002:0004bdfc 00000170H .idata$4                DATA
 0002:0004bf6c 000006b2H .idata$6                DATA
 0002:0004c61e 00000000H .edata                  DATA
 0003:00000000 00002c00H .data                   DATA
 0003:00002c00 00015550H .bss                    DATA

  Address         Publics by Value              Rva+Base       Lib:Object

 0000:00000000       ___safe_se_handler_count   00000000     <absolute>
 0000:00000000       ___safe_se_handler_table   00000000     <absolute>
 0000:00000000       __except_list              00000000     <absolute>
 0000:00000000       ___ImageBase               00400000     <linker-defined>
 0001:00000000       ?MakeModuleFileName@@YAPBDXZ 00401000 f   memoverride.obj
 0001:00000090       _malloc                    00401090 f   memoverride.obj
 0001:00000090       ??2@YAPAXI@Z               00401090 f   memoverride.obj
 0001:00000090       __malloc_crt               00401090 f   memoverride.obj
 0001:000000f0       ??3@YAXPAX@Z               004010f0 f   memoverride.obj
 0001:000000f0       _free                      004010f0 f   memoverride.obj
 0001:00000110       _calloc                    00401110 f   memoverride.obj
 0001:00000190       __calloc_base              00401190 f   memoverride.obj
 0001:00000210       __realloc_base             00401210 f   memoverride.obj
 0001:00000270       __recalloc_base            00401270 f   memoverride.obj
 0001:00000300       __calloc_crt               00401300 f   memoverride.obj
 0001:00000320       __realloc_crt              00401320 f   memoverride.obj
 0001:00000330       __recalloc_crt             00401330 f   memoverride.obj
 0001:00000350       __msize                    00401350 f   memoverride.obj
 0001:00000370       __heap_init                00401370 f   memoverride.obj
 0001:00000380       __strdup                   00401380 f   memoverride.obj
 0001:00000400       ?SizeInBytes@ImageLoader@@YAHW4ImageFormat@@@Z 00401400 f i vtfdiff.obj
 0001:00000420       ?VectorsAreEqual@@YA_NABVVector@@0M@Z 00401420 f i vtfdiff.obj
 0001:00000470       ?ResourceToString@@YAPBDI@Z 00401470 f   vtfdiff.obj
 0001:000004e0       ?PrintFlags@@YAXH@Z        004014e0 f   vtfdiff.obj
 0001:00000a80       ?LessFunc@?$CDefOps@H@@SA_NABH0@Z 00401a80 f i vtfdiff.obj
 0001:00000aa0       ?LoadFileIntoBuffer@@YA_NPBDAAVCUtlBuffer@@@Z 00401aa0 f   vtfdiff.obj
 0001:00000b30       ?Grow@?$CUtlMemory@U?$UtlRBTreeNode_t@UNode_t@?$CUtlMap@H_NG@@G@@G@@QAEXH@Z 00401b30 f i vtfdiff.obj
 0001:00000be0       ?Parent@?$CUtlRBTree@UNode_t@?$CUtlMap@H_NG@@GVCKeyLess@2@V?$CUtlMemory@U?$UtlRBTreeNode_t@UNode_t@?$CUtlMap@H_NG@@G@@G@@@@QBEGG@Z 00401be0 f i vtfdiff.obj
 0001:00000c40       ?LeftChild@?$CUtlRBTree@UNode_t@?$CUtlMap@H_NG@@GVCKeyLess@2@V?$CUtlMemory@U?$UtlRBTreeNode_t@UNode_t@?$CUtlMap@H_NG@@G@@G@@@@QBEGG@Z 00401c40 f i vtfdiff.obj
 0001:00000ca0       ?RightChild@?$CUtlRBTree@UNode_t@?$CUtlMap@H_NG@@GVCKeyLess@2@V?$CUtlMemory@U?$UtlRBTreeNode_t@UNode_t@?$CUtlMap@H_NG@@G@@G@@@@QBEGG@Z 00401ca0 f i vtfdiff.obj
 0001:00000d00       ?FindInsertionPosition@?$CUtlRBTree@UNode_t@?$CUtlMap@H_NG@@GVCKeyLess@2@V?$CUtlMemory@U?$UtlRBTreeNode_t@UNode_t@?$CUtlMap@H_NG@@G@@G@@@@IAEXABUNode_t@?$CUtlMap@H_NG@@AAGAA_N@Z 00401d00 f i vtfdiff.obj
 0001:00000df0       ?NewNode@?$CUtlRBTree@UNode_t@?$CUtlMap@H_NG@@GVCKeyLess@2@V?$CUtlMemory@U?$UtlRBTreeNode_t@UNode_t@?$CUtlMap@H_NG@@G@@G@@@@QAEGXZ 00401df0 f i vtfdiff.obj
 0001:00000ee0       ?RotateLeft@?$CUtlRBTree@UNode_t@?$CUtlMap@H_NG@@GVCKeyLess@2@V?$CUtlMemory@U?$UtlRBTreeNode_t@UNode_t@?$CUtlMap@H_NG@@G@@G@@@@IAEXG@Z 00401ee0 f i vtfdiff.obj
 0001:00000fd0       ?RotateRight@?$CUtlRBTree@UNode_t@?$CUtlMap@H_NG@@GVCKeyLess@2@V?$CUtlMemory@U?$UtlRBTreeNode_t@UNode_t@?$CUtlMap@H_NG@@G@@G@@@@IAEXG@Z 00401fd0 f i vtfdiff.obj
 0001:000010c0       ??1CUtlBuffer@@QAE@XZ      004020c0 f i vtfdiff.obj
 0001:000010f0       ?Find@?$CUtlRBTree@UNode_t@?$CUtlMap@H_NG@@GVCKeyLess@2@V?$CUtlMemory@U?$UtlRBTreeNode_t@UNode_t@?$CUtlMap@H_NG@@G@@G@@@@QBEGABUNode_t@?$CUtlMap@H_NG@@@Z 004020f0 f i vtfdiff.obj
 0001:000011f0       ?RemoveAll@?$CUtlRBTree@UNode_t@?$CUtlMap@H_NG@@GVCKeyLess@2@V?$CUtlMemory@U?$UtlRBTreeNode_t@UNode_t@?$CUtlMap@H_NG@@G@@G@@@@QAEXXZ 004021f0 f i vtfdiff.obj
 0001:000012b0       ?InsertRebalance@?$CUtlRBTree@UNode_t@?$CUtlMap@H_NG@@GVCKeyLess@2@V?$CUtlMemory@U?$UtlRBTreeNode_t@UNode_t@?$CUtlMap@H_NG@@G@@G@@@@IAEXG@Z 004022b0 f i vtfdiff.obj
 0001:000018a0       ?LinkToParent@?$CUtlRBTree@UNode_t@?$CUtlMap@H_NG@@GVCKeyLess@2@V?$CUtlMemory@U?$UtlRBTreeNode_t@UNode_t@?$CUtlMap@H_NG@@G@@G@@@@IAEXGG_N@Z 004028a0 f i vtfdiff.obj
 0001:00001920       ??1?$CUtlRBTree@UNode_t@?$CUtlMap@H_NG@@GVCKeyLess@2@V?$CUtlMemory@U?$UtlRBTreeNode_t@UNode_t@?$CUtlMap@H_NG@@G@@G@@@@QAE@XZ 00402920 f i vtfdiff.obj
 0001:00001990       ?Insert@?$CUtlMap@H_NG@@QAEGABHAB_N@Z 00402990 f i vtfdiff.obj
 0001:00001a00       _main                      00402a00 f   vtfdiff.obj
 0001:00002770       ?ImageFormatInfo@ImageLoader@@YAABUImageFormatInfo_t@@W4ImageFormat@@@Z 00403770 f   bitmap:imageformat.obj
 0001:00002790       ?GetNumMipMapLevels@ImageLoader@@YAHHHH@Z 00403790 f   bitmap:imageformat.obj
 0001:00002800       ?GetMemRequired@ImageLoader@@YAHHHHW4ImageFormat@@_N@Z 00403800 f   bitmap:imageformat.obj
 0001:00002940       ?FindConversion@CUtlCStringConversion@@UAEDPBDPAH@Z 00403940 f   tier1:utlbuffer.obj
 0001:00002960       ??0CUtlCharConversion@@QAE@DPBDHPAUConversionArray_t@0@@Z 00403960 f   tier1:utlbuffer.obj
 0001:00002a00       ?FindConversion@CUtlCharConversion@@UAEDPBDPAH@Z 00403a00 f   tier1:utlbuffer.obj
 0001:00002a80       ?GetOverflow@CUtlBuffer@@IAE_NH@Z 00403a80 f   tier1:utlbuffer.obj
 0001:00002a90       ?FindConversion@CUtlNoEscConversion@@UAEDPBDPAH@Z 00403a90 f i tier1:utlbuffer.obj
 0001:00002ab0       ?SeekGet@CUtlBuffer@@QAEXW4SeekType_t@1@H@Z 00403ab0 f   tier1:utlbuffer.obj
 0001:00002b10       ?CheckPut@CUtlBuffer@@IAE_NH@Z 00403b10 f   tier1:utlbuffer.obj
 0001:00002b60       ?AddNullTermination@CUtlBuffer@@IAEXXZ 00403b60 f   tier1:utlbuffer.obj
 0001:00002bb0       ?ConvertToGrowableMemory@?$CUtlMemory@EH@@QAEXH@Z 00403bb0 f i tier1:utlbuffer.obj
 0001:00002c00       ?Grow@?$CUtlMemory@EH@@QAEXH@Z 00403c00 f i tier1:utlbuffer.obj
 0001:00002cb0       ?EnsureCapacity@?$CUtlMemory@EH@@QAEXH@Z 00403cb0 f i tier1:utlbuffer.obj
 0001:00002d00       ?EnsureCapacity@CUtlBuffer@@QAEXH@Z 00403d00 f   tier1:utlbuffer.obj
 0001:00002d60       ?Get@CUtlBuffer@@QAEXPAXH@Z 00403d60 f   tier1:utlbuffer.obj
 0001:00002dd0       ?Put@CUtlBuffer@@QAEXPBXH@Z 00403dd0 f   tier1:utlbuffer.obj
 0001:00002e40       ?PutOverflow@CUtlBuffer@@IAE_NH@Z 00403e40 f   tier1:utlbuffer.obj
 0001:00002e90       ?SeekPut@CUtlBuffer@@QAEXW4SeekType_t@1@H@Z 00403e90 f   tier1:utlbuffer.obj
 0001:00002f10       ??0CUtlBuffer@@QAE@HHH@Z   00403f10 f   tier1:utlbuffer.obj
 0001:00002f90       ?V_strncmp@@YAHPBD0H@Z     00403f90 f   tier1:strtools.obj
 0001:00002ff0       ?V_strncpy@@YAXPADPBDH@Z   00403ff0 f   tier1:strtools.obj
 0001:00003030       ?ComputeMipCount@CVTFTexture@@ABEHXZ 00404030 f   vtf:vtf.obj
 0001:00003050       ?AllocateImageData@CVTFTexture@@AAEXH@Z 00404050 f   vtf:vtf.obj
 0001:00003080       ?SetBumpScale@CVTFTexture@@UAEXM@Z 00404080 f   vtf:vtf.obj
 0001:00003090       ?SetReflectivity@CVTFTexture@@UAEXABVVector@@@Z 00404090 f   vtf:vtf.obj
 0001:000030b0       ?SetAlphaTestThreshholds@CVTFTexture@@UAEXMM@Z 004040b0 f   vtf:vtf.obj
 0001:000030d0       ?LoadLowResData@CVTFTexture@@AAE_NAAVCUtlBuffer@@@Z 004040d0 f   vtf:vtf.obj
 0001:00003120       ?LoadImageData@CVTFTexture@@AAE_NAAVCUtlBuffer@@ABUVTFFileHeader_t@@H@Z 00404120 f   vtf:vtf.obj
 0001:00003260       ?WriteData@ResourceMemorySection@CVTFTexture@@QBE_NAAVCUtlBuffer@@@Z 00404260 f   vtf:vtf.obj
 0001:00003300       ?WriteImageData@CVTFTexture@@AAE_NAAVCUtlBuffer@@@Z 00404300 f   vtf:vtf.obj
 0001:00003380       ?Width@CVTFTexture@@UBEHXZ 00404380 f   vtf:vtf.obj
 0001:00003390       ?Height@CVTFTexture@@UBEHXZ 00404390 f   vtf:vtf.obj
 0001:000033a0       ?Depth@CVTFTexture@@UBEHXZ 004043a0 f   vtf:vtf.obj
 0001:000033b0       ?Format@CVTFTexture@@UBE?AW4ImageFormat@@XZ 004043b0 f   vtf:vtf.obj
 0001:000033c0       ?FaceCount@CVTFTexture@@UBEHXZ 004043c0 f   vtf:vtf.obj
 0001:000033d0       ?FrameCount@CVTFTexture@@UBEHXZ 004043d0 f   vtf:vtf.obj
 0001:000033e0       ?Flags@CVTFTexture@@UBEHXZ 004043e0 f   vtf:vtf.obj
 0001:000033f0       ?IsCubeMap@CVTFTexture@@UBE_NXZ 004043f0 f   vtf:vtf.obj
 0001:00003400       ?IsNormalMap@CVTFTexture@@UBE_NXZ 00404400 f   vtf:vtf.obj
 0001:00003410       ?IsVolumeTexture@CVTFTexture@@UBE_NXZ 00404410 f   vtf:vtf.obj
 0001:00003420       ?BumpScale@CVTFTexture@@UBEMXZ 00404420 f   vtf:vtf.obj
 0001:00003430       ?Reflectivity@CVTFTexture@@UBEABVVector@@XZ 00404430 f   vtf:vtf.obj
 0001:00003440       ?ImageData@CVTFTexture@@UAEPAEXZ 00404440 f   vtf:vtf.obj
 0001:00003450       ?LowResWidth@CVTFTexture@@UBEHXZ 00404450 f   vtf:vtf.obj
 0001:00003460       ?LowResHeight@CVTFTexture@@UBEHXZ 00404460 f   vtf:vtf.obj
 0001:00003470       ?LowResFormat@CVTFTexture@@UBE?AW4ImageFormat@@XZ 00404470 f   vtf:vtf.obj
 0001:00003480       ?LowResImageData@CVTFTexture@@UAEPAEXZ 00404480 f   vtf:vtf.obj
 0001:00003490       ?RowSizeInBytes@CVTFTexture@@UBEHH@Z 00404490 f   vtf:vtf.obj
 0001:000034c0       ?FaceSizeInBytes@CVTFTexture@@UBEHH@Z 004044c0 f   vtf:vtf.obj
 0001:00003500       ?ImageData@CVTFTexture@@UAEPAEHHHHHH@Z 00404500 f   vtf:vtf.obj
 0001:00003570       ?ComputeMipSize@CVTFTexture@@UBEHH@Z 00404570 f   vtf:vtf.obj
 0001:000035c0       ?ComputeFaceSize@CVTFTexture@@ABEHHW4ImageFormat@@@Z 004045c0 f i vtf:vtf.obj
 0001:00003650       ?ComputeFaceSize@CVTFTexture@@UBEHH@Z 00404650 f   vtf:vtf.obj
 0001:00003670       ?ComputeTotalSize@CVTFTexture@@UBEHXZ 00404670 f   vtf:vtf.obj
 0001:00003690       ?GetImageOffset@CVTFTexture@@ABEHHHHW4ImageFormat@@@Z 00404690 f   vtf:vtf.obj
 0001:00003710       ?ComputeMipLevelDimensions@CVTFTexture@@UBEXHPAH00@Z 00404710 f   vtf:vtf.obj
 0001:00003760       ?ComputeMipLevelSubRect@CVTFTexture@@UBEXPAURect_t@@H0@Z 00404760 f   vtf:vtf.obj
 0001:00003820       ?ConvertImageFormat@CVTFTexture@@UAEXW4ImageFormat@@_N@Z 00404820 f   vtf:vtf.obj
 0001:00003f80       ?ComputeHemispheremapFrame@CVTFTexture@@AAEXPAPAEPAEW4LookDir_t@@@Z 00404f80 f   vtf:vtf.obj
 0001:00004150       ?GenerateHemisphereMap@CVTFTexture@@UAEXPAEHHW4LookDir_t@@H@Z 00405150 f   vtf:vtf.obj
 0001:00004250       ?FixCubemapFaceOrientation@CVTFTexture@@UAEXXZ 00405250 f   vtf:vtf.obj
 0001:00004320       ?NormalizeTopMipLevel@CVTFTexture@@UAEXXZ 00405320 f   vtf:vtf.obj
 0001:000043b0       ?PutOneOverMipLevelInAlpha@CVTFTexture@@UAEXXZ 004053b0 f   vtf:vtf.obj
 0001:000044a0       ?ComputeReflectivity@CVTFTexture@@UAEXXZ 004054a0 f   vtf:vtf.obj
 0001:000045f0       ?ComputeAlphaFlags@CVTFTexture@@UAEXXZ 004055f0 f   vtf:vtf.obj
 0001:00004740       ?PostProcess@CVTFTexture@@UAEX_NW4LookDir_t@@0@Z 00405740 f   vtf:vtf.obj
 0001:000047d0       ?SetPostProcessingSettings@CVTFTexture@@UAEXPBUVtfProcessingOptions@@@Z 004057d0 f   vtf:vtf.obj
 0001:00004820       ?SetupFaceVert@CVTFTexture@@AAEXHHAAVCEdgePos@@@Z 00405820 f   vtf:vtf.obj
 0001:00004880       ?SetupTextureEdgeIncrements@CVTFTexture@@AAEXHHH_NPAVCEdgeIncrements@@@Z 00405880 f   vtf:vtf.obj
 0001:000049a0       ?BlendTexels@@YAXPAPAEH@Z  004059a0 f   vtf:vtf.obj
 0001:00004a50       ?BlendCubeMapFaceCorners@CVTFTexture@@AAEXHHPBVCCornerMatch@@@Z 00405a50 f   vtf:vtf.obj
 0001:00004c30       ?BuildCubeMapMatchLists@CVTFTexture@@AAEXQAVCEdgeMatch@@QAVCCornerMatch@@_N@Z 00405c30 f   vtf:vtf.obj
 0001:00004eb0       ?Grow@?$CUtlMemory@VS3RGBA@@H@@QAEXH@Z 00405eb0 f i vtf:vtf.obj
 0001:00004f60       ??9CEdgePos@@QAE_NABV0@@Z  00405f60 f i vtf:vtf.obj
 0001:00004fa0       ?ImageData@CVTFTexture@@UAEPAEHHH@Z 00405fa0 f   vtf:vtf.obj
 0001:00004fd0       ?ComputeSpheremapFrame@CVTFTexture@@AAEXPAPAEPAEW4LookDir_t@@@Z 00405fd0 f   vtf:vtf.obj
 0001:000051a0       ?GenerateSpheremap@CVTFTexture@@UAEXW4LookDir_t@@@Z 004061a0 f   vtf:vtf.obj
 0001:00005280       ?GenerateMipmaps@CVTFTexture@@UAEXXZ 00406280 f   vtf:vtf.obj
 0001:000056d0       ?BlendCubeMapFaceEdges@CVTFTexture@@AAEXHHPBVCEdgeMatch@@@Z 004066d0 f   vtf:vtf.obj
 0001:000058a0       ?Grow@?$CUtlMemory@UResourceEntryInfo@@H@@QAEXH@Z 004068a0 f i vtf:vtf.obj
 0001:00005950       ?Grow@?$CUtlMemory@UResourceMemorySection@CVTFTexture@@H@@QAEXH@Z 00406950 f i vtf:vtf.obj
 0001:000059f0       ?ReleaseResources@CVTFTexture@@AAEXXZ 004069f0 f   vtf:vtf.obj
 0001:00005a70       ?GetResourceTypes@CVTFTexture@@UBEIPAIH@Z 00406a70 f   vtf:vtf.obj
 0001:00005ac0       ?LoadData@ResourceMemorySection@CVTFTexture@@QAE_NAAVCUtlBuffer@@AAVCByteswap@@@Z 00406ac0 f   vtf:vtf.obj
 0001:00005b60       ?ReadHeader@CVTFTexture@@AAE_NAAVCUtlBuffer@@AAUVTFFileHeader_t@@@Z 00406b60 f   vtf:vtf.obj
 0001:00005c40       ?LoadNewResources@CVTFTexture@@AAE_NAAVCUtlBuffer@@@Z 00406c40 f   vtf:vtf.obj
 0001:00005cc0       ?FindResourceEntryInfo@CVTFTexture@@ABEPBUResourceEntryInfo@@I@Z 00406cc0 f   vtf:vtf.obj
 0001:00005d30       ?BlendCubeMapEdgePalettes@CVTFTexture@@AAEXHHPBVCEdgeMatch@@@Z 00406d30 f   vtf:vtf.obj
 0001:00005f50       ?BlendCubeMapCornerPalettes@CVTFTexture@@AAEXHHPBVCCornerMatch@@@Z 00406f50 f   vtf:vtf.obj
 0001:000060b0       ?MatchCubeMapS3TCPalettes@CVTFTexture@@AAEXQAVCEdgeMatch@@QAVCCornerMatch@@@Z 004070b0 f   vtf:vtf.obj
 0001:00006130       ?EnsureCapacity@?$CUtlVector@UResourceMemorySection@CVTFTexture@@V?$CUtlMemory@UResourceMemorySection@CVTFTexture@@H@@@@QAEXH@Z 00407130 f i vtf:vtf.obj
 0001:00006190       ?InsertMultipleBefore@?$CUtlVector@UResourceEntryInfo@@V?$CUtlMemory@UResourceEntryInfo@@H@@@@QAEHHHPBUResourceEntryInfo@@@Z 00407190 f i vtf:vtf.obj
 0001:00006230       ?InsertMultipleBefore@?$CUtlVector@UResourceMemorySection@CVTFTexture@@V?$CUtlMemory@UResourceMemorySection@CVTFTexture@@H@@@@QAEHHHPBUResourceMemorySection@CVTFTexture@@@Z 00407230 f i vtf:vtf.obj
 0001:00006310       ?InsertMultipleBefore@?$CUtlVector@VS3RGBA@@V?$CUtlMemory@VS3RGBA@@H@@@@QAEHHHPBVS3RGBA@@@Z 00407310 f i vtf:vtf.obj
 0001:000063b0       ?LowResFileInfo@CVTFTexture@@UBEXPAH0@Z 004073b0 f   vtf:vtf.obj
 0001:00006410       ?ImageFileInfo@CVTFTexture@@UBEXHHHPAH0@Z 00407410 f   vtf:vtf.obj
 0001:00006510       ?FileSize@CVTFTexture@@UBEHH@Z 00407510 f   vtf:vtf.obj
 0001:00006550       ?GetResourceData@CVTFTexture@@UBEPAXIPAI@Z 00407550 f   vtf:vtf.obj
 0001:000065c0       ?HasResourceEntry@CVTFTexture@@UBE_NI@Z 004075c0 f   vtf:vtf.obj
 0001:000065e0       ?ConstructLowResImage@CVTFTexture@@UAE_NXZ 004075e0 f   vtf:vtf.obj
 0001:00006720       ??1?$CUtlVector@UResourceEntryInfo@@V?$CUtlMemory@UResourceEntryInfo@@H@@@@QAE@XZ 00407720 f i vtf:vtf.obj
 0001:00006720       ??1?$CUtlVector@VS3RGBA@@V?$CUtlMemory@VS3RGBA@@H@@@@QAE@XZ 00407720 f i vtf:vtf.obj
 0001:00006720       ??1?$CUtlVector@UResourceMemorySection@CVTFTexture@@V?$CUtlMemory@UResourceMemorySection@CVTFTexture@@H@@@@QAE@XZ 00407720 f i vtf:vtf.obj
 0001:00006790       ?InsertBefore@?$CUtlVector@UResourceMemorySection@CVTFTexture@@V?$CUtlMemory@UResourceMemorySection@CVTFTexture@@H@@@@QAEHHABUResourceMemorySection@CVTFTexture@@@Z 00407790 f i vtf:vtf.obj
 0001:00006810       ?InsertBefore@?$CUtlVector@UResourceMemorySection@CVTFTexture@@V?$CUtlMemory@UResourceMemorySection@CVTFTexture@@H@@@@QAEHH@Z 00407810 f i vtf:vtf.obj
 0001:00006880       ??1CDatadescGeneratedNameHolder@@QAE@XZ 00407880 f i vtf:vtf.obj
 0001:00006900       ??0CVTFTexture@@QAE@XZ     00407900 f   vtf:vtf.obj
 0001:00006a00       ??1CVTFTexture@@UAE@XZ     00407a00 f   vtf:vtf.obj
 0001:00006a60       ?FindOrCreateResourceEntryInfo@CVTFTexture@@AAEPAUResourceEntryInfo@@I@Z 00407a60 f   vtf:vtf.obj
 0001:00006b90       ?Serialize@CVTFTexture@@UAE_NAAVCUtlBuffer@@@Z 00407b90 f   vtf:vtf.obj
 0001:00006dc0       ??$DataMapInit@UVTFFileBaseHeader_t@@@@YAPAUdatamap_t@@PAUVTFFileBaseHeader_t@@@Z 00407dc0 f   vtf:vtf.obj
 0001:00006e40       ??$DataMapInit@UVTFFileHeaderV7_1_t@@@@YAPAUdatamap_t@@PAUVTFFileHeaderV7_1_t@@@Z 00407e40 f   vtf:vtf.obj
 0001:00006ed0       ??$DataMapInit@UVTFFileHeaderV7_2_t@@@@YAPAUdatamap_t@@PAUVTFFileHeaderV7_2_t@@@Z 00407ed0 f   vtf:vtf.obj
 0001:00006f60       ??$DataMapInit@UVTFFileHeaderV7_3_t@@@@YAPAUdatamap_t@@PAUVTFFileHeaderV7_3_t@@@Z 00407f60 f   vtf:vtf.obj
 0001:00006ff0       ??$DataMapInit@UVTFFileHeader_t@@@@YAPAUdatamap_t@@PAUVTFFileHeader_t@@@Z 00407ff0 f   vtf:vtf.obj
 0001:00007080       ??$DataMapInit@UVTFFileHeaderX360_t@@@@YAPAUdatamap_t@@PAUVTFFileHeaderX360_t@@@Z 00408080 f   vtf:vtf.obj
 0001:00007110       ?CreateVTFTexture@@YAPAVIVTFTexture@@XZ 00408110 f   vtf:vtf.obj
 0001:00007130       ??_GCVTFTexture@@UAEPAXI@Z 00408130 f i vtf:vtf.obj
 0001:00007130       ??_ECVTFTexture@@UAEPAXI@Z 00408130 f i vtf:vtf.obj
 0001:00007150       ?Unserialize@CVTFTexture@@UAE_NAAVCUtlBuffer@@_NH@Z 00408150 f   vtf:vtf.obj
 0001:00007430       ?RemoveResourceEntryInfo@CVTFTexture@@AAE_NI@Z 00408430 f   vtf:vtf.obj
 0001:00007520       ?Init@CVTFTexture@@UAE_NHHHW4ImageFormat@@HHH@Z 00408520 f   vtf:vtf.obj
 0001:00007670       ?InitLowResImage@CVTFTexture@@UAEXHHW4ImageFormat@@@Z 00408670 f   vtf:vtf.obj
 0001:000076e0       ?SetResourceData@CVTFTexture@@UAEPAXIPBXI@Z 004086e0 f   vtf:vtf.obj
 0001:00007780       ?MatchCubeMapBorders@CVTFTexture@@UAEXHW4ImageFormat@@_N@Z 00408780 f   vtf:vtf.obj
 0001:00007910       ?WriteBitInt@@YAXPADHHH@Z  00408910 f   vtf:s3tc_decode.obj
 0001:00007960       ?S3TC_GetPixelPaletteIndex@@YA?AVS3PaletteIndex@@W4ImageFormat@@PBDHH@Z 00408960 f   vtf:s3tc_decode.obj
 0001:000079c0       ?S3TC_SetPixelPaletteIndex@@YAXW4ImageFormat@@PADHHVS3PaletteIndex@@@Z 004089c0 f   vtf:s3tc_decode.obj
 0001:00007a30       ?S3TC_GetBlock@@YAPADPAXW4ImageFormat@@HHH@Z 00408a30 f   vtf:s3tc_decode.obj
 0001:00007a60       ?S3TC_MergeBlocks@@YAXPAPADPAPAVS3RGBA@@HHW4ImageFormat@@@Z 00408a60 f   vtf:s3tc_decode.obj
 0001:00007da0       ?S3TC_GetPaletteIndex@@YA?AVS3PaletteIndex@@PAEW4ImageFormat@@HHH@Z 00408da0 f   vtf:s3tc_decode.obj
 0001:00007e00       ?S3TC_SetPaletteIndex@@YAXPAEW4ImageFormat@@HHHVS3PaletteIndex@@@Z 00408e00 f   vtf:s3tc_decode.obj
 0001:00007e60       _cosf                      00408e60 f i mathlib:mathlib_base.obj
 0001:00007e70       ?SinCos@@YAXMPAM0@Z        00408e70 f i mathlib:mathlib_base.obj
 0001:00007e90       ?_sqrtf@@YAMM@Z            00408e90 f   mathlib:mathlib_base.obj
 0001:00007ea0       ?_rsqrtf@@YAMM@Z           00408ea0 f   mathlib:mathlib_base.obj
 0001:00007eb0       ?_VectorNormalize@@YIMAAVVector@@@Z 00408eb0 f   mathlib:mathlib_base.obj
 0001:00007ef0       ?_VectorNormalizeFast@@YIXAAVVector@@@Z 00408ef0 f   mathlib:mathlib_base.obj
 0001:00007f30       ?_InvRSquared@@YAMPBM@Z    00408f30 f   mathlib:mathlib_base.obj
 0001:00007f70       ?TextureToLinear@@YAMH@Z   00408f70 f   mathlib:color_conversion.obj
 0001:00007fa0       _strrchr                   00408fa0 f   LIBCMT:strrchr.obj
 0001:00007fd0       _memset                    00408fd0 f   LIBCMT:memset.obj
 0001:00008050       _memcpy                    00409050 f   LIBCMT:memcpy.obj
 0001:000083b1       __cfltcvt_init             004093b1 f   LIBCMT:_fpinit_.obj
 0001:00008411       __fpmath                   00409411 f   LIBCMT:_fpinit_.obj
 0001:0000842a       _printf                    0040942a f   LIBCMT:printf.obj
 0001:000084d1       __get_printf_count_output  004094d1 f   LIBCMT:printf.obj
 0001:000084e7       _sprintf                   004094e7 f   LIBCMT:sprintf.obj
 0001:0000856b       __fclose_nolock            0040956b f   LIBCMT:fclose.obj
 0001:000085d8       _fclose                    004095d8 f   LIBCMT:fclose.obj
 0001:0000864c       __fread_nolock_s           0040964c f   LIBCMT:fread.obj
 0001:00008808       _fread_s                   00409808 f   LIBCMT:fread.obj
 0001:00008896       _fread                     00409896 f   LIBCMT:fread.obj
 0001:000088b3       __fsopen                   004098b3 f   LIBCMT:fopen.obj
 0001:0000896f       _fopen                     0040996f f   LIBCMT:fopen.obj
 0001:00008a60       __stat64i32                00409a60 f   LIBCMT:stati32.obj
 0001:00008ec0       __alloca_probe_16          00409ec0 f   LIBCMT:alloca16.obj
 0001:00008ed6       __alloca_probe_8           00409ed6     LIBCMT:alloca16.obj
 0001:00009076       _mainCRTStartup            0040a076 f   LIBCMT:crt0.obj
 0001:00009080       ??1type_info@@UAE@XZ       0040a080 f   LIBCMT:typinfo.obj
 0001:00009090       ??_Etype_info@@UAEPAXI@Z   0040a090 f i LIBCMT:typinfo.obj
 0001:00009090       ??_Gtype_info@@UAEPAXI@Z   0040a090 f i LIBCMT:typinfo.obj
 0001:000090b1       ??8type_info@@QBE_NABV0@@Z 0040a0b1 f   LIBCMT:typinfo.obj
 0001:000090d1       ??0_LocaleUpdate@@QAE@PAUlocaleinfo_struct@@@Z 0040a0d1 f i LIBCMT:_ctype.obj
 0001:00009158       __isdigit_l                0040a158 f i LIBCMT:_ctype.obj
 0001:000091a9       _isdigit                   0040a1a9 f i LIBCMT:_ctype.obj
 0001:000091f0       _strchr                    0040a1f0 f   LIBCMT:strchr.obj
 0001:000091f6       ___from_strstr_to_strchr   0040a1f6     LIBCMT:strchr.obj
 0001:000094d9       _strtol                    0040a4d9 f   LIBCMT:strtol.obj
 0001:00009504       __tolower_l                0040a504 f   LIBCMT:tolower.obj
 0001:00009619       _tolower                   0040a619 f   LIBCMT:tolower.obj
 0001:00009650       _strstr                    0040a650 f   LIBCMT:strstr.obj
 0001:000096e0       _memmove                   0040a6e0 f   LIBCMT:memmove.obj
 0001:00009a50       _strncat                   0040aa50 f   LIBCMT:strncat.obj
 0001:00009b85       __validdrive               0040ab85 f   LIBCMT:getcwd.obj
 0001:00009bdf       __getdcwd_nolock           0040abdf f   LIBCMT:getcwd.obj
 0001:00009d03       __getcwd                   0040ad03 f   LIBCMT:getcwd.obj
 0001:00009d50       _strncpy                   0040ad50 f   LIBCMT:strncpy.obj
 0001:00009e80       __ftol2_sse                0040ae80 f   LIBCMT:ftol2.obj
 0001:00009e89       __ftol2_pentium4           0040ae89 f   LIBCMT:ftol2.obj
 0001:00009e9c       __ftol2_sse_excpt          0040ae9c f   LIBCMT:ftol2.obj
 0001:00009eb6       __ftol2                    0040aeb6 f   LIBCMT:ftol2.obj
 0001:00009f30       __allmul                   0040af30 f   LIBCMT:llmul.obj
 0001:00009f70       __allrem                   0040af70 f   LIBCMT:llrem.obj
 0001:0000a030       __alldiv                   0040b030 f   LIBCMT:lldiv.obj
 0001:0000a0e0       _ceil                      0040b0e0 f   LIBCMT:_ceil_pentium4_.obj
 0001:0000a120       __ceil_pentium4            0040b120 f   LIBCMT:_ceil_pentium4_.obj
 0001:0000a1fd       __purecall                 0040b1fd f   LIBCMT:purevirt.obj
 0001:0000a2dd       ___onexitinit              0040b2dd f   LIBCMT:onexit.obj
 0001:0000a30e       __onexit                   0040b30e f   LIBCMT:onexit.obj
 0001:0000a34a       _atexit                    0040b34a f   LIBCMT:onexit.obj
 0001:0000a370       __allshr                   0040b370 f   LIBCMT:llshr.obj
 0001:0000a3a0       _acos                      0040b3a0 f   LIBCMT:_acos_.obj
 0001:0000a3e0       __CIacos                   0040b3e0 f   LIBCMT:_acos_.obj
 0001:0000a41b       __CIacos_default           0040b41b f   LIBCMT:_acos_.obj
 0001:0000a42f       __acos_default             0040b42f     LIBCMT:_acos_.obj
 0001:0000a4f0       _asin                      0040b4f0 f   LIBCMT:_asin_.obj
 0001:0000a530       __CIasin                   0040b530 f   LIBCMT:_asin_.obj
 0001:0000a56b       __CIasin_default           0040b56b f   LIBCMT:_asin_.obj
 0001:0000a57f       __asin_default             0040b57f     LIBCMT:_asin_.obj
 0001:0000a640       _fmod                      0040b640 f   LIBCMT:_87fmod_.obj
 0001:0000a64a       __CIfmod                   0040b64a f   LIBCMT:_87fmod_.obj
 0001:0000a670       _pow                       0040b670 f   LIBCMT:_pow_.obj
 0001:0000a6b0       __CIpow                    0040b6b0 f   LIBCMT:_pow_.obj
 0001:0000a6eb       __CIpow_default            0040b6eb f   LIBCMT:_pow_.obj
 0001:0000a704       __pow_default              0040b704     LIBCMT:_pow_.obj
 0001:0000a900       _floor                     0040b900 f   LIBCMT:_floor_pentium4_.obj
 0001:0000a940       __floor_pentium4           0040b940 f   LIBCMT:_floor_pentium4_.obj
 0001:0000aa21       __VEC_memzero              0040ba21 f   LIBCMT:p4_memset.obj
 0001:0000aadb       ___sse2_available_init     0040badb f   LIBCMT:cpu_disp.obj
 0001:0000aaeb       __flsbuf                   0040baeb f   LIBCMT:_flsbuf.obj
 0001:0000accf       __output_l                 0040bccf f   LIBCMT:output.obj
 0001:0000b87b       __initp_misc_invarg        0040c87b f   LIBCMT:invarg.obj
 0001:0000b88a       __call_reportfault         0040c88a f   LIBCMT:invarg.obj
 0001:0000b9b3       __invoke_watson            0040c9b3 f   LIBCMT:invarg.obj
 0001:0000b9d8       __invalid_parameter        0040c9d8 f   LIBCMT:invarg.obj
 0001:0000ba05       __invalid_parameter_noinfo 0040ca05 f   LIBCMT:invarg.obj
 0001:0000ba15       __get_errno_from_oserr     0040ca15 f   LIBCMT:dosmap.obj
 0001:0000ba57       __errno                    0040ca57 f   LIBCMT:dosmap.obj
 0001:0000ba6a       ___doserrno                0040ca6a f   LIBCMT:dosmap.obj
 0001:0000ba7d       __dosmaperr                0040ca7d f   LIBCMT:dosmap.obj
 0001:0000baa0       __VEC_memcpy               0040caa0 f   LIBCMT:p4_memcpy.obj
 0001:0000bba3       __forcdecpt_l              0040cba3 f   LIBCMT:cvt.obj
 0001:0000bc17       __cropzeros_l              0040cc17 f   LIBCMT:cvt.obj
 0001:0000bc99       __positive                 0040cc99 f   LIBCMT:cvt.obj
 0001:0000bcb5       __fassign_l                0040ccb5 f   LIBCMT:cvt.obj
 0001:0000bcf7       __fassign                  0040ccf7 f   LIBCMT:cvt.obj
 0001:0000bd30       __forcdecpt                0040cd30 f   LIBCMT:cvt.obj
 0001:0000bd43       __cropzeros                0040cd43 f   LIBCMT:cvt.obj
 0001:0000beb7       __cftoe_l                  0040ceb7 f   LIBCMT:cvt.obj
 0001:0000bf7e       __cftoe                    0040cf7e f   LIBCMT:cvt.obj
 0001:0000bf9e       __cftoa_l                  0040cf9e f   LIBCMT:cvt.obj
 0001:0000c417       __cftof_l                  0040d417 f   LIBCMT:cvt.obj
 0001:0000c4d8       __cftog_l                  0040d4d8 f   LIBCMT:cvt.obj
 0001:0000c5c5       __cfltcvt_l                0040d5c5 f   LIBCMT:cvt.obj
 0001:0000c64d       __cfltcvt                  0040d64d f   LIBCMT:cvt.obj
 0001:0000c670       __initp_misc_cfltcvt_tab   0040d670 f   LIBCMT:cmiscdat.obj
 0001:0000c693       __setdefaultprecision      0040d693 f   LIBCMT:fp8.obj
 0001:0000c6bb       ___iob_func                0040d6bb f   LIBCMT:_file.obj
 0001:0000c6c1       ___initstdio               0040d6c1 f   LIBCMT:_file.obj
 0001:0000c772       ___endstdio                0040d772 f   LIBCMT:_file.obj
 0001:0000c792       __lock_file                0040d792 f   LIBCMT:_file.obj
 0001:0000c7d3       __lock_file2               0040d7d3 f   LIBCMT:_file.obj
 0001:0000c805       __unlock_file              0040d805 f   LIBCMT:_file.obj
 0001:0000c841       __unlock_file2             0040d841 f   LIBCMT:_file.obj
 0001:0000c870       __stbuf                    0040d870 f   LIBCMT:_sftbuf.obj
 0001:0000c90c       __ftbuf                    0040d90c f   LIBCMT:_sftbuf.obj
 0001:0000c940       __SEH_prolog4              0040d940 f   LIBCMT:sehprolg4.obj
 0001:0000c985       __SEH_epilog4              0040d985 f   LIBCMT:sehprolg4.obj
 0001:0000c9a0       __except_handler4          0040d9a0 f   LIBCMT:chandler4.obj
 0001:0000cb2f       __close_nolock             0040db2f f   LIBCMT:close.obj
 0001:0000cbcb       __close                    0040dbcb f   LIBCMT:close.obj
 0001:0000cc8f       __fileno                   0040dc8f f   LIBCMT:fileno.obj
 0001:0000ccb5       __freebuf                  0040dcb5 f   LIBCMT:_freebuf.obj
 0001:0000cce6       __flush                    0040dce6 f   LIBCMT:fflush.obj
 0001:0000cd4e       __fflush_nolock            0040dd4e f   LIBCMT:fflush.obj
 0001:0000ce70       __flushall                 0040de70 f   LIBCMT:fflush.obj
 0001:0000ce79       __filbuf                   0040de79 f   LIBCMT:_filbuf.obj
 0001:0000cf9b       __read_nolock              0040df9b f   LIBCMT:read.obj
 0001:0000d552       __read                     0040e552 f   LIBCMT:read.obj
 0001:0000d648       _memcpy_s                  0040e648 f   LIBCMT:memcpy_s.obj
 0001:0000d6bd       __openfile                 0040e6bd f   LIBCMT:_open.obj
 0001:0000d954       __getstream                0040e954 f   LIBCMT:stream.obj
 0001:0000da90       __local_unwind4            0040ea90 f   LIBCMT:exsup4.obj
 0001:0000db66       __seh_longjmp_unwind4@4    0040eb66 f   LIBCMT:exsup4.obj
 0001:0000db82       @_EH4_CallFilterFunc@8     0040eb82 f   LIBCMT:exsup4.obj
 0001:0000db99       @_EH4_TransferToHandler@8  0040eb99 f   LIBCMT:exsup4.obj
 0001:0000dbb2       @_EH4_GlobalUnwind2@8      0040ebb2 f   LIBCMT:exsup4.obj
 0001:0000dbcb       @_EH4_LocalUnwind@16       0040ebcb f   LIBCMT:exsup4.obj
 0001:0000dbf0       _strlen                    0040ebf0 f   LIBCMT:strlen.obj
 0001:0000dc7b       __fullpath                 0040ec7b f   LIBCMT:fullpath.obj
 0001:0000dd72       ___dtoxmode                0040ed72 f   LIBCMT:stat.obj
 0001:0000de2f       __fstat64i32               0040ee2f f   LIBCMT:fstati32.obj
 0001:0000e8b5       __sopen_helper             0040f8b5 f   LIBCMT:open.obj
 0001:0000e979       __sopen_s                  0040f979 f   LIBCMT:open.obj
 0001:0000e999       ___loctotime64_t           0040f999 f   LIBCMT:dtoxtm64.obj
 0001:0000ec00       __getdrive                 0040fc00 f   LIBCMT:drive.obj
 0001:0000ecce       __mbctolower_l             0040fcce f   LIBCMT:mbtolwr.obj
 0001:0000ed74       __mbctolower               0040fd74 f   LIBCMT:mbtolwr.obj
 0001:0000ed87       __mbspbrk_l                0040fd87 f   LIBCMT:mbspbrk.obj
 0001:0000ee4c       __mbspbrk                  0040fe4c f   LIBCMT:mbspbrk.obj
 0001:0000ee63       @__security_check_cookie@4 0040fe63 f   LIBCMT:secchk.obj
 0001:0000ee80       __chkstk                   0040fe80 f   LIBCMT:chkstk.obj
 0001:0000ee80       __alloca_probe             0040fe80     LIBCMT:chkstk.obj
 0001:0000eeab       ?__CxxUnhandledExceptionFilter@@YGJPAU_EXCEPTION_POINTERS@@@Z 0040feab f   LIBCMT:unhandld.obj
 0001:0000eeed       ___CxxSetUnhandledExceptionFilter 0040feed f   LIBCMT:unhandld.obj
 0001:0000eefb       ___crtCorExitProcess       0040fefb f   LIBCMT:crt0dat.obj
 0001:0000ef26       ___crtExitProcess          0040ff26 f   LIBCMT:crt0dat.obj
 0001:0000ef3e       __lockexit                 0040ff3e f   LIBCMT:crt0dat.obj
 0001:0000ef47       __unlockexit               0040ff47 f   LIBCMT:crt0dat.obj
 0001:0000ef50       __init_pointers            0040ff50 f   LIBCMT:crt0dat.obj
 0001:0000ef83       __initterm_e               0040ff83 f   LIBCMT:crt0dat.obj
 0001:0000efa7       __cinit                    0040ffa7 f   LIBCMT:crt0dat.obj
 0001:0000f17e       _exit                      0041017e f   LIBCMT:crt0dat.obj
 0001:0000f194       __exit                     00410194 f   LIBCMT:crt0dat.obj
 0001:0000f1aa       __cexit                    004101aa f   LIBCMT:crt0dat.obj
 0001:0000f1b9       __c_exit                   004101b9 f   LIBCMT:crt0dat.obj
 0001:0000f1c8       __amsg_exit                004101c8 f   LIBCMT:crt0dat.obj
 0001:0000f1e6       __GET_RTERRMSG             004101e6 f   LIBCMT:crt0msg.obj
 0001:0000f20c       __NMSG_WRITE               0041020c f   LIBCMT:crt0msg.obj
 0001:0000f3bb       __FF_MSGBANNER             004103bb f   LIBCMT:crt0msg.obj
 0001:0000f3f4       __XcptFilter               004103f4 f   LIBCMT:winxfltr.obj
 0001:0000f53e       __setenvp                  0041053e f   LIBCMT:stdenvp.obj
 0001:0000f7b4       __setargv                  004107b4 f   LIBCMT:stdargv.obj
 0001:0000f86f       ___crtGetEnvironmentStringsA 0041086f f   LIBCMT:a_env.obj
 0001:0000f906       __ioinit                   00410906 f   LIBCMT:ioinit.obj
 0001:0000fb4b       __RTC_Initialize           00410b4b f   LIBCMT:_initsect_.obj
 0001:0000fb71       __RTC_Terminate            00410b71 f   LIBCMT:_initsect_.obj
 0001:0000fb97       __encoded_null             00410b97 f   LIBCMT:tidtable.obj
 0001:0000fba0       ___crtTlsAlloc@4           00410ba0 f   LIBCMT:tidtable.obj
 0001:0000fba9       ___set_flsgetvalue         00410ba9 f   LIBCMT:tidtable.obj
 0001:0000fbdd       __mtterm                   00410bdd f   LIBCMT:tidtable.obj
 0001:0000fc1a       __initptd                  00410c1a f   LIBCMT:tidtable.obj
 0001:0000fcce       __getptd_noexit            00410cce f   LIBCMT:tidtable.obj
 0001:0000fd47       __getptd                   00410d47 f   LIBCMT:tidtable.obj
 0001:0000fd61       __freefls@4                00410d61 f   LIBCMT:tidtable.obj
 0001:0000fe90       __mtinit                   00410e90 f   LIBCMT:tidtable.obj
 0001:0001000b       ___security_init_cookie    0041100b f   LIBCMT:gs_support.obj
 0001:000100a6       ?_Type_info_dtor@type_info@@CAXPAV1@@Z 004110a6 f   LIBCMT:typname.obj
 0001:00010120       _strcmp                    00411120 f   LIBCMT:strcmp.obj
 0001:000103cb       ___updatetmbcinfo          004113cb f   LIBCMT:mbctype.obj
 0001:000104eb       __setmbcp_nolock           004114eb f   LIBCMT:mbctype.obj
 0001:000106d4       __setmbcp                  004116d4 f   LIBCMT:mbctype.obj
 0001:0001086e       ___initmbctable            0041186e f   LIBCMT:mbctype.obj
 0001:0001088c       ___addlocaleref            0041188c f   LIBCMT:localref.obj
 0001:0001091b       ___removelocaleref         0041191b f   LIBCMT:localref.obj
 0001:000109b4       ___freetlocinfo            004119b4 f   LIBCMT:localref.obj
 0001:00010aff       __updatetlocinfoEx_nolock  00411aff f   LIBCMT:localref.obj
 0001:00010b4c       ___updatetlocinfo          00411b4c f   LIBCMT:localref.obj
 0001:00010bc5       __isctype_l                00411bc5 f   LIBCMT:isctype.obj
 0001:00010c80       __freea                    00411c80 f i LIBCMT:a_map.obj
 0001:00010e87       ___crtLCMapStringA         00411e87 f   LIBCMT:a_map.obj
 0001:00010ecd       __isleadbyte_l             00411ecd f i LIBCMT:_wctype.obj
 0001:00010f05       _isleadbyte                00411f05 f i LIBCMT:_wctype.obj
 0001:00010f18       __mtinitlocks              00411f18 f   LIBCMT:mlock.obj
 0001:00010f62       __mtdeletelocks            00411f62 f   LIBCMT:mlock.obj
 0001:00010fb9       __unlock                   00411fb9 f   LIBCMT:mlock.obj
 0001:00010fd0       __mtinitlocknum            00411fd0 f   LIBCMT:mlock.obj
 0001:00011092       __lock                     00412092 f   LIBCMT:mlock.obj
 0001:000110c5       ___libm_error_support      004120c5 f   LIBCMT:_libm_error_.obj
 0001:00011391       __sse2_mathfcns_init       00412391 f   LIBCMT:_mathfcns_.obj
 0001:000113a1       __ceil_default             004123a1 f   LIBCMT:_ceil_.obj
 0001:00011479       _abort                     00412479 f   LIBCMT:abort.obj
 0001:000114ac       __set_abort_behavior       004124ac f   LIBCMT:abort.obj
 0001:000114cd       __initp_misc_purevirt      004124cd f   LIBCMT:inithelp.obj
 0001:000114e0       __CIacos_pentium4          004124e0 f   LIBCMT:_acos_pentium4_.obj
 0001:000114f8       __acos_pentium4            004124f8     LIBCMT:_acos_pentium4_.obj
 0001:00011a40       __trandisp1                00412a40 f   LIBCMT:_87disp_.obj
 0001:00011aa7       __trandisp2                00412aa7 f   LIBCMT:_87disp_.obj
 0001:00011b33       __rttospopde               00412b33     LIBCMT:_87disp_.obj
 0001:00011b38       __rttospop                 00412b38     LIBCMT:_87disp_.obj
 0001:00011b3a       __rtnospop                 00412b3a     LIBCMT:_87disp_.obj
 0001:00011b3c       __rttosnpop                00412b3c     LIBCMT:_87disp_.obj
 0001:00011b3d       __rtnospopde               00412b3d     LIBCMT:_87disp_.obj
 0001:00011b44       __rtzeropop                00412b44     LIBCMT:_87disp_.obj
 0001:00011b46       __rtzeronpop               00412b46     LIBCMT:_87disp_.obj
 0001:00011b4b       __rtonepop                 00412b4b     LIBCMT:_87disp_.obj
 0001:00011b4d       __rtonenpop                00412b4d     LIBCMT:_87disp_.obj
 0001:00011b52       __tosnan1                  00412b52     LIBCMT:_87disp_.obj
 0001:00011b7d       __nosnan2                  00412b7d     LIBCMT:_87disp_.obj
 0001:00011b7f       __tosnan2                  00412b7f     LIBCMT:_87disp_.obj
 0001:00011ba7       __nan2                     00412ba7     LIBCMT:_87disp_.obj
 0001:00011be6       __rtindfpop                00412be6     LIBCMT:_87disp_.obj
 0001:00011be8       __rtindfnpop               00412be8     LIBCMT:_87disp_.obj
 0001:00011bf9       __rttosnpopde              00412bf9     LIBCMT:_87disp_.obj
 0001:00011c03       __rtchsifneg               00412c03     LIBCMT:_87disp_.obj
 0001:00011c10       __startTwoArgErrorHandling 00412c10 f   LIBCMT:_genexcep_.obj
 0001:00011c27       __startOneArgErrorHandling 00412c27 f   LIBCMT:_genexcep_.obj
 0001:00011c70       __twoToTOS                 00412c70 f   LIBCMT:_common_.obj
 0001:00011c85       __load_CW                  00412c85 f   LIBCMT:_common_.obj
 0001:00011c9c       __convertTOStoQNaN         00412c9c f   LIBCMT:_common_.obj
 0001:00011cb5       __fload_withFB             00412cb5 f   LIBCMT:_common_.obj
 0001:00011cf8       __checkTOS_withFB          00412cf8 f   LIBCMT:_common_.obj
 0001:00011d0e       __fast_exit                00412d0e f   LIBCMT:_common_.obj
 0001:00011d1b       __math_exit                00412d1b f   LIBCMT:_common_.obj
 0001:00011d45       __check_overflow_exit      00412d45 f   LIBCMT:_common_.obj
 0001:00011d59       __check_range_exit         00412d59 f   LIBCMT:_common_.obj
 0001:00011e10       __CIasin_pentium4          00412e10 f   LIBCMT:_asin_pentium4_.obj
 0001:00011e28       __asin_pentium4            00412e28     LIBCMT:_asin_pentium4_.obj
 0001:00012390       __cintrindisp2             00413390 f   LIBCMT:_87cdisp_.obj
 0001:000123ce       __cintrindisp1             004133ce f   LIBCMT:_87cdisp_.obj
 0001:0001240b       __ctrandisp2               0041340b f   LIBCMT:_87cdisp_.obj
 0001:0001259a       __ctrandisp1               0041359a f   LIBCMT:_87cdisp_.obj
 0001:000125cd       __fload                    004135cd f   LIBCMT:_87cdisp_.obj
 0001:00012610       __CIpow_pentium4           00413610 f   LIBCMT:_pow_pentium4_.obj
 0001:00012629       __pow_pentium4             00413629     LIBCMT:_pow_pentium4_.obj
 0001:00013181       __fFEXP                    00414181     LIBCMT:_87tran_.obj
 0001:000131d8       __rtinfpopse               004141d8     LIBCMT:_87tran_.obj
 0001:000131da       __rtinfnpopse              004141da     LIBCMT:_87tran_.obj
 0001:000131ea       __fFLN                     004141ea     LIBCMT:_87tran_.obj
 0001:0001329f       __rtinfpop                 0041429f     LIBCMT:_87tran_.obj
 0001:000132a1       __rtinfnpop                004142a1     LIBCMT:_87tran_.obj
 0001:000132be       __ffexpm1                  004142be     LIBCMT:_87tran_.obj
 0001:00013367       __d_inttype                00414367 f   LIBCMT:_powhlp_.obj
 0001:000133d1       __powhlp                   004143d1 f   LIBCMT:_powhlp_.obj
 0001:000134fc       __floor_default            004144fc f   LIBCMT:_floor_.obj
 0001:000135d4       __lseeki64_nolock          004145d4 f   LIBCMT:lseeki64.obj
 0001:00013659       __lseeki64                 00414659 f   LIBCMT:lseeki64.obj
 0001:00013743       __write_nolock             00414743 f   LIBCMT:write.obj
 0001:00013e40       __write                    00414e40 f   LIBCMT:write.obj
 0001:00013f14       __getbuf                   00414f14 f   LIBCMT:_getbuf.obj
 0001:00013f5d       __isatty                   00414f5d f   LIBCMT:isatty.obj
 0001:00013fb3       __wctomb_s_l               00414fb3 f   LIBCMT:wctomb.obj
 0001:00014108       _wctomb_s                  00415108 f   LIBCMT:wctomb.obj
 0001:00014130       __aulldvrm                 00415130 f   LIBCMT:ulldvrm.obj
 0001:000141c5       __crt_debugger_hook        004151c5 f   LIBCMT:dbghook.obj
 0001:000141cd       __atodbl_l                 004151cd f   LIBCMT:atodbl.obj
 0001:00014275       __atoflt_l                 00415275 f   LIBCMT:atodbl.obj
 0001:0001431d       _strcpy_s                  0041531d f   LIBCMT:strcpy_s.obj
 0001:0001437c       __fptostr                  0041537c f   LIBCMT:_fptostr.obj
 0001:0001442f       ___dtold                   0041542f f   LIBCMT:_cfout_.obj
 0001:000144e2       __fltout2                  004154e2 f   LIBCMT:_cfout_.obj
 0001:00014570       __alldvrm                  00415570 f   LIBCMT:lldvrm.obj
 0001:00014650       __aullshr                  00415650 f   LIBCMT:ullshr.obj
 0001:0001466f       __fptrap                   0041566f f   LIBCMT:crt0fp.obj
 0001:00014678       __controlfp_s              00415678 f   LIBCMT:_contrlfp_.obj
 0001:000146d7       __fcloseall                004156d7 f   LIBCMT:closeall.obj
 0001:00014780       __ValidateImageBase        00415780 f   LIBCMT:pesect.obj
 0001:000147c0       __FindPESection            004157c0 f   LIBCMT:pesect.obj
 0001:00014810       __IsNonwritableInCurrentImage 00415810 f   LIBCMT:pesect.obj
 0001:000148cc       __set_osfhnd               004158cc f   LIBCMT:osfinfo.obj
 0001:0001494d       __free_osfhnd              0041594d f   LIBCMT:osfinfo.obj
 0001:000149d3       __get_osfhandle            004159d3 f   LIBCMT:osfinfo.obj
 0001:00014a3c       ___lock_fhandle            00415a3c f   LIBCMT:osfinfo.obj
 0001:00014adb       __unlock_fhandle           00415adb f   LIBCMT:osfinfo.obj
 0001:00014b02       __alloc_osfhnd             00415b02 f   LIBCMT:osfinfo.obj
 0001:00014c9b       __commit                   00415c9b f   LIBCMT:commit.obj
 0001:00014d74       __mbsnbicmp_l              00415d74 f   LIBCMT:mbsnbicm.obj
 0001:00014f78       __mbsnbicmp                00415f78 f   LIBCMT:mbsnbicm.obj
 0001:00014f92       __mbsnbcmp_l               00415f92 f   LIBCMT:mbsnbcmp.obj
 0001:000150de       __mbsnbcmp                 004160de f   LIBCMT:mbsnbcmp.obj
 0001:00015100       __global_unwind2           00416100 f   LIBCMT:exsup.obj
 0001:00015165       __local_unwind2            00416165 f   LIBCMT:exsup.obj
 0001:000151e9       __abnormal_termination     004161e9 f   LIBCMT:exsup.obj
 0001:0001520c       __NLG_Notify1              0041620c f   LIBCMT:exsup.obj
 0001:00015215       __NLG_Notify               00416215 f   LIBCMT:exsup.obj
 0001:0001522c       __NLG_Dispatch             0041622c     LIBCMT:exsup.obj
 0001:0001522c       __NLG_Dispatch2            0041622c     LIBCMT:exsup.obj
 0001:00015234       __NLG_Call                 00416234 f   LIBCMT:exsup.obj
 0001:00015236       __NLG_Return2              00416236     LIBCMT:exsup.obj
 0001:00015237       __mbsicmp_l                00416237 f   LIBCMT:mbsicmp.obj
 0001:0001542e       __mbsicmp                  0041642e f   LIBCMT:mbsicmp.obj
 0001:00015445       __mbsrchr_l                00416445 f   LIBCMT:mbsrchr.obj
 0001:000154ef       __mbsrchr                  004164ef f   LIBCMT:mbsrchr.obj
 0001:00015510       __SEH_prolog4_GS           00416510 f   LIBCMT:sehprolg4gs.obj
 0001:00015558       __SEH_epilog4_GS           00416558 f   LIBCMT:sehprolg4gs.obj
 0001:00015567       __chsize_nolock            00416567 f   LIBCMT:chsize.obj
 0001:0001571d       __lseek_nolock             0041671d f   LIBCMT:lseek.obj
 0001:00015792       __setmode_nolock           00416792 f   LIBCMT:setmode.obj
 0001:0001584d       __get_fmode                0041684d f   LIBCMT:setmode.obj
 0001:00015f5b       ___tzset                   00416f5b f   LIBCMT:tzset.obj
 0001:00015faa       __isindst                  00416faa f   LIBCMT:tzset.obj
 0001:00015feb       __get_daylight             00416feb f   LIBCMT:timeset.obj
 0001:00016018       __get_dstbias              00417018 f   LIBCMT:timeset.obj
 0001:00016045       __get_timezone             00417045 f   LIBCMT:timeset.obj
 0001:00016072       ___daylight                00417072 f   LIBCMT:timeset.obj
 0001:00016078       ___dstbias                 00417078 f   LIBCMT:timeset.obj
 0001:0001607e       ___timezone                0041707e f   LIBCMT:timeset.obj
 0001:00016084       ___tzname                  00417084 f   LIBCMT:timeset.obj
 0001:00016090       _strpbrk                   00417090 f   LIBCMT:strpbrk.obj
 0001:000160d0       ___report_gsfailure        004170d0 f   LIBCMT:gs_report.obj
 0001:000161d6       ?terminate@@YAXXZ          004171d6 f   LIBCMT:hooks.obj
 0001:0001620f       ?unexpected@@YAXXZ         0041720f f   LIBCMT:hooks.obj
 0001:00016222       ?_inconsistency@@YAXXZ     00417222 f   LIBCMT:hooks.obj
 0001:0001625a       __initp_eh_hooks           0041725a f   LIBCMT:hooks.obj
 0001:0001626b       __initp_misc_winsig        0041726b f   LIBCMT:winsig.obj
 0001:000162c0       ___get_sigabrt             004172c0 f   LIBCMT:winsig.obj
 0001:000162cd       _raise                     004172cd f   LIBCMT:winsig.obj
 0001:00016470       __initp_misc_rand_s        00417470 f   LIBCMT:rand_s.obj
 0001:0001647f       __initp_heap_handler       0041747f f   LIBCMT:handler.obj
 0001:0001648e       ___crtMessageBoxW          0041748e f   LIBCMT:crtmboxw.obj
 0001:000165fa       _wcscat_s                  004175fa f   LIBCMT:wcscat_s.obj
 0001:0001666f       _wcsncpy_s                 0041766f f   LIBCMT:wcsncpy_s.obj
 0001:0001673c       _wcslen                    0041773c f   LIBCMT:wcslen.obj
 0001:00016757       _wcscpy_s                  00417757 f   LIBCMT:wcscpy_s.obj
 0001:000167ba       __set_error_mode           004177ba f   LIBCMT:errmode.obj
 0001:0001684c       __ismbblead                0041784c f   LIBCMT:ismbbyte.obj
 0001:0001694b       ___crtGetStringTypeA       0041794b f   LIBCMT:a_str.obj
 0001:0001698b       ___free_lc_time            0041798b f   LIBCMT:inittime.obj
 0001:00016d02       ___free_lconv_num          00417d02 f   LIBCMT:initnum.obj
 0001:00016d6b       ___free_lconv_mon          00417d6b f   LIBCMT:initmon.obj
 0001:00016e69       ____lc_codepage_func       00417e69 f   LIBCMT:initctyp.obj
 0001:00016e90       _strcspn                   00417e90 f   LIBCMT:strcspn.obj
 0001:00016ed6       _strncpy_s                 00417ed6 f   LIBCMT:strncpy_s.obj
 0001:00016f8b       _strncmp                   00417f8b f   LIBCMT:strncmp.obj
 0001:0001704b       __ld12tod                  0041804b f   LIBCMT:_intrncvt_.obj
 0001:0001759c       __ld12tof                  0041859c f   LIBCMT:_intrncvt_.obj
 0001:00017aed       ___strgtold12_l            00418aed f   LIBCMT:_strgtold_.obj
 0001:000181c9       __mbtowc_l                 004191c9 f   LIBCMT:mbtowc.obj
 0001:000182df       _mbtowc                    004192df f   LIBCMT:mbtowc.obj
 0001:000182f9       __matherr                  004192f9 f   LIBCMT:_matherr_.obj
 0001:000182fc       __raise_exc_ex             004192fc f   LIBCMT:_fpexcept_.obj
 0001:000185d8       __raise_exc                004195d8 f   LIBCMT:_fpexcept_.obj
 0001:000185fb       __handle_exc               004195fb f   LIBCMT:_fpexcept_.obj
 0001:000187df       __set_errno_from_matherr   004197df f   LIBCMT:_fpexcept_.obj
 0001:0001880c       __errcode                  0041980c f   LIBCMT:_fpexcept_.obj
 0001:00018840       __umatherr                 00419840 f   LIBCMT:_fpexcept_.obj
 0001:000188e0       __handle_qnan1             004198e0 f   LIBCMT:_fpexcept_.obj
 0001:00018935       __except1                  00419935 f   LIBCMT:_fpexcept_.obj
 0001:000189ff       __frnd                     004199ff f   LIBCMT:_frnd_.obj
 0001:00018a13       __set_exp                  00419a13 f   LIBCMT:_util_.obj
 0001:00018a40       __sptype                   00419a40 f   LIBCMT:_util_.obj
 0001:00018aa6       __decomp                   00419aa6 f   LIBCMT:_util_.obj
 0001:00018b69       __statfp                   00419b69 f   LIBCMT:_fpctrl_.obj
 0001:00018b79       __clrfp                    00419b79 f   LIBCMT:_fpctrl_.obj
 0001:00018b8a       __ctrlfp                   00419b8a f   LIBCMT:_fpctrl_.obj
 0001:00018bb5       __set_statfp               00419bb5 f   LIBCMT:_fpctrl_.obj
 0001:00018c0d       ___set_fpsr_sse2           00419c0d f   LIBCMT:_fpctrl_.obj
 0001:00018c7f       __87except                 00419c7f f   LIBCMT:_87except_.obj
 0001:00018dbe       __fpclass                  00419dbe f   LIBCMT:_ieeemisc_.obj
 0001:00018e5b       __putwch_nolock            00419e5b f   LIBCMT:putwch.obj
 0001:00018e9d       _$I10_OUTPUT               00419e9d f   LIBCMT:_x10fout_.obj
 0001:000198c3       __control87                0041a8c3 f i LIBCMT:_ieee87_.obj
 0001:00019bd5       __controlfp                0041abd5 f   LIBCMT:_ieee87_.obj
 0001:00019eea       __strnicmp_l               0041aeea f   LIBCMT:strnicmp.obj
 0001:00019fcc       __strnicmp                 0041afcc f   LIBCMT:strnicmp.obj
 0001:0001a01f       ___ascii_stricmp           0041b01f f   LIBCMT:stricmp.obj
 0001:0001a058       __stricmp_l                0041b058 f   LIBCMT:stricmp.obj
 0001:0001a118       _atol                      0041b118 f   LIBCMT:atox.obj
 0001:0001a12e       __getenv_helper_nolock     0041b12e f   LIBCMT:getenv.obj
 0001:0001a1b5       ___mtold12                 0041b1b5 f   LIBCMT:_mantold_.obj
 0001:0001a399       ___initconout              0041b399 f   LIBCMT:initcon.obj
 0001:0001a3b8       ___termconout              0041b3b8 f   LIBCMT:initcon.obj
 0001:0001a3d0       ___ascii_strnicmp          0041b3d0 f   LIBCMT:_strnicm.obj
 0001:0001a431       __mbsnbicoll_l             0041b431 f   LIBCMT:mbsnbico.obj
 0001:0001a50f       __mbsnbicoll               0041b50f f   LIBCMT:mbsnbico.obj
 0001:0001a529       ___wtomb_environ           0041b529 f   LIBCMT:wtombenv.obj
 0001:0001a82e       ___crtCompareStringA       0041b82e f   LIBCMT:a_cmp.obj
 0001:0001a870       __strnicoll_l              0041b870 f   LIBCMT:strnicol.obj
 0001:0001aa0c       ___crtsetenv               0041ba0c f   LIBCMT:setenv.obj
 0001:0001ac4e       __mbschr_l                 0041bc4e f   LIBCMT:mbschr.obj
 0001:0001acfe       __mbschr                   0041bcfe f   LIBCMT:mbschr.obj
 0001:0001ad16       _RtlUnwind@16              0041bd16 f   kernel32:KERNEL32.dll
 0001:0001ad20       ??4BGRA5551_t@@QAEAAU0@ABUBGRA8888_t@@@Z 0041bd20 f i bitmap:colorconversion.obj
 0001:0001ada0       ??4BGRA4444_t@@QAEAAU0@ABUBGRA8888_t@@@Z 0041bda0 f i bitmap:colorconversion.obj
 0001:0001ae20       ?ConvertFloatTo16bits@float16@@KAGM@Z 0041be20 f i bitmap:colorconversion.obj
 0001:0001af60       ?Convert16bitFloatTo32bits@float16@@KAMG@Z 0041bf60 f i bitmap:colorconversion.obj
 0001:0001b030       ?PixRGBAF_to_8@@YA?AUPixRGBA8@@ABUPixRGBAF@@@Z 0041c030 f i bitmap:colorconversion.obj
 0001:0001b3a0       ?ConvertToATIxN@ImageLoader@@YA_NPBEW4ImageFormat@@PAE1HHHH@Z 0041c3a0 f   bitmap:colorconversion.obj
 0001:0001b4b0       ?ConvertToDXT@ImageLoader@@YA_NPBEW4ImageFormat@@PAE1HHHH@Z 0041c4b0 f   bitmap:colorconversion.obj
 0001:0001b690       ?ConvertImageFormat_RGBA16161616_To_RGB323232F@ImageLoader@@YAXPAGPAMHH@Z 0041c690 f   bitmap:colorconversion.obj
 0001:0001b7f0       ?ConvertImageFormat_RGB323232F_To_RGBA16161616@ImageLoader@@YAXPAMPAGHH@Z 0041c7f0 f   bitmap:colorconversion.obj
 0001:0001b900       ?ConvertImageFormat_RGB323232F_To_RGBA8888@ImageLoader@@YAXPAMPAEHH@Z 0041c900 f   bitmap:colorconversion.obj
 0001:0001bbc0       ?ConvertImageFormat_RGB323232F_To_BGRA8888@ImageLoader@@YAXPAMPAEHH@Z 0041cbc0 f   bitmap:colorconversion.obj
 0001:0001be80       ?ConvertNormalMapRGBA8888ToDUDVMapUVWQ8888@ImageLoader@@YAXPBEHHPAE@Z 0041ce80 f   bitmap:colorconversion.obj
 0001:0001bee0       ?ConvertNormalMapRGBA8888ToDUDVMapUVLX8888@ImageLoader@@YAXPBEHHPAE@Z 0041cee0 f   bitmap:colorconversion.obj
 0001:0001bf30       ?ConvertNormalMapRGBA8888ToDUDVMapUV88@ImageLoader@@YAXPBEHHPAE@Z 0041cf30 f   bitmap:colorconversion.obj
 0001:0001bf70       ?NormalizeNormalMapRGBA8888@ImageLoader@@YAXPAEH@Z 0041cf70 f   bitmap:colorconversion.obj
 0001:0001c0a0       ?RotateImageLeft@ImageLoader@@YA_NPBEPAEHW4ImageFormat@@@Z 0041d0a0 f   bitmap:colorconversion.obj
 0001:0001c250       ?RotateImage180@ImageLoader@@YA_NPBEPAEHW4ImageFormat@@@Z 0041d250 f   bitmap:colorconversion.obj
 0001:0001c290       ?FlipImageVertically@ImageLoader@@YA_NPAX0HHW4ImageFormat@@H@Z 0041d290 f   bitmap:colorconversion.obj
 0001:0001c370       ?FlipImageHorizontally@ImageLoader@@YA_NPAX0HHW4ImageFormat@@H@Z 0041d370 f   bitmap:colorconversion.obj
 0001:0001e630       ?ConvertImageFormat_RGBA16161616F_To_RGB323232F@ImageLoader@@YAXPAVfloat16@@PAMHH@Z 0041f630 f   bitmap:colorconversion.obj
 0001:0001e690       ?ConvertImageFormat_RGBA16161616F_To_RGBA323232F@ImageLoader@@YAXPAVfloat16@@PAMHHI@Z 0041f690 f   bitmap:colorconversion.obj
 0001:0001e730       ?ConvertImageFormat_RGB323232F_To_RGBA16161616F@ImageLoader@@YAXPAMPAVfloat16@@HH@Z 0041f730 f   bitmap:colorconversion.obj
 0001:0001e790       ?ConvertImageFormat_RGBA16161616_To_RGBA16161616F@ImageLoader@@YAXPAGPAMHH@Z 0041f790 f   bitmap:colorconversion.obj
 0001:0001e850       ?ConvertImageFormat_RGBA16161616F_To_RGBA16161616@ImageLoader@@YAXPAVfloat16@@PAGHH@Z 0041f850 f   bitmap:colorconversion.obj
 0001:0001fd40       ?ConvertImageFormat@ImageLoader@@YA_NPBEW4ImageFormat@@PAE1HHHH@Z 00420d40 f   bitmap:colorconversion.obj
 0001:000204b0       ?ConstructGammaTable@ImageLoader@@YAXPAEMM@Z 004214b0 f   bitmap:resample.obj
 0001:00020520       ?GammaCorrectRGBA8888@ImageLoader@@YAXPAE0HHH0@Z 00421520 f   bitmap:resample.obj
 0001:00020600       ?GammaCorrectRGBA8888@ImageLoader@@YAXPAE0HHHMM@Z 00421600 f   bitmap:resample.obj
 0001:00020a60       ?ResampleRGBA8888@ImageLoader@@YA_NABUResampleInfo_t@1@@Z 00421a60 f   bitmap:resample.obj
 0001:00020e20       ?ResampleRGB323232F@ImageLoader@@YA_NABUResampleInfo_t@1@@Z 00421e20 f   bitmap:resample.obj
 0001:00020fc0       ?ComputeAveragedColor@?$CKernelWrapper@$0A@$0A@@ImageLoader@@SAXABUKernelInfo_t@2@ABUResampleInfo_t@2@HHHPAM2@Z 00421fc0 f i bitmap:resample.obj
 0001:00021190       ?ComputeAveragedColor@?$CKernelWrapper@$00$0A@@ImageLoader@@SAXABUKernelInfo_t@2@ABUResampleInfo_t@2@HHHPAM2@Z 00422190 f i bitmap:resample.obj
 0001:00021360       ?ComputeAveragedColor@?$CKernelWrapper@$01$0A@@ImageLoader@@SAXABUKernelInfo_t@2@ABUResampleInfo_t@2@HHHPAM2@Z 00422360 f i bitmap:resample.obj
 0001:00021510       ?AddAlphaToAlphaResult@?$CKernelWrapper@$01$0A@@ImageLoader@@SAXABUKernelInfo_t@2@ABUResampleInfo_t@2@HHHMPAM@Z 00422510 f i bitmap:resample.obj
 0001:00021650       ?AdjustAlphaChannel@?$CKernelWrapper@$01$0A@@ImageLoader@@SAXABUKernelInfo_t@2@ABUResampleInfo_t@2@HHHPAM@Z 00422650 f i bitmap:resample.obj
 0001:00021650       ?AdjustAlphaChannel@?$CKernelWrapper@$01$00@ImageLoader@@SAXABUKernelInfo_t@2@ABUResampleInfo_t@2@HHHPAM@Z 00422650 f i bitmap:resample.obj
 0001:00021ab0       ?ComputeAveragedColor@?$CKernelWrapper@$0A@$00@ImageLoader@@SAXABUKernelInfo_t@2@ABUResampleInfo_t@2@HHHPAM2@Z 00422ab0 f i bitmap:resample.obj
 0001:00021c90       ?ComputeAveragedColor@?$CKernelWrapper@$00$00@ImageLoader@@SAXABUKernelInfo_t@2@ABUResampleInfo_t@2@HHHPAM2@Z 00422c90 f i bitmap:resample.obj
 0001:00021e70       ?ComputeAveragedColor@?$CKernelWrapper@$01$00@ImageLoader@@SAXABUKernelInfo_t@2@ABUResampleInfo_t@2@HHHPAM2@Z 00422e70 f i bitmap:resample.obj
 0001:00022060       ?AddAlphaToAlphaResult@?$CKernelWrapper@$01$00@ImageLoader@@SAXABUKernelInfo_t@2@ABUResampleInfo_t@2@HHHMPAM@Z 00423060 f i bitmap:resample.obj
 0001:000221d0       ?ApplyKernel@?$CKernelWrapper@$0A@$0A@@ImageLoader@@SAXABUKernelInfo_t@2@ABUResampleInfo_t@2@HHHPAM2@Z 004231d0 f i bitmap:resample.obj
 0001:000223b0       ?ApplyKernel@?$CKernelWrapper@$00$0A@@ImageLoader@@SAXABUKernelInfo_t@2@ABUResampleInfo_t@2@HHHPAM2@Z 004233b0 f i bitmap:resample.obj
 0001:00022530       ?ApplyKernel@?$CKernelWrapper@$01$0A@@ImageLoader@@SAXABUKernelInfo_t@2@ABUResampleInfo_t@2@HHHPAM2@Z 00423530 f i bitmap:resample.obj
 0001:000227a0       ?ApplyKernel@?$CKernelWrapper@$0A@$00@ImageLoader@@SAXABUKernelInfo_t@2@ABUResampleInfo_t@2@HHHPAM2@Z 004237a0 f i bitmap:resample.obj
 0001:00022980       ?ApplyKernel@?$CKernelWrapper@$00$00@ImageLoader@@SAXABUKernelInfo_t@2@ABUResampleInfo_t@2@HHHPAM2@Z 00423980 f i bitmap:resample.obj
 0001:00022b00       ?ApplyKernel@?$CKernelWrapper@$01$00@ImageLoader@@SAXABUKernelInfo_t@2@ABUResampleInfo_t@2@HHHPAM2@Z 00423b00 f i bitmap:resample.obj
 0001:00022d70       ?GenerateMipmapLevels@ImageLoader@@YAXPAE0HHHW4ImageFormat@@MMH@Z 00423d70 f   bitmap:resample.obj
 0001:00022f10       ?GetProcessorCount@@YAKXZ  00423f10 f   bitmap:ATI_Compress.obj
 0001:00022f30       ?GetCodecType@@YA?AW4_CodecType@@W4ATI_TC_FORMAT@@@Z 00423f30 f   bitmap:ATI_Compress.obj
 0001:00022fe0       ?GetError@@YA?AW4ATI_TC_ERROR@@W4_CODECError@@@Z 00423fe0 f   bitmap:ATI_Compress.obj
 0001:00023010       ?CalcBufferSize@@YAKW4ATI_TC_FORMAT@@KKK@Z 00424010 f   bitmap:ATI_Compress.obj
 0001:000230a0       ?CompressTexture@@YA?AW4ATI_TC_ERROR@@PBU_ATI_TC_Texture@@PAU2@PBU_ATI_TC_CompressOptions@@P6A_NMKK@ZKKW4_CodecType@@@Z 004240a0 f   bitmap:ATI_Compress.obj
 0001:00023330       ??0CATICompressThreadData@@QAE@XZ 00424330 f   bitmap:ATI_Compress.obj
 0001:00023340       ??1CATICompressThreadData@@QAE@XZ 00424340 f   bitmap:ATI_Compress.obj
 0001:00023390       ?ThreadedCompressProc@@YGKPAX@Z 00424390 f   bitmap:ATI_Compress.obj
 0001:000233f0       ?ThreadedCompressTexture@@YA?AW4ATI_TC_ERROR@@PBU_ATI_TC_Texture@@PAU2@PBU_ATI_TC_CompressOptions@@P6A_NMKK@ZKKW4_CodecType@@@Z 004243f0 f   bitmap:ATI_Compress.obj
 0001:00023870       _ATI_TC_CalculateBufferSize 00424870 f   bitmap:ATI_Compress.obj
 0001:000238b0       ?CheckTexture@@YA?AW4ATI_TC_ERROR@@PBU_ATI_TC_Texture@@_N@Z 004248b0 f   bitmap:ATI_Compress.obj
 0001:00023930       _ATI_TC_ConvertTexture     00424930 f   bitmap:ATI_Compress.obj
 0001:00023e80       ?S3TCencode@@YAXPAU_DDSURFACEDESC@@PAUtagPALETTEENTRY@@0PAXIPAM@Z 00424e80 f   bitmap:S3_intrf.obj
 0001:00024ba0       ??0FloatBitMap_t@@QAE@HH@Z 00425ba0 f   bitmap:float_bm.obj
 0001:00024bf0       ??1FloatBitMap_t@@QAE@XZ   00425bf0 f   bitmap:float_bm.obj
 0001:00024c00       ?CompressTo8Bits@FloatBitMap_t@@QAEXM@Z 00425c00 f   bitmap:float_bm2.obj
 0001:00024ef0       ??0CCodec@ATI_Compress@@QAE@W4_CodecType@@@Z 00425ef0 f   bitmap:Codec.obj
 0001:00024f10       ??1CCodec@ATI_Compress@@UAE@XZ 00425f10 f   bitmap:Codec.obj
 0001:00024f20       ?SetParameter@CCodec@ATI_Compress@@UAE_NPBDK@Z 00425f20 f   bitmap:Codec.obj
 0001:00024f30       ?GetParameter@CCodec@ATI_Compress@@UAE_NPBDAAK@Z 00425f30 f   bitmap:Codec.obj
 0001:00024f40       ?SetParameter@CCodec@ATI_Compress@@UAE_NPBDM@Z 00425f40 f   bitmap:Codec.obj
 0001:00024f50       ?GetParameter@CCodec@ATI_Compress@@UAE_NPBDAAM@Z 00425f50 f   bitmap:Codec.obj
 0001:00024f60       ?SupportsSSE2@@YA_NXZ      00425f60 f   bitmap:Codec.obj
 0001:00024f70       ?CreateCodec@@YAPAVCCodec@ATI_Compress@@W4_CodecType@@@Z 00425f70 f   bitmap:Codec.obj
 0001:000252a0       ?CalcBufferSize@@YAKW4_CodecType@@KK@Z 004262a0 f   bitmap:Codec.obj
 0001:00025310       ?DeriveB@@YAEEE@Z          00426310 f   bitmap:Codec.obj
 0001:00025420       ?DeriveB@@YAMMM@Z          00426420 f   bitmap:Codec.obj
 0001:000254b0       ?GetType@CCodec@ATI_Compress@@UBE?AW4_CodecType@@XZ 004264b0 f i bitmap:Codec.obj
 0001:000254c0       ?GetBufferType@CCodecBuffer_RGBA8888@@UBE?BW4_CodecBufferType@@XZ 004264c0 f i bitmap:CodecBuffer_RGBA8888.obj
 0001:000254c0       ?GetBlockHeight@CCodec@ATI_Compress@@UAEKXZ 004264c0 f i bitmap:Codec.obj
 0001:000254d0       ??_ECCodec@ATI_Compress@@UAEPAXI@Z 004264d0 f i bitmap:Codec.obj
 0001:000254d0       ??_GCCodec@ATI_Compress@@UAEPAXI@Z 004264d0 f i bitmap:Codec.obj
 0001:000254f0       ??0half@@QAE@M@Z           004264f0 f i bitmap:CodecBuffer.obj
 0001:00025560       ?CreateCodecBuffer@@YAPAVCCodecBuffer@@W4_CodecBufferType@@KKKPAE@Z 00426560 f   bitmap:CodecBuffer.obj
 0001:00025790       ??0CCodecBuffer@@QAE@KKKPAE@Z 00426790 f   bitmap:CodecBuffer.obj
 0001:000257d0       ??1CCodecBuffer@@UAE@XZ    004267d0 f   bitmap:CodecBuffer.obj
 0001:00025800       ?Copy@CCodecBuffer@@UAEXAAV1@@Z 00426800 f   bitmap:CodecBuffer.obj
 0001:000258c0       ?WriteBlock@CCodecBuffer@@UAE_NKKPAKK@Z 004268c0 f   bitmap:CodecBuffer.obj
 0001:000258d0       ?ReadBlock@CCodecBuffer@@UAE_NKKPAKK@Z 004268d0 f   bitmap:CodecBuffer.obj
 0001:000258e0       ?ConvertBlock@CCodecBuffer@@IAEXQANQAMK@Z 004268e0 f   bitmap:CodecBuffer.obj
 0001:00025960       ?ConvertBlock@CCodecBuffer@@IAEXQANQAVhalf@@K@Z 00426960 f   bitmap:CodecBuffer.obj
 0001:00025a10       ?ConvertBlock@CCodecBuffer@@IAEXQANQAGK@Z 00426a10 f   bitmap:CodecBuffer.obj
 0001:00025ae0       ?ConvertBlock@CCodecBuffer@@IAEXQANQAEK@Z 00426ae0 f   bitmap:CodecBuffer.obj
 0001:00025ba0       ?ConvertBlock@CCodecBuffer@@IAEXQAMQANK@Z 00426ba0 f   bitmap:CodecBuffer.obj
 0001:00025c20       ?ConvertBlock@CCodecBuffer@@IAEXQAMQAVhalf@@K@Z 00426c20 f   bitmap:CodecBuffer.obj
 0001:00025cd0       ?ConvertBlock@CCodecBuffer@@IAEXQAMQAGK@Z 00426cd0 f   bitmap:CodecBuffer.obj
 0001:00025da0       ?ConvertBlock@CCodecBuffer@@IAEXQAMQAEK@Z 00426da0 f   bitmap:CodecBuffer.obj
 0001:00025e60       ?ConvertBlock@CCodecBuffer@@IAEXQAVhalf@@QANK@Z 00426e60 f   bitmap:CodecBuffer.obj
 0001:00025eb0       ?ConvertBlock@CCodecBuffer@@IAEXQAVhalf@@QAMK@Z 00426eb0 f   bitmap:CodecBuffer.obj
 0001:00025f00       ?ConvertBlock@CCodecBuffer@@IAEXQAVhalf@@QAGK@Z 00426f00 f   bitmap:CodecBuffer.obj
 0001:00025f60       ?ConvertBlock@CCodecBuffer@@IAEXQAVhalf@@QAEK@Z 00426f60 f   bitmap:CodecBuffer.obj
 0001:00025fc0       ?ConvertBlock@CCodecBuffer@@IAEXQAGQANK@Z 00426fc0 f   bitmap:CodecBuffer.obj
 0001:00026030       ?ConvertBlock@CCodecBuffer@@IAEXQAGQAMK@Z 00427030 f   bitmap:CodecBuffer.obj
 0001:000260a0       ?ConvertBlock@CCodecBuffer@@IAEXQAGQAVhalf@@K@Z 004270a0 f   bitmap:CodecBuffer.obj
 0001:00026110       ?ConvertBlock@CCodecBuffer@@IAEXQAGQAEK@Z 00427110 f   bitmap:CodecBuffer.obj
 0001:00026150       ?ConvertBlock@CCodecBuffer@@IAEXQAEQANK@Z 00427150 f   bitmap:CodecBuffer.obj
 0001:000261c0       ?ConvertBlock@CCodecBuffer@@IAEXQAEQAMK@Z 004271c0 f   bitmap:CodecBuffer.obj
 0001:00026230       ?ConvertBlock@CCodecBuffer@@IAEXQAEQAVhalf@@K@Z 00427230 f   bitmap:CodecBuffer.obj
 0001:000262b0       ?ConvertBlock@CCodecBuffer@@IAEXQAEQAGK@Z 004272b0 f   bitmap:CodecBuffer.obj
 0001:00026330       ?SwizzleBlock@CCodecBuffer@@IAEXQANK@Z 00427330 f   bitmap:CodecBuffer.obj
 0001:000263d0       ?SwizzleBlock@CCodecBuffer@@IAEXQAMK@Z 004273d0 f   bitmap:CodecBuffer.obj
 0001:00026490       ?SwizzleBlock@CCodecBuffer@@IAEXQAVhalf@@K@Z 00427490 f   bitmap:CodecBuffer.obj
 0001:000264d0       ?SwizzleBlock@CCodecBuffer@@IAEXQAGK@Z 004274d0 f   bitmap:CodecBuffer.obj
 0001:00026510       ?ReadBlockR@CCodecBuffer@@UAE_NKKEEQAE@Z 00427510 f   bitmap:CodecBuffer.obj
 0001:000266d0       ?ReadBlockG@CCodecBuffer@@UAE_NKKEEQAE@Z 004276d0 f   bitmap:CodecBuffer.obj
 0001:00026890       ?ReadBlockB@CCodecBuffer@@UAE_NKKEEQAE@Z 00427890 f   bitmap:CodecBuffer.obj
 0001:00026a50       ?ReadBlockA@CCodecBuffer@@UAE_NKKEEQAE@Z 00427a50 f   bitmap:CodecBuffer.obj
 0001:00026c10       ?ReadBlockR@CCodecBuffer@@UAE_NKKEEQAG@Z 00427c10 f   bitmap:CodecBuffer.obj
 0001:00026df0       ?ReadBlockG@CCodecBuffer@@UAE_NKKEEQAG@Z 00427df0 f   bitmap:CodecBuffer.obj
 0001:00026fd0       ?ReadBlockB@CCodecBuffer@@UAE_NKKEEQAG@Z 00427fd0 f   bitmap:CodecBuffer.obj
 0001:000271b0       ?ReadBlockA@CCodecBuffer@@UAE_NKKEEQAG@Z 004281b0 f   bitmap:CodecBuffer.obj
 0001:00027390       ?ReadBlockR@CCodecBuffer@@UAE_NKKEEQAVhalf@@@Z 00428390 f   bitmap:CodecBuffer.obj
 0001:00027590       ?ReadBlockG@CCodecBuffer@@UAE_NKKEEQAVhalf@@@Z 00428590 f   bitmap:CodecBuffer.obj
 0001:00027790       ?ReadBlockB@CCodecBuffer@@UAE_NKKEEQAVhalf@@@Z 00428790 f   bitmap:CodecBuffer.obj
 0001:00027990       ?ReadBlockA@CCodecBuffer@@UAE_NKKEEQAVhalf@@@Z 00428990 f   bitmap:CodecBuffer.obj
 0001:00027b90       ?ReadBlockR@CCodecBuffer@@UAE_NKKEEQAM@Z 00428b90 f   bitmap:CodecBuffer.obj
 0001:00027cf0       ?ReadBlockG@CCodecBuffer@@UAE_NKKEEQAM@Z 00428cf0 f   bitmap:CodecBuffer.obj
 0001:00027e50       ?ReadBlockB@CCodecBuffer@@UAE_NKKEEQAM@Z 00428e50 f   bitmap:CodecBuffer.obj
 0001:00027fb0       ?ReadBlockA@CCodecBuffer@@UAE_NKKEEQAM@Z 00428fb0 f   bitmap:CodecBuffer.obj
 0001:00028110       ?ReadBlockR@CCodecBuffer@@UAE_NKKEEQAN@Z 00429110 f   bitmap:CodecBuffer.obj
 0001:00028260       ?ReadBlockG@CCodecBuffer@@UAE_NKKEEQAN@Z 00429260 f   bitmap:CodecBuffer.obj
 0001:000283b0       ?ReadBlockB@CCodecBuffer@@UAE_NKKEEQAN@Z 004293b0 f   bitmap:CodecBuffer.obj
 0001:00028500       ?ReadBlockA@CCodecBuffer@@UAE_NKKEEQAN@Z 00429500 f   bitmap:CodecBuffer.obj
 0001:00028650       ?WriteBlockR@CCodecBuffer@@UAE_NKKEEQAE@Z 00429650 f   bitmap:CodecBuffer.obj
 0001:000287d0       ?WriteBlockG@CCodecBuffer@@UAE_NKKEEQAE@Z 004297d0 f   bitmap:CodecBuffer.obj
 0001:00028950       ?WriteBlockB@CCodecBuffer@@UAE_NKKEEQAE@Z 00429950 f   bitmap:CodecBuffer.obj
 0001:00028ae0       ?WriteBlockA@CCodecBuffer@@UAE_NKKEEQAE@Z 00429ae0 f   bitmap:CodecBuffer.obj
 0001:00028c70       ?WriteBlockR@CCodecBuffer@@UAE_NKKEEQAG@Z 00429c70 f   bitmap:CodecBuffer.obj
 0001:00028e00       ?WriteBlockG@CCodecBuffer@@UAE_NKKEEQAG@Z 00429e00 f   bitmap:CodecBuffer.obj
 0001:00028f90       ?WriteBlockB@CCodecBuffer@@UAE_NKKEEQAG@Z 00429f90 f   bitmap:CodecBuffer.obj
 0001:00029130       ?WriteBlockA@CCodecBuffer@@UAE_NKKEEQAG@Z 0042a130 f   bitmap:CodecBuffer.obj
 0001:000292d0       ?WriteBlockR@CCodecBuffer@@UAE_NKKEEQAVhalf@@@Z 0042a2d0 f   bitmap:CodecBuffer.obj
 0001:00029410       ?WriteBlockG@CCodecBuffer@@UAE_NKKEEQAVhalf@@@Z 0042a410 f   bitmap:CodecBuffer.obj
 0001:00029550       ?WriteBlockB@CCodecBuffer@@UAE_NKKEEQAVhalf@@@Z 0042a550 f   bitmap:CodecBuffer.obj
 0001:00029690       ?WriteBlockA@CCodecBuffer@@UAE_NKKEEQAVhalf@@@Z 0042a690 f   bitmap:CodecBuffer.obj
 0001:000297d0       ?WriteBlockR@CCodecBuffer@@UAE_NKKEEQAM@Z 0042a7d0 f   bitmap:CodecBuffer.obj
 0001:000299c0       ?WriteBlockG@CCodecBuffer@@UAE_NKKEEQAM@Z 0042a9c0 f   bitmap:CodecBuffer.obj
 0001:00029bc0       ?WriteBlockB@CCodecBuffer@@UAE_NKKEEQAM@Z 0042abc0 f   bitmap:CodecBuffer.obj
 0001:00029dc0       ?WriteBlockA@CCodecBuffer@@UAE_NKKEEQAM@Z 0042adc0 f   bitmap:CodecBuffer.obj
 0001:00029fc0       ?WriteBlockR@CCodecBuffer@@UAE_NKKEEQAN@Z 0042afc0 f   bitmap:CodecBuffer.obj
 0001:0002a1a0       ?WriteBlockG@CCodecBuffer@@UAE_NKKEEQAN@Z 0042b1a0 f   bitmap:CodecBuffer.obj
 0001:0002a380       ?WriteBlockB@CCodecBuffer@@UAE_NKKEEQAN@Z 0042b380 f   bitmap:CodecBuffer.obj
 0001:0002a570       ?WriteBlockA@CCodecBuffer@@UAE_NKKEEQAN@Z 0042b570 f   bitmap:CodecBuffer.obj
 0001:0002a760       ?WriteBlockRGBA@CCodecBuffer@@UAE_NKKEEQAK@Z 0042b760 f   bitmap:CodecBuffer.obj
 0001:0002a950       ?ReadBlockRGBA@CCodecBuffer@@UAE_NKKEEQAK@Z 0042b950 f   bitmap:CodecBuffer.obj
 0001:0002ab50       ?WriteBlockRGBA@CCodecBuffer@@UAE_NKKEEQAG@Z 0042bb50 f   bitmap:CodecBuffer.obj
 0001:0002ace0       ?ReadBlockRGBA@CCodecBuffer@@UAE_NKKEEQAG@Z 0042bce0 f   bitmap:CodecBuffer.obj
 0001:0002aea0       ?WriteBlockRGBA@CCodecBuffer@@UAE_NKKEEQAVhalf@@@Z 0042bea0 f   bitmap:CodecBuffer.obj
 0001:0002b030       ?ReadBlockRGBA@CCodecBuffer@@UAE_NKKEEQAVhalf@@@Z 0042c030 f   bitmap:CodecBuffer.obj
 0001:0002b1f0       ?WriteBlockRGBA@CCodecBuffer@@UAE_NKKEEQAM@Z 0042c1f0 f   bitmap:CodecBuffer.obj
 0001:0002b380       ?ReadBlockRGBA@CCodecBuffer@@UAE_NKKEEQAM@Z 0042c380 f   bitmap:CodecBuffer.obj
 0001:0002b540       ?WriteBlockRGBA@CCodecBuffer@@UAE_NKKEEQAN@Z 0042c540 f   bitmap:CodecBuffer.obj
 0001:0002b6d0       ?ReadBlockRGBA@CCodecBuffer@@UAE_NKKEEQAN@Z 0042c6d0 f   bitmap:CodecBuffer.obj
 0001:0002b890       ?GetBufferType@CCodecBuffer@@UBE?BW4_CodecBufferType@@XZ 0042c890 f i bitmap:CodecBuffer.obj
 0001:0002b8a0       ??_ECCodecBuffer@@UAEPAXI@Z 0042c8a0 f i bitmap:CodecBuffer.obj
 0001:0002b8a0       ??_GCCodecBuffer@@UAEPAXI@Z 0042c8a0 f i bitmap:CodecBuffer.obj
 0001:0002b8e0       _CodeRGBBlock              0042c8e0 f   bitmap:S3_quant.obj
 0001:0002e900       _CodeAlphaBlock            0042f900 f   bitmap:S3_quant.obj
 0001:0002f6b0       ??0CCodec_ATI2N_DXT5@@QAE@XZ 004306b0 f   bitmap:Codec_ATI2N_DXT5.obj
 0001:0002f6d0       ??1CCodec_ATI2N_DXT5@@UAE@XZ 004306d0 f   bitmap:Codec_ATI2N_DXT5.obj
 0001:0002f6e0       ?Compress@CCodec_ATI2N_DXT5@@UAE?AW4_CODECError@@AAVCCodecBuffer@@0P6A_NMKK@ZKK@Z 004306e0 f   bitmap:Codec_ATI2N_DXT5.obj
 0001:0002f970       ?Decompress@CCodec_ATI2N_DXT5@@UAE?AW4_CODECError@@AAVCCodecBuffer@@0@Z 00430970 f   bitmap:Codec_ATI2N_DXT5.obj
 0001:0002fb60       ??_GCCodec_ATI2N_DXT5@@UAEPAXI@Z 00430b60 f i bitmap:Codec_ATI2N_DXT5.obj
 0001:0002fb60       ??_ECCodec_ATI2N_DXT5@@UAEPAXI@Z 00430b60 f i bitmap:Codec_ATI2N_DXT5.obj
 0001:0002fb90       ??0CCodec_ATI2N@@QAE@W4_CodecType@@@Z 00430b90 f   bitmap:Codec_ATI2N.obj
 0001:0002fbb0       ??1CCodec_ATI2N@@UAE@XZ    00430bb0 f   bitmap:Codec_ATI2N.obj
 0001:0002fbc0       ?Compress@CCodec_ATI2N@@UAE?AW4_CODECError@@AAVCCodecBuffer@@0P6A_NMKK@ZKK@Z 00430bc0 f   bitmap:Codec_ATI2N.obj
 0001:0002fe30       ?Decompress@CCodec_ATI2N@@UAE?AW4_CODECError@@AAVCCodecBuffer@@0@Z 00430e30 f   bitmap:Codec_ATI2N.obj
 0001:00030100       ?DeriveBlockB@CCodec_ATI2N@@MAEXQAE00@Z 00431100 f   bitmap:Codec_ATI2N.obj
 0001:00030150       ?DeriveBlockB@CCodec_ATI2N@@MAEXQAM00@Z 00431150 f   bitmap:Codec_ATI2N.obj
 0001:000301a0       ??_ECCodec_ATI2N@@UAEPAXI@Z 004311a0 f i bitmap:Codec_ATI2N.obj
 0001:000301a0       ??_GCCodec_ATI2N@@UAEPAXI@Z 004311a0 f i bitmap:Codec_ATI2N.obj
 0001:000301d0       ??0CCodec_ATI1N@@QAE@W4_CodecType@@@Z 004311d0 f   bitmap:Codec_ATI1N.obj
 0001:000301f0       ??1CCodec_ATI1N@@UAE@XZ    004311f0 f   bitmap:Codec_ATI1N.obj
 0001:00030200       ?CreateBuffer@CCodec_ATI1N@@UBEPAVCCodecBuffer@@KKKPAE@Z 00431200 f   bitmap:Codec_ATI1N.obj
 0001:00030230       ?Compress@CCodec_ATI1N@@UAE?AW4_CODECError@@AAVCCodecBuffer@@0P6A_NMKK@ZKK@Z 00431230 f   bitmap:Codec_ATI1N.obj
 0001:00030420       ?Decompress@CCodec_ATI1N@@UAE?AW4_CODECError@@AAVCCodecBuffer@@0@Z 00431420 f   bitmap:Codec_ATI1N.obj
 0001:00030600       ??_ECCodec_ATI1N@@UAEPAXI@Z 00431600 f i bitmap:Codec_ATI1N.obj
 0001:00030600       ??_GCCodec_ATI1N@@UAEPAXI@Z 00431600 f i bitmap:Codec_ATI1N.obj
 0001:00030630       ??0CCodec_DXT5_xGxR@@QAE@XZ 00431630 f   bitmap:Codec_DXT5_xGxR.obj
 0001:00030650       ??1CCodec_DXT5_xGxR@@UAE@XZ 00431650 f   bitmap:Codec_DXT5_xGxR.obj
 0001:00030660       ?ReadBlock@CCodec_DXT5_xGxR@@MAEXAAVCCodecBuffer@@KKQAK@Z 00431660 f   bitmap:Codec_DXT5_xGxR.obj
 0001:00030720       ?WriteBlock@CCodec_DXT5_xGxR@@MAEXAAVCCodecBuffer@@KKQAK@Z 00431720 f   bitmap:Codec_DXT5_xGxR.obj
 0001:000307e0       ?ReadBlock@CCodec_DXT5_xGxR@@MAEXAAVCCodecBuffer@@KKQAM@Z 004317e0 f   bitmap:Codec_DXT5_xGxR.obj
 0001:00030850       ?WriteBlock@CCodec_DXT5_xGxR@@MAEXAAVCCodecBuffer@@KKQAM@Z 00431850 f   bitmap:Codec_DXT5_xGxR.obj
 0001:000308d0       ??_ECCodec_DXT5_xGxR@@UAEPAXI@Z 004318d0 f i bitmap:Codec_DXT5_xGxR.obj
 0001:000308d0       ??_GCCodec_DXT5_xGxR@@UAEPAXI@Z 004318d0 f i bitmap:Codec_DXT5_xGxR.obj
 0001:00030900       ??0CCodec_DXT5_RGxB@@QAE@XZ 00431900 f   bitmap:Codec_DXT5_RGxB.obj
 0001:00030920       ??1CCodec_DXT5_RGxB@@UAE@XZ 00431920 f   bitmap:Codec_DXT5_RGxB.obj
 0001:00030930       ?ReadBlock@CCodec_DXT5_RGxB@@MAEXAAVCCodecBuffer@@KKQAK@Z 00431930 f   bitmap:Codec_DXT5_RGxB.obj
 0001:00030a30       ?WriteBlock@CCodec_DXT5_RGxB@@MAEXAAVCCodecBuffer@@KKQAK@Z 00431a30 f   bitmap:Codec_DXT5_RGxB.obj
 0001:00030b10       ?ReadBlock@CCodec_DXT5_RGxB@@MAEXAAVCCodecBuffer@@KKQAM@Z 00431b10 f   bitmap:Codec_DXT5_RGxB.obj
 0001:00030b90       ?WriteBlock@CCodec_DXT5_RGxB@@MAEXAAVCCodecBuffer@@KKQAM@Z 00431b90 f   bitmap:Codec_DXT5_RGxB.obj
 0001:00030c20       ??_GCCodec_DXT5_RGxB@@UAEPAXI@Z 00431c20 f i bitmap:Codec_DXT5_RGxB.obj
 0001:00030c20       ??_ECCodec_DXT5_RGxB@@UAEPAXI@Z 00431c20 f i bitmap:Codec_DXT5_RGxB.obj
 0001:00030c50       ??0CCodec_DXT5_xRBG@@QAE@XZ 00431c50 f   bitmap:Codec_DXT5_xRBG.obj
 0001:00030c70       ??1CCodec_DXT5_xRBG@@UAE@XZ 00431c70 f   bitmap:Codec_DXT5_xRBG.obj
 0001:00030c80       ?ReadBlock@CCodec_DXT5_xRBG@@MAEXAAVCCodecBuffer@@KKQAK@Z 00431c80 f   bitmap:Codec_DXT5_xRBG.obj
 0001:00030d70       ?WriteBlock@CCodec_DXT5_xRBG@@MAEXAAVCCodecBuffer@@KKQAK@Z 00431d70 f   bitmap:Codec_DXT5_xRBG.obj
 0001:00030e50       ?ReadBlock@CCodec_DXT5_xRBG@@MAEXAAVCCodecBuffer@@KKQAM@Z 00431e50 f   bitmap:Codec_DXT5_xRBG.obj
 0001:00030ed0       ?WriteBlock@CCodec_DXT5_xRBG@@MAEXAAVCCodecBuffer@@KKQAM@Z 00431ed0 f   bitmap:Codec_DXT5_xRBG.obj
 0001:00030f50       ?SetParameter@CCodec_DXT5_xRBG@@UAE_NPBDM@Z 00431f50 f   bitmap:Codec_DXT5_xRBG.obj
 0001:00030fe0       ?GetParameter@CCodec_DXT5_xRBG@@UAE_NPBDAAM@Z 00431fe0 f   bitmap:Codec_DXT5_xRBG.obj
 0001:00031060       ??_ECCodec_DXT5_xRBG@@UAEPAXI@Z 00432060 f i bitmap:Codec_DXT5_xRBG.obj
 0001:00031060       ??_GCCodec_DXT5_xRBG@@UAEPAXI@Z 00432060 f i bitmap:Codec_DXT5_xRBG.obj
 0001:00031090       ??0CCodec_DXT5_RBxG@@QAE@XZ 00432090 f   bitmap:Codec_DXT5_RBxG.obj
 0001:000310b0       ??1CCodec_DXT5_RBxG@@UAE@XZ 004320b0 f   bitmap:Codec_DXT5_RBxG.obj
 0001:000310c0       ?ReadBlock@CCodec_DXT5_RBxG@@MAEXAAVCCodecBuffer@@KKQAK@Z 004320c0 f   bitmap:Codec_DXT5_RBxG.obj
 0001:000311b0       ?WriteBlock@CCodec_DXT5_RBxG@@MAEXAAVCCodecBuffer@@KKQAK@Z 004321b0 f   bitmap:Codec_DXT5_RBxG.obj
 0001:00031290       ?ReadBlock@CCodec_DXT5_RBxG@@MAEXAAVCCodecBuffer@@KKQAM@Z 00432290 f   bitmap:Codec_DXT5_RBxG.obj
 0001:00031310       ?WriteBlock@CCodec_DXT5_RBxG@@MAEXAAVCCodecBuffer@@KKQAM@Z 00432310 f   bitmap:Codec_DXT5_RBxG.obj
 0001:00031390       ?SetParameter@CCodec_DXT5_RBxG@@UAE_NPBDM@Z 00432390 f   bitmap:Codec_DXT5_RBxG.obj
 0001:00031420       ?GetParameter@CCodec_DXT5_RBxG@@UAE_NPBDAAM@Z 00432420 f   bitmap:Codec_DXT5_RBxG.obj
 0001:000314a0       ??_GCCodec_DXT5_RBxG@@UAEPAXI@Z 004324a0 f i bitmap:Codec_DXT5_RBxG.obj
 0001:000314a0       ??_ECCodec_DXT5_RBxG@@UAEPAXI@Z 004324a0 f i bitmap:Codec_DXT5_RBxG.obj
 0001:000314d0       ??0CCodec_DXT5_RxBG@@QAE@XZ 004324d0 f   bitmap:Codec_DXT5_RxBG.obj
 0001:000314f0       ??1CCodec_DXT5_RxBG@@UAE@XZ 004324f0 f   bitmap:Codec_DXT5_RxBG.obj
 0001:00031500       ?ReadBlock@CCodec_DXT5_RxBG@@MAEXAAVCCodecBuffer@@KKQAK@Z 00432500 f   bitmap:Codec_DXT5_RxBG.obj
 0001:000315e0       ?WriteBlock@CCodec_DXT5_RxBG@@MAEXAAVCCodecBuffer@@KKQAK@Z 004325e0 f   bitmap:Codec_DXT5_RxBG.obj
 0001:000316c0       ?ReadBlock@CCodec_DXT5_RxBG@@MAEXAAVCCodecBuffer@@KKQAM@Z 004326c0 f   bitmap:Codec_DXT5_RxBG.obj
 0001:00031740       ?WriteBlock@CCodec_DXT5_RxBG@@MAEXAAVCCodecBuffer@@KKQAM@Z 00432740 f   bitmap:Codec_DXT5_RxBG.obj
 0001:000317c0       ??_GCCodec_DXT5_RxBG@@UAEPAXI@Z 004327c0 f i bitmap:Codec_DXT5_RxBG.obj
 0001:000317c0       ??_ECCodec_DXT5_RxBG@@UAEPAXI@Z 004327c0 f i bitmap:Codec_DXT5_RxBG.obj
 0001:000317f0       ??0CCodec_DXT5_xGBR@@QAE@XZ 004327f0 f   bitmap:Codec_DXT5_xGBR.obj
 0001:00031810       ??1CCodec_DXT5_xGBR@@UAE@XZ 00432810 f   bitmap:Codec_DXT5_xGBR.obj
 0001:00031820       ?ReadBlock@CCodec_DXT5_xGBR@@MAEXAAVCCodecBuffer@@KKQAK@Z 00432820 f   bitmap:Codec_DXT5_xGBR.obj
 0001:00031910       ?WriteBlock@CCodec_DXT5_xGBR@@MAEXAAVCCodecBuffer@@KKQAK@Z 00432910 f   bitmap:Codec_DXT5_xGBR.obj
 0001:000319f0       ?ReadBlock@CCodec_DXT5_xGBR@@MAEXAAVCCodecBuffer@@KKQAM@Z 004329f0 f   bitmap:Codec_DXT5_xGBR.obj
 0001:00031a70       ?WriteBlock@CCodec_DXT5_xGBR@@MAEXAAVCCodecBuffer@@KKQAM@Z 00432a70 f   bitmap:Codec_DXT5_xGBR.obj
 0001:00031b00       ??_GCCodec_DXT5_xGBR@@UAEPAXI@Z 00432b00 f i bitmap:Codec_DXT5_xGBR.obj
 0001:00031b00       ??_ECCodec_DXT5_xGBR@@UAEPAXI@Z 00432b00 f i bitmap:Codec_DXT5_xGBR.obj
 0001:00031b30       ??0CCodec_DXT5@@QAE@XZ     00432b30 f   bitmap:Codec_DXT5.obj
 0001:00031b50       ??1CCodec_DXT5@@UAE@XZ     00432b50 f   bitmap:Codec_DXT5.obj
 0001:00031b60       ?Compress@CCodec_DXT5@@UAE?AW4_CODECError@@AAVCCodecBuffer@@0P6A_NMKK@ZKK@Z 00432b60 f   bitmap:Codec_DXT5.obj
 0001:00031d40       ?Decompress@CCodec_DXT5@@UAE?AW4_CODECError@@AAVCCodecBuffer@@0@Z 00432d40 f   bitmap:Codec_DXT5.obj
 0001:00031e80       ??_ECCodec_DXT5@@UAEPAXI@Z 00432e80 f i bitmap:Codec_DXT5.obj
 0001:00031e80       ??_GCCodec_DXT5@@UAEPAXI@Z 00432e80 f i bitmap:Codec_DXT5.obj
 0001:00031eb0       ??0CCodec_DXT3@@QAE@XZ     00432eb0 f   bitmap:Codec_DXT3.obj
 0001:00031ed0       ??1CCodec_DXT3@@UAE@XZ     00432ed0 f   bitmap:Codec_DXT3.obj
 0001:00031ee0       ?Compress@CCodec_DXT3@@UAE?AW4_CODECError@@AAVCCodecBuffer@@0P6A_NMKK@ZKK@Z 00432ee0 f   bitmap:Codec_DXT3.obj
 0001:000320c0       ?Decompress@CCodec_DXT3@@UAE?AW4_CODECError@@AAVCCodecBuffer@@0@Z 004330c0 f   bitmap:Codec_DXT3.obj
 0001:00032200       ??_ECCodec_DXT3@@UAEPAXI@Z 00433200 f i bitmap:Codec_DXT3.obj
 0001:00032200       ??_GCCodec_DXT3@@UAEPAXI@Z 00433200 f i bitmap:Codec_DXT3.obj
 0001:00032230       ??0CCodec_DXT1@@QAE@XZ     00433230 f   bitmap:Codec_DXT1.obj
 0001:00032250       ??1CCodec_DXT1@@UAE@XZ     00433250 f   bitmap:Codec_DXT1.obj
 0001:00032260       ?CreateBuffer@CCodec_DXT1@@UBEPAVCCodecBuffer@@KKKPAE@Z 00433260 f   bitmap:Codec_DXT1.obj
 0001:00032290       ?Compress@CCodec_DXT1@@UAE?AW4_CODECError@@AAVCCodecBuffer@@0P6A_NMKK@ZKK@Z 00433290 f   bitmap:Codec_DXT1.obj
 0001:000324b0       ?Decompress@CCodec_DXT1@@UAE?AW4_CODECError@@AAVCCodecBuffer@@0@Z 004334b0 f   bitmap:Codec_DXT1.obj
 0001:000325f0       ?SetParameter@CCodec_DXT1@@UAE_NPBDK@Z 004335f0 f   bitmap:Codec_DXT1.obj
 0001:00032650       ?GetParameter@CCodec_DXT1@@UAE_NPBDAAK@Z 00433650 f   bitmap:Codec_DXT1.obj
 0001:000326c0       ??_ECCodec_DXT1@@UAEPAXI@Z 004336c0 f i bitmap:Codec_DXT1.obj
 0001:000326c0       ??_GCCodec_DXT1@@UAEPAXI@Z 004336c0 f i bitmap:Codec_DXT1.obj
 0001:000326f0       ?overflow@half@@CAMXZ      004336f0 f   bitmap:half.obj
 0001:00032720       ?convert@half@@CAFH@Z      00433720 f   bitmap:half.obj
 0001:000327e0       ??0CCodecBuffer_Block@@QAE@W4_CodecBufferType@@KKKPAE@Z 004337e0 f   bitmap:CodecBuffer_Block.obj
 0001:00032900       ??1CCodecBuffer_Block@@UAE@XZ 00433900 f   bitmap:CodecBuffer_Block.obj
 0001:00032910       ?ReadBlock@CCodecBuffer_Block@@UAE_NKKPAKK@Z 00433910 f   bitmap:CodecBuffer_Block.obj
 0001:00032980       ?WriteBlock@CCodecBuffer_Block@@UAE_NKKPAKK@Z 00433980 f   bitmap:CodecBuffer_Block.obj
 0001:000329f0       ?GetBufferType@CCodecBuffer_Block@@UBE?BW4_CodecBufferType@@XZ 004339f0 f i bitmap:CodecBuffer_Block.obj
 0001:000329f0       ?MipCount@CVTFTexture@@UBEHXZ 004339f0 f i vtf:vtf.obj
 0001:00032a00       ??_ECCodecBuffer_Block@@UAEPAXI@Z 00433a00 f i bitmap:CodecBuffer_Block.obj
 0001:00032a00       ??_GCCodecBuffer_Block@@UAEPAXI@Z 00433a00 f i bitmap:CodecBuffer_Block.obj
 0001:00032a30       ??0CCodecBuffer_RGBA32F@@QAE@KKKPAE@Z 00433a30 f   bitmap:CodecBuffer_RGBA32F.obj
 0001:00032a90       ??1CCodecBuffer_RGBA32F@@UAE@XZ 00433a90 f   bitmap:CodecBuffer_RGBA32F.obj
 0001:00032aa0       ?Copy@CCodecBuffer_RGBA32F@@UAEXAAVCCodecBuffer@@@Z 00433aa0 f   bitmap:CodecBuffer_RGBA32F.obj
 0001:00032b60       ?WriteBlock@CCodecBuffer_RGBA32F@@MAE_NKKEEQAMK@Z 00433b60 f   bitmap:CodecBuffer_RGBA32F.obj
 0001:00032cd0       ?ReadBlockA@CCodecBuffer_RGBA32F@@UAE_NKKEEQAM@Z 00433cd0 f   bitmap:CodecBuffer_RGBA32F.obj
 0001:00032d00       ?ReadBlockR@CCodecBuffer_RGBA32F@@UAE_NKKEEQAM@Z 00433d00 f   bitmap:CodecBuffer_RGBA32F.obj
 0001:00032d30       ?ReadBlockG@CCodecBuffer_RGBA32F@@UAE_NKKEEQAM@Z 00433d30 f   bitmap:CodecBuffer_RGBA32F.obj
 0001:00032d60       ?ReadBlockB@CCodecBuffer_RGBA32F@@UAE_NKKEEQAM@Z 00433d60 f   bitmap:CodecBuffer_RGBA32F.obj
 0001:00032d90       ?WriteBlockA@CCodecBuffer_RGBA32F@@UAE_NKKEEQAM@Z 00433d90 f   bitmap:CodecBuffer_RGBA32F.obj
 0001:00032dc0       ?WriteBlockR@CCodecBuffer_RGBA32F@@UAE_NKKEEQAM@Z 00433dc0 f   bitmap:CodecBuffer_RGBA32F.obj
 0001:00032df0       ?WriteBlockG@CCodecBuffer_RGBA32F@@UAE_NKKEEQAM@Z 00433df0 f   bitmap:CodecBuffer_RGBA32F.obj
 0001:00032e20       ?WriteBlockB@CCodecBuffer_RGBA32F@@UAE_NKKEEQAM@Z 00433e20 f   bitmap:CodecBuffer_RGBA32F.obj
 0001:00032e50       ?WriteBlockRGBA@CCodecBuffer_RGBA32F@@UAE_NKKEEQAM@Z 00433e50 f   bitmap:CodecBuffer_RGBA32F.obj
 0001:00032ef0       ?ReadBlock@CCodecBuffer_RGBA32F@@MAE_NKKEEQAMK@Z 00433ef0 f   bitmap:CodecBuffer_RGBA32F.obj
 0001:00033110       ?ReadBlockRGBA@CCodecBuffer_RGBA32F@@UAE_NKKEEQAM@Z 00434110 f   bitmap:CodecBuffer_RGBA32F.obj
 0001:00033270       ?GetBufferType@CCodecBuffer_RGBA32F@@UBE?BW4_CodecBufferType@@XZ 00434270 f i bitmap:CodecBuffer_RGBA32F.obj
 0001:00033280       ??$PadLine@M@@YAXKEQAM@Z   00434280 f i bitmap:CodecBuffer_RGBA32F.obj
 0001:00033280       ??$PadLine@K@@YAXKEQAK@Z   00434280 f i bitmap:CodecBuffer_RGBA2101010.obj
 0001:000332c0       ??_GCCodecBuffer_RGBA32F@@UAEPAXI@Z 004342c0 f i bitmap:CodecBuffer_RGBA32F.obj
 0001:000332c0       ??_ECCodecBuffer_RGBA32F@@UAEPAXI@Z 004342c0 f i bitmap:CodecBuffer_RGBA32F.obj
 0001:000332f0       ??0CCodecBuffer_RGBA16F@@QAE@KKKPAE@Z 004342f0 f   bitmap:CodecBuffer_RGBA16F.obj
 0001:00033350       ??1CCodecBuffer_RGBA16F@@UAE@XZ 00434350 f   bitmap:CodecBuffer_RGBA16F.obj
 0001:00033360       ?WriteBlock@CCodecBuffer_RGBA16F@@MAE_NKKEEQAVhalf@@K@Z 00434360 f   bitmap:CodecBuffer_RGBA16F.obj
 0001:00033400       ?ReadBlockA@CCodecBuffer_RGBA16F@@UAE_NKKEEQAVhalf@@@Z 00434400 f   bitmap:CodecBuffer_RGBA16F.obj
 0001:00033430       ?ReadBlockR@CCodecBuffer_RGBA16F@@UAE_NKKEEQAVhalf@@@Z 00434430 f   bitmap:CodecBuffer_RGBA16F.obj
 0001:00033460       ?ReadBlockG@CCodecBuffer_RGBA16F@@UAE_NKKEEQAVhalf@@@Z 00434460 f   bitmap:CodecBuffer_RGBA16F.obj
 0001:00033490       ?ReadBlockB@CCodecBuffer_RGBA16F@@UAE_NKKEEQAVhalf@@@Z 00434490 f   bitmap:CodecBuffer_RGBA16F.obj
 0001:000334c0       ?WriteBlockA@CCodecBuffer_RGBA16F@@UAE_NKKEEQAVhalf@@@Z 004344c0 f   bitmap:CodecBuffer_RGBA16F.obj
 0001:000334f0       ?WriteBlockR@CCodecBuffer_RGBA16F@@UAE_NKKEEQAVhalf@@@Z 004344f0 f   bitmap:CodecBuffer_RGBA16F.obj
 0001:00033520       ?WriteBlockG@CCodecBuffer_RGBA16F@@UAE_NKKEEQAVhalf@@@Z 00434520 f   bitmap:CodecBuffer_RGBA16F.obj
 0001:00033550       ?WriteBlockB@CCodecBuffer_RGBA16F@@UAE_NKKEEQAVhalf@@@Z 00434550 f   bitmap:CodecBuffer_RGBA16F.obj
 0001:00033580       ?WriteBlockRGBA@CCodecBuffer_RGBA16F@@UAE_NKKEEQAVhalf@@@Z 00434580 f   bitmap:CodecBuffer_RGBA16F.obj
 0001:00033620       ?Copy@CCodecBuffer_RGBA16F@@UAEXAAVCCodecBuffer@@@Z 00434620 f   bitmap:CodecBuffer_RGBA16F.obj
 0001:00033700       ?ReadBlock@CCodecBuffer_RGBA16F@@MAE_NKKEEQAVhalf@@K@Z 00434700 f   bitmap:CodecBuffer_RGBA16F.obj
 0001:00033840       ?ReadBlockRGBA@CCodecBuffer_RGBA16F@@UAE_NKKEEQAVhalf@@@Z 00434840 f   bitmap:CodecBuffer_RGBA16F.obj
 0001:00033980       ?GetBufferType@CCodecBuffer_RGBA16F@@UBE?BW4_CodecBufferType@@XZ 00434980 f i bitmap:CodecBuffer_RGBA16F.obj
 0001:00033980       ?GetBlockHeight@CCodec_Block_4x4@@UAEKXZ 00434980 f i bitmap:Codec_ATI2N_DXT5.obj
 0001:00033990       ??_GCCodecBuffer_RGBA16F@@UAEPAXI@Z 00434990 f i bitmap:CodecBuffer_RGBA16F.obj
 0001:00033990       ??_ECCodecBuffer_RGBA16F@@UAEPAXI@Z 00434990 f i bitmap:CodecBuffer_RGBA16F.obj
 0001:000339c0       ??0CCodecBuffer_RGBA16@@QAE@KKKPAE@Z 004349c0 f   bitmap:CodecBuffer_RGBA16.obj
 0001:00033a20       ??1CCodecBuffer_RGBA16@@UAE@XZ 00434a20 f   bitmap:CodecBuffer_RGBA16.obj
 0001:00033a30       ?Copy@CCodecBuffer_RGBA16@@UAEXAAVCCodecBuffer@@@Z 00434a30 f   bitmap:CodecBuffer_RGBA16.obj
 0001:00033b10       ?WriteBlock@CCodecBuffer_RGBA16@@MAE_NKKEEQAGK@Z 00434b10 f   bitmap:CodecBuffer_RGBA16.obj
 0001:00033bb0       ?ReadBlockA@CCodecBuffer_RGBA16@@UAE_NKKEEQAG@Z 00434bb0 f   bitmap:CodecBuffer_RGBA16.obj
 0001:00033be0       ?ReadBlockR@CCodecBuffer_RGBA16@@UAE_NKKEEQAG@Z 00434be0 f   bitmap:CodecBuffer_RGBA16.obj
 0001:00033c10       ?ReadBlockG@CCodecBuffer_RGBA16@@UAE_NKKEEQAG@Z 00434c10 f   bitmap:CodecBuffer_RGBA16.obj
 0001:00033c40       ?ReadBlockB@CCodecBuffer_RGBA16@@UAE_NKKEEQAG@Z 00434c40 f   bitmap:CodecBuffer_RGBA16.obj
 0001:00033c70       ?WriteBlockA@CCodecBuffer_RGBA16@@UAE_NKKEEQAG@Z 00434c70 f   bitmap:CodecBuffer_RGBA16.obj
 0001:00033ca0       ?WriteBlockR@CCodecBuffer_RGBA16@@UAE_NKKEEQAG@Z 00434ca0 f   bitmap:CodecBuffer_RGBA16.obj
 0001:00033cd0       ?WriteBlockG@CCodecBuffer_RGBA16@@UAE_NKKEEQAG@Z 00434cd0 f   bitmap:CodecBuffer_RGBA16.obj
 0001:00033d00       ?WriteBlockB@CCodecBuffer_RGBA16@@UAE_NKKEEQAG@Z 00434d00 f   bitmap:CodecBuffer_RGBA16.obj
 0001:00033d30       ?WriteBlockRGBA@CCodecBuffer_RGBA16@@UAE_NKKEEQAG@Z 00434d30 f   bitmap:CodecBuffer_RGBA16.obj
 0001:00033dd0       ?ReadBlock@CCodecBuffer_RGBA16@@MAE_NKKEEQAGK@Z 00434dd0 f   bitmap:CodecBuffer_RGBA16.obj
 0001:00033f10       ?ReadBlockRGBA@CCodecBuffer_RGBA16@@UAE_NKKEEQAG@Z 00434f10 f   bitmap:CodecBuffer_RGBA16.obj
 0001:00034050       ?GetBufferType@CCodecBuffer_RGBA16@@UBE?BW4_CodecBufferType@@XZ 00435050 f i bitmap:CodecBuffer_RGBA16.obj
 0001:00034060       ??$PadLine@G@@YAXKEQAG@Z   00435060 f i bitmap:CodecBuffer_RGBA16.obj
 0001:00034060       ??$PadLine@Vhalf@@@@YAXKEQAVhalf@@@Z 00435060 f i bitmap:CodecBuffer_RGBA16F.obj
 0001:000340a0       ??$PadBlock@Vhalf@@@@YAXKEEQAVhalf@@@Z 004350a0 f i bitmap:CodecBuffer_RGBA16F.obj
 0001:000340a0       ??$PadBlock@G@@YAXKEEQAG@Z 004350a0 f i bitmap:CodecBuffer_RGBA16.obj
 0001:000340f0       ??_GCCodecBuffer_RGBA16@@UAEPAXI@Z 004350f0 f i bitmap:CodecBuffer_RGBA16.obj
 0001:000340f0       ??_ECCodecBuffer_RGBA16@@UAEPAXI@Z 004350f0 f i bitmap:CodecBuffer_RGBA16.obj
 0001:00034120       ??0CCodecBuffer_RGBA2101010@@QAE@KKKPAE@Z 00435120 f   bitmap:CodecBuffer_RGBA2101010.obj
 0001:00034180       ??1CCodecBuffer_RGBA2101010@@UAE@XZ 00435180 f   bitmap:CodecBuffer_RGBA2101010.obj
 0001:00034190       ?Copy@CCodecBuffer_RGBA2101010@@UAEXAAVCCodecBuffer@@@Z 00435190 f   bitmap:CodecBuffer_RGBA2101010.obj
 0001:00034250       ?WriteBlock@CCodecBuffer_RGBA2101010@@MAE_NKKEEQAGKK@Z 00435250 f   bitmap:CodecBuffer_RGBA2101010.obj
 0001:00034310       ?ReadBlockA@CCodecBuffer_RGBA2101010@@UAE_NKKEEQAG@Z 00435310 f   bitmap:CodecBuffer_RGBA2101010.obj
 0001:00034340       ?ReadBlockR@CCodecBuffer_RGBA2101010@@UAE_NKKEEQAG@Z 00435340 f   bitmap:CodecBuffer_RGBA2101010.obj
 0001:00034370       ?ReadBlockG@CCodecBuffer_RGBA2101010@@UAE_NKKEEQAG@Z 00435370 f   bitmap:CodecBuffer_RGBA2101010.obj
 0001:000343a0       ?ReadBlockB@CCodecBuffer_RGBA2101010@@UAE_NKKEEQAG@Z 004353a0 f   bitmap:CodecBuffer_RGBA2101010.obj
 0001:000343d0       ?WriteBlockA@CCodecBuffer_RGBA2101010@@UAE_NKKEEQAG@Z 004353d0 f   bitmap:CodecBuffer_RGBA2101010.obj
 0001:00034400       ?WriteBlockR@CCodecBuffer_RGBA2101010@@UAE_NKKEEQAG@Z 00435400 f   bitmap:CodecBuffer_RGBA2101010.obj
 0001:00034430       ?WriteBlockG@CCodecBuffer_RGBA2101010@@UAE_NKKEEQAG@Z 00435430 f   bitmap:CodecBuffer_RGBA2101010.obj
 0001:00034460       ?WriteBlockB@CCodecBuffer_RGBA2101010@@UAE_NKKEEQAG@Z 00435460 f   bitmap:CodecBuffer_RGBA2101010.obj
 0001:00034490       ?WriteBlockRGBA@CCodecBuffer_RGBA2101010@@UAE_NKKEEQAK@Z 00435490 f   bitmap:CodecBuffer_RGBA2101010.obj
 0001:00034550       ?WriteBlockRGBA@CCodecBuffer_RGBA2101010@@UAE_NKKEEQAG@Z 00435550 f   bitmap:CodecBuffer_RGBA2101010.obj
 0001:00034650       ?ReadBlock@CCodecBuffer_RGBA2101010@@MAE_NKKEEQAGKK@Z 00435650 f   bitmap:CodecBuffer_RGBA2101010.obj
 0001:000347a0       ?ReadBlockRGBA@CCodecBuffer_RGBA2101010@@UAE_NKKEEQAK@Z 004357a0 f   bitmap:CodecBuffer_RGBA2101010.obj
 0001:000348e0       ?ReadBlockRGBA@CCodecBuffer_RGBA2101010@@UAE_NKKEEQAG@Z 004358e0 f   bitmap:CodecBuffer_RGBA2101010.obj
 0001:00034ab0       ?GetBufferType@CCodecBuffer_RGBA2101010@@UBE?BW4_CodecBufferType@@XZ 00435ab0 f i bitmap:CodecBuffer_RGBA2101010.obj
 0001:00034ac0       ??$PadBlock@M@@YAXKEEQAM@Z 00435ac0 f i bitmap:CodecBuffer_RGBA32F.obj
 0001:00034ac0       ??$PadBlock@K@@YAXKEEQAK@Z 00435ac0 f i bitmap:CodecBuffer_RGBA2101010.obj
 0001:00034b10       ??_GCCodecBuffer_RGBA2101010@@UAEPAXI@Z 00435b10 f i bitmap:CodecBuffer_RGBA2101010.obj
 0001:00034b10       ??_ECCodecBuffer_RGBA2101010@@UAEPAXI@Z 00435b10 f i bitmap:CodecBuffer_RGBA2101010.obj
 0001:00034b40       ??0CCodecBuffer_RGBA8888@@QAE@KKKPAE@Z 00435b40 f   bitmap:CodecBuffer_RGBA8888.obj
 0001:00034ba0       ??1CCodecBuffer_RGBA8888@@UAE@XZ 00435ba0 f   bitmap:CodecBuffer_RGBA8888.obj
 0001:00034bb0       ?Copy@CCodecBuffer_RGBA8888@@UAEXAAVCCodecBuffer@@@Z 00435bb0 f   bitmap:CodecBuffer_RGBA8888.obj
 0001:00034c70       ?WriteBlock@CCodecBuffer_RGBA8888@@MAE_NKKEEQAEK@Z 00435c70 f   bitmap:CodecBuffer_RGBA8888.obj
 0001:00034d30       ?ReadBlockA@CCodecBuffer_RGBA8888@@UAE_NKKEEQAE@Z 00435d30 f   bitmap:CodecBuffer_RGBA8888.obj
 0001:00034d60       ?ReadBlockR@CCodecBuffer_RGBA8888@@UAE_NKKEEQAE@Z 00435d60 f   bitmap:CodecBuffer_RGBA8888.obj
 0001:00034d90       ?ReadBlockG@CCodecBuffer_RGBA8888@@UAE_NKKEEQAE@Z 00435d90 f   bitmap:CodecBuffer_RGBA8888.obj
 0001:00034dc0       ?ReadBlockB@CCodecBuffer_RGBA8888@@UAE_NKKEEQAE@Z 00435dc0 f   bitmap:CodecBuffer_RGBA8888.obj
 0001:00034df0       ?WriteBlockA@CCodecBuffer_RGBA8888@@UAE_NKKEEQAE@Z 00435df0 f   bitmap:CodecBuffer_RGBA8888.obj
 0001:00034e20       ?WriteBlockR@CCodecBuffer_RGBA8888@@UAE_NKKEEQAE@Z 00435e20 f   bitmap:CodecBuffer_RGBA8888.obj
 0001:00034e50       ?WriteBlockG@CCodecBuffer_RGBA8888@@UAE_NKKEEQAE@Z 00435e50 f   bitmap:CodecBuffer_RGBA8888.obj
 0001:00034e80       ?WriteBlockB@CCodecBuffer_RGBA8888@@UAE_NKKEEQAE@Z 00435e80 f   bitmap:CodecBuffer_RGBA8888.obj
 0001:00034eb0       ?WriteBlockRGBA@CCodecBuffer_RGBA8888@@UAE_NKKEEQAK@Z 00435eb0 f   bitmap:CodecBuffer_RGBA8888.obj
 0001:00034f70       ?ReadBlock@CCodecBuffer_RGBA8888@@MAE_NKKEEQAEK@Z 00435f70 f   bitmap:CodecBuffer_RGBA8888.obj
 0001:000350c0       ?ReadBlockRGBA@CCodecBuffer_RGBA8888@@UAE_NKKEEQAK@Z 004360c0 f   bitmap:CodecBuffer_RGBA8888.obj
 0001:00035200       ??$PadLine@E@@YAXKEQAE@Z   00436200 f i bitmap:CodecBuffer_RGBA8888.obj
 0001:00035240       ??$PadBlock@E@@YAXKEEQAE@Z 00436240 f i bitmap:CodecBuffer_RGBA8888.obj
 0001:00035290       ??_GCCodecBuffer_RGBA8888@@UAEPAXI@Z 00436290 f i bitmap:CodecBuffer_RGBA8888.obj
 0001:00035290       ??_ECCodecBuffer_RGBA8888@@UAEPAXI@Z 00436290 f i bitmap:CodecBuffer_RGBA8888.obj
 0001:000352c0       ??0CCodec_DXTC@@QAE@W4_CodecType@@@Z 004362c0 f   bitmap:Codec_DXTC.obj
 0001:00035360       ??1CCodec_DXTC@@UAE@XZ     00436360 f   bitmap:Codec_DXTC.obj
 0001:00035370       ?SetParameter@CCodec_DXTC@@UAE_NPBDK@Z 00436370 f   bitmap:Codec_DXTC.obj
 0001:00035470       ?GetParameter@CCodec_DXTC@@UAE_NPBDAAK@Z 00436470 f   bitmap:Codec_DXTC.obj
 0001:00035560       ?SetParameter@CCodec_DXTC@@UAE_NPBDM@Z 00436560 f   bitmap:Codec_DXTC.obj
 0001:00035610       ?GetParameter@CCodec_DXTC@@UAE_NPBDAAM@Z 00436610 f   bitmap:Codec_DXTC.obj
 0001:000356c0       ??_GCCodec_DXTC@@UAEPAXI@Z 004366c0 f i bitmap:Codec_DXTC.obj
 0001:000356c0       ??_ECCodec_DXTC@@UAEPAXI@Z 004366c0 f i bitmap:Codec_DXTC.obj
 0001:000356f0       ??0CCodec_Block_4x4@@QAE@W4_CodecType@@@Z 004366f0 f   bitmap:Codec_Block_4x4.obj
 0001:00035710       ??1CCodec_Block_4x4@@UAE@XZ 00436710 f   bitmap:Codec_Block_4x4.obj
 0001:00035720       ?CreateBuffer@CCodec_Block_4x4@@UBEPAVCCodecBuffer@@KKKPAE@Z 00436720 f   bitmap:Codec_Block_4x4.obj
 0001:00035750       ??_ECCodec_Block_4x4@@UAEPAXI@Z 00436750 f i bitmap:Codec_Block_4x4.obj
 0001:00035750       ??_GCCodec_Block_4x4@@UAEPAXI@Z 00436750 f i bitmap:Codec_Block_4x4.obj
 0001:00035780       ?EncodeAlphaBlock@CCodec_DXTC@@IAEXQAKQAE1@Z 00436780 f   bitmap:Codec_DXTC_Alpha.obj
 0001:000358e0       ?CompressExplicitAlphaBlock@CCodec_DXTC@@MAE?AW4_CODECError@@QAEQAK@Z 004368e0 f   bitmap:Codec_DXTC_Alpha.obj
 0001:00035a70       ?CompressExplicitAlphaBlock@CCodec_DXTC@@MAE?AW4_CODECError@@QAMQAK@Z 00436a70 f   bitmap:Codec_DXTC_Alpha.obj
 0001:00035b10       ?DecompressExplicitAlphaBlock@CCodec_DXTC@@MAEXQAEQAK@Z 00436b10 f   bitmap:Codec_DXTC_Alpha.obj
 0001:00035b50       ?DecompressExplicitAlphaBlock@CCodec_DXTC@@MAEXQAMQAK@Z 00436b50 f   bitmap:Codec_DXTC_Alpha.obj
 0001:00035d20       ?GetCompressedAlphaRamp@CCodec_DXTC@@IAEXQAEQAK@Z 00436d20 f   bitmap:Codec_DXTC_Alpha.obj
 0001:00035e90       ?GetCompressedAlphaRamp@CCodec_DXTC@@IAEXQAMQAK@Z 00436e90 f   bitmap:Codec_DXTC_Alpha.obj
 0001:00035fb0       ?CompressAlphaBlock@CCodec_DXTC@@MAE?AW4_CODECError@@QAEQAK@Z 00436fb0 f   bitmap:Codec_DXTC_Alpha.obj
 0001:00036080       ?CompressAlphaBlock@CCodec_DXTC@@MAE?AW4_CODECError@@QAMQAK@Z 00437080 f   bitmap:Codec_DXTC_Alpha.obj
 0001:00036150       ?DecompressAlphaBlock@CCodec_DXTC@@MAEXQAEQAK@Z 00437150 f   bitmap:Codec_DXTC_Alpha.obj
 0001:000362f0       ?DecompressAlphaBlock@CCodec_DXTC@@MAEXQAMQAK@Z 004372f0 f   bitmap:Codec_DXTC_Alpha.obj
 0001:00036590       ?CompressRGBABlock@CCodec_DXTC@@MAE?AW4_CODECError@@QAK0PAM@Z 00437590 f   bitmap:Codec_DXTC_RGBA.obj
 0001:00036600       ?DecompressRGBABlock@CCodec_DXTC@@MAEXQAK0@Z 00437600 f   bitmap:Codec_DXTC_RGBA.obj
 0001:000366c0       ?CompressRGBABlock_ExplicitAlpha@CCodec_DXTC@@MAE?AW4_CODECError@@QAK0PAM@Z 004376c0 f   bitmap:Codec_DXTC_RGBA.obj
 0001:00036730       ?DecompressRGBABlock_ExplicitAlpha@CCodec_DXTC@@MAEXQAK0@Z 00437730 f   bitmap:Codec_DXTC_RGBA.obj
 0001:000367f0       ?CompressRGBBlock@CCodec_DXTC@@MAE?AW4_CODECError@@QAK0PAM_N2E@Z 004377f0 f   bitmap:Codec_DXTC_RGBA.obj
 0001:00036ab0       ?CompressRGBABlock@CCodec_DXTC@@MAE?AW4_CODECError@@QAMQAKPAM@Z 00437ab0 f   bitmap:Codec_DXTC_RGBA.obj
 0001:00036b50       ?CompressRGBABlock_ExplicitAlpha@CCodec_DXTC@@MAE?AW4_CODECError@@QAMQAKPAM@Z 00437b50 f   bitmap:Codec_DXTC_RGBA.obj
 0001:00036bf0       ?CompressRGBBlock@CCodec_DXTC@@MAE?AW4_CODECError@@QAMQAKPAM_N3M@Z 00437bf0 f   bitmap:Codec_DXTC_RGBA.obj
 0001:00036eb0       ?DecompressRGBABlock@CCodec_DXTC@@MAEXQAMQAK@Z 00437eb0 f   bitmap:Codec_DXTC_RGBA.obj
 0001:00036f30       ?DecompressRGBABlock_ExplicitAlpha@CCodec_DXTC@@MAEXQAMQAK@Z 00437f30 f   bitmap:Codec_DXTC_RGBA.obj
 0001:00036fb0       ?DecompressRGBBlock@CCodec_DXTC@@MAEXQAK0_N@Z 00437fb0 f   bitmap:Codec_DXTC_RGBA.obj
 0001:000371f0       ?DecompressRGBBlock@CCodec_DXTC@@MAEXQAMQAK_N@Z 004381f0 f   bitmap:Codec_DXTC_RGBA.obj
 0001:00037560       ?CalculateColourWeightings@CCodec_DXTC@@IAEPAMQAK@Z 00438560 f   bitmap:Codec_DXTC_RGBA.obj
 0001:00037940       ?CalculateColourWeightings@CCodec_DXTC@@IAEPAMQAM@Z 00438940 f   bitmap:Codec_DXTC_RGBA.obj
 0001:00037c70       ??0CCodec_DXT5_Swizzled@@QAE@W4_CodecType@@@Z 00438c70 f   bitmap:Codec_DXT5_Swizzled.obj
 0001:00037c90       ??1CCodec_DXT5_Swizzled@@UAE@XZ 00438c90 f   bitmap:Codec_DXT5_Swizzled.obj
 0001:00037ca0       ?Compress@CCodec_DXT5_Swizzled@@UAE?AW4_CODECError@@AAVCCodecBuffer@@0P6A_NMKK@ZKK@Z 00438ca0 f   bitmap:Codec_DXT5_Swizzled.obj
 0001:00037e70       ?Decompress@CCodec_DXT5_Swizzled@@UAE?AW4_CODECError@@AAVCCodecBuffer@@0@Z 00438e70 f   bitmap:Codec_DXT5_Swizzled.obj
 0001:00037fb0       ??_ECCodec_DXT5_Swizzled@@UAEPAXI@Z 00438fb0 f i bitmap:Codec_DXT5_Swizzled.obj
 0001:00037fb0       ??_GCCodec_DXT5_Swizzled@@UAEPAXI@Z 00438fb0 f i bitmap:Codec_DXT5_Swizzled.obj
 0001:00037fe0       ??0CCodec_Block@@QAE@W4_CodecType@@@Z 00438fe0 f   bitmap:Codec_Block.obj
 0001:00038000       ??1CCodec_Block@@UAE@XZ    00439000 f   bitmap:Codec_Block.obj
 0001:00038010       ??_ECCodec_Block@@UAEPAXI@Z 00439010 f i bitmap:Codec_Block.obj
 0001:00038010       ??_GCCodec_Block@@UAEPAXI@Z 00439010 f i bitmap:Codec_Block.obj
 0001:00038040       ?ConstructColor@@YAKEEEEEE@Z 00439040 f   bitmap:ATiXCodec.obj
 0001:00039ae0       ?CompBlock1X@@YAMPAMGQAEPAEE_N3HH3@Z 0043aae0 f   bitmap:ATiXCodec.obj
 0001:00039bc0       ?CompBlock1X@@YAMPAEGQAE0E_N2HH2@Z 0043abc0 f   bitmap:ATiXCodec.obj
 0001:00039f30       ?Clstr@@YAMQAKGQAY01EPAEEPAM_NEEEE@Z 0043af30 f   bitmap:ATiXCodec.obj
 0001:0003a2f0       ?Clstr@@YAMQAMGQAY01EPAEEPAM_NMEEE@Z 0043b2f0 f   bitmap:ATiXCodec.obj
 0001:0003e8f0       ?CompressRGBBlockXSSE2@@YAXQAY01MQAY03MQAMHE_NEPAMEEE@Z 0043f8f0 f   bitmap:ATiXCodec.obj
 0001:0003fab0       ?CompRGBBlock@@YAMPAMGEEEQAY01EPAEE_N3E03M@Z 00440ab0 f   bitmap:ATiXCodec.obj
 0001:00040030       ?CompRGBBlock@@YAMPAKGEEEQAY01EPAEE_N3EPAM3E@Z 00441030 f   bitmap:ATiXCodec.obj
 0001:00040370       ?MkWkRmpPts@@YAXPA_NQAY01M1EEE@Z 00441370 f i bitmap:ATiXCodec.obj
 0001:000404d0       ?BldClrRmp@@YAXQAM0E@Z     004414d0 f i bitmap:ATiXCodec.obj
 0001:000405a3       ?__ArrayUnwind@@YGXPAXIHP6EX0@Z@Z 004415a3 f   LIBCMT:ehvecdtr.obj
 0001:00040601       ??_M@YGXPAXIHP6EX0@Z@Z     00441601 f   LIBCMT:ehvecdtr.obj
 0001:00040664       ??_L@YGXPAXIHP6EX0@Z1@Z    00441664 f   LIBCMT:ehvecctr.obj
 0001:000406c9       ?_JumpToContinuation@@YGXPAXPAUEHRegistrationNode@@@Z 004416c9 f   LIBCMT:_trnsctrl_.obj
 0001:000406fb       ?_CallMemberFunction0@@YGXPAX0@Z 004416fb f   LIBCMT:_trnsctrl_.obj
 0001:000406fb       ?_CallMemberFunction2@@YGXPAX00H@Z 004416fb f   LIBCMT:_trnsctrl_.obj
 0001:000406fb       ?_CallMemberFunction1@@YGXPAX00@Z 004416fb f   LIBCMT:_trnsctrl_.obj
 0001:00040702       ?_UnwindNestedFrames@@YGXPAUEHRegistrationNode@@PAUEHExceptionRecord@@@Z 00441702 f   LIBCMT:_trnsctrl_.obj
 0001:00040756       ___CxxFrameHandler3        00441756 f   LIBCMT:_trnsctrl_.obj
 0001:000407bf       ?_CallSETranslator@@YAHPAUEHExceptionRecord@@PAUEHRegistrationNode@@PAX2PBU_s_FuncInfo@@H1@Z 004417bf f   LIBCMT:_trnsctrl_.obj
 0001:00040935       ?_GetRangeOfTrysToCheck@@YAPBU_s_TryBlockMapEntry@@PBU_s_FuncInfo@@HHPAI1@Z 00441935 f   LIBCMT:_trnsctrl_.obj
 0001:000409a8       __CreateFrameInfo          004419a8 f   LIBCMT:_trnsctrl_.obj
 0001:000409d4       __IsExceptionObjectToBeDestroyed 004419d4 f   LIBCMT:_trnsctrl_.obj
 0001:000409fb       __FindAndUnlinkFrame       004419fb f   LIBCMT:_trnsctrl_.obj
 0001:00040a4d       ?_CallCatchBlock2@@YAPAXPAUEHRegistrationNode@@PBU_s_FuncInfo@@PAXHK@Z 00441a4d f   LIBCMT:_trnsctrl_.obj
 0001:00040ab0       __ftol                     00441ab0 f   LIBCMT:_ftol_.obj
 0001:00040ae0       __CIsqrt                   00441ae0 f   LIBCMT:_sqrt_.obj
 0001:00040af4       _sqrt                      00441af4     LIBCMT:_sqrt_.obj
 0001:00040b9a       __mbscmp_l                 00441b9a f   LIBCMT:mbscmp.obj
 0001:00040c99       __mbscmp                   00441c99 f   LIBCMT:mbscmp.obj
 0001:00040d40       _qsort                     00441d40 f   LIBCMT:qsort.obj
 0001:00040fcb       ??1bad_exception@std@@UAE@XZ 00441fcb f i LIBCMT:frame.obj
 0001:00040fd6       ??_Gbad_exception@std@@UAEPAXI@Z 00441fd6 f i LIBCMT:frame.obj
 0001:00040fd6       ??_Ebad_exception@std@@UAEPAXI@Z 00441fd6 f i LIBCMT:frame.obj
 0001:00040ffd       ___TypeMatch               00441ffd f   LIBCMT:frame.obj
 0001:0004105c       ___FrameUnwindFilter       0044205c f   LIBCMT:frame.obj
 0001:000410ab       ___FrameUnwindToState      004420ab f   LIBCMT:frame.obj
 0001:000411cc       ___DestructExceptionObject 004421cc f   LIBCMT:frame.obj
 0001:00041221       ___AdjustPointer           00442221 f   LIBCMT:frame.obj
 0001:000414a5       ___BuildCatchObjectHelper  004424a5 f   LIBCMT:frame.obj
 0001:00041624       ___BuildCatchObject        00442624 f   LIBCMT:frame.obj
 0001:00041ba0       ??0bad_exception@std@@QAE@ABV01@@Z 00442ba0 f i LIBCMT:frame.obj
 0001:00041bbd       ___InternalCxxFrameHandler 00442bbd f   LIBCMT:frame.obj
 0001:00041cb0       __CallSettingFrame@12      00442cb0 f   LIBCMT:lowhelpr.obj
 0001:00041cd7       __NLG_Return               00442cd7     LIBCMT:lowhelpr.obj
 0001:00041cfc       ?what@exception@std@@UBEPBDXZ 00442cfc f   LIBCMT:stdexcpt.obj
 0001:00041d09       ?_Copy_str@exception@std@@AAEXPBD@Z 00442d09 f   LIBCMT:stdexcpt.obj
 0001:00041d49       ?_Tidy@exception@std@@AAEXXZ 00442d49 f   LIBCMT:stdexcpt.obj
 0001:00041d67       ??0exception@std@@QAE@ABQBD@Z 00442d67 f   LIBCMT:stdexcpt.obj
 0001:00041d8e       ??4exception@std@@QAEAAV01@ABV01@@Z 00442d8e f   LIBCMT:stdexcpt.obj
 0001:00041dc3       ??1exception@std@@UAE@XZ   00442dc3 f   LIBCMT:stdexcpt.obj
 0001:00041dce       ??_Eexception@std@@UAEPAXI@Z 00442dce f i LIBCMT:stdexcpt.obj
 0001:00041dce       ??_Gexception@std@@UAEPAXI@Z 00442dce f i LIBCMT:stdexcpt.obj
 0001:00041df5       ??0exception@std@@QAE@ABV01@@Z 00442df5 f   LIBCMT:stdexcpt.obj
 0001:00041e1a       __EH_prolog3_catch         00442e1a f   LIBCMT:ehprolg3.obj
 0001:00041e50       __CxxThrowException@8      00442e50 f   LIBCMT:throw.obj
 0001:00041e9c       ?_ValidateWrite@@YAHPAXI@Z 00442e9c f   LIBCMT:validate.obj
 0001:00041e9c       ?_ValidateRead@@YAHPBXI@Z  00442e9c f   LIBCMT:validate.obj
 0001:00041e9c       ?_ValidateExecute@@YAHP6GHXZ@Z 00442e9c f   LIBCMT:validate.obj
 0002:00000000       __imp__GetModuleFileNameA@12 00444000     kernel32:KERNEL32.dll
 0002:00000004       __imp__VirtualQuery@12     00444004     kernel32:KERNEL32.dll
 0002:00000008       __imp__HeapAlloc@12        00444008     kernel32:KERNEL32.dll
 0002:0000000c       __imp__GetProcessHeap@0    0044400c     kernel32:KERNEL32.dll
 0002:00000010       __imp__ResumeThread@4      00444010     kernel32:KERNEL32.dll
 0002:00000014       __imp__WaitForMultipleObjects@16 00444014     kernel32:KERNEL32.dll
 0002:00000018       __imp__GetExitCodeThread@8 00444018     kernel32:KERNEL32.dll
 0002:0000001c       __imp__MultiByteToWideChar@24 0044401c     kernel32:KERNEL32.dll
 0002:00000020       __imp__WideCharToMultiByte@32 00444020     kernel32:KERNEL32.dll
 0002:00000024       __imp__GetLastError@0      00444024     kernel32:KERNEL32.dll
 0002:00000028       __imp__FindClose@4         00444028     kernel32:KERNEL32.dll
 0002:0000002c       __imp__FileTimeToSystemTime@8 0044402c     kernel32:KERNEL32.dll
 0002:00000030       __imp__FileTimeToLocalFileTime@8 00444030     kernel32:KERNEL32.dll
 0002:00000034       __imp__GetDriveTypeA@4     00444034     kernel32:KERNEL32.dll
 0002:00000038       __imp__FindFirstFileExA@24 00444038     kernel32:KERNEL32.dll
 0002:0000003c       __imp__GetCommandLineA@0   0044403c     kernel32:KERNEL32.dll
 0002:00000040       __imp__HeapSetInformation@16 00444040     kernel32:KERNEL32.dll
 0002:00000044       __imp__GetDriveTypeW@4     00444044     kernel32:KERNEL32.dll
 0002:00000048       __imp__GetFullPathNameA@16 00444048     kernel32:KERNEL32.dll
 0002:0000004c       __imp__SetEnvironmentVariableA@8 0044404c     kernel32:KERNEL32.dll
 0002:00000050       __imp__DecodePointer@4     00444050     kernel32:KERNEL32.dll
 0002:00000054       __imp__EncodePointer@4     00444054     kernel32:KERNEL32.dll
 0002:00000058       __imp__IsProcessorFeaturePresent@4 00444058     kernel32:KERNEL32.dll
 0002:0000005c       __imp__UnhandledExceptionFilter@4 0044405c     kernel32:KERNEL32.dll
 0002:00000060       __imp__SetUnhandledExceptionFilter@4 00444060     kernel32:KERNEL32.dll
 0002:00000064       __imp__IsDebuggerPresent@0 00444064     kernel32:KERNEL32.dll
 0002:00000068       __imp__TerminateProcess@8  00444068     kernel32:KERNEL32.dll
 0002:0000006c       __imp__GetCurrentProcess@0 0044406c     kernel32:KERNEL32.dll
 0002:00000070       __imp__EnterCriticalSection@4 00444070     kernel32:KERNEL32.dll
 0002:00000074       __imp__LeaveCriticalSection@4 00444074     kernel32:KERNEL32.dll
 0002:00000078       __imp__CloseHandle@4       00444078     kernel32:KERNEL32.dll
 0002:0000007c       __imp__ReadFile@20         0044407c     kernel32:KERNEL32.dll
 0002:00000080       __imp__InitializeCriticalSectionAndSpinCount@8 00444080     kernel32:KERNEL32.dll
 0002:00000084       __imp__RtlUnwind@16        00444084     kernel32:KERNEL32.dll
 0002:00000088       __imp__GetFileInformationByHandle@8 00444088     kernel32:KERNEL32.dll
 0002:0000008c       __imp__PeekNamedPipe@24    0044408c     kernel32:KERNEL32.dll
 0002:00000090       __imp__GetFileType@4       00444090     kernel32:KERNEL32.dll
 0002:00000094       __imp__CreateFileA@28      00444094     kernel32:KERNEL32.dll
 0002:00000098       __imp__GetCurrentDirectoryW@8 00444098     kernel32:KERNEL32.dll
 0002:0000009c       __imp__GetProcAddress@8    0044409c     kernel32:KERNEL32.dll
 0002:000000a0       __imp__GetModuleHandleW@4  004440a0     kernel32:KERNEL32.dll
 0002:000000a4       __imp__ExitProcess@4       004440a4     kernel32:KERNEL32.dll
 0002:000000a8       __imp__WriteFile@20        004440a8     kernel32:KERNEL32.dll
 0002:000000ac       __imp__GetStdHandle@4      004440ac     kernel32:KERNEL32.dll
 0002:000000b0       __imp__GetModuleFileNameW@12 004440b0     kernel32:KERNEL32.dll
 0002:000000b4       __imp__FreeEnvironmentStringsW@4 004440b4     kernel32:KERNEL32.dll
 0002:000000b8       __imp__GetEnvironmentStringsW@0 004440b8     kernel32:KERNEL32.dll
 0002:000000bc       __imp__SetHandleCount@4    004440bc     kernel32:KERNEL32.dll
 0002:000000c0       __imp__GetStartupInfoW@4   004440c0     kernel32:KERNEL32.dll
 0002:000000c4       __imp__DeleteCriticalSection@4 004440c4     kernel32:KERNEL32.dll
 0002:000000c8       __imp__TlsAlloc@0          004440c8     kernel32:KERNEL32.dll
 0002:000000cc       __imp__TlsGetValue@4       004440cc     kernel32:KERNEL32.dll
 0002:000000d0       __imp__TlsSetValue@8       004440d0     kernel32:KERNEL32.dll
 0002:000000d4       __imp__TlsFree@4           004440d4     kernel32:KERNEL32.dll
 0002:000000d8       __imp__InterlockedIncrement@4 004440d8     kernel32:KERNEL32.dll
 0002:000000dc       __imp__SetLastError@4      004440dc     kernel32:KERNEL32.dll
 0002:000000e0       __imp__GetCurrentThreadId@0 004440e0     kernel32:KERNEL32.dll
 0002:000000e4       __imp__InterlockedDecrement@4 004440e4     kernel32:KERNEL32.dll
 0002:000000e8       __imp__QueryPerformanceCounter@4 004440e8     kernel32:KERNEL32.dll
 0002:000000ec       __imp__GetTickCount@0      004440ec     kernel32:KERNEL32.dll
 0002:000000f0       __imp__GetCurrentProcessId@0 004440f0     kernel32:KERNEL32.dll
 0002:000000f4       __imp__GetSystemTimeAsFileTime@4 004440f4     kernel32:KERNEL32.dll
 0002:000000f8       __imp__GetCPInfo@8         004440f8     kernel32:KERNEL32.dll
 0002:000000fc       __imp__GetACP@0            004440fc     kernel32:KERNEL32.dll
 0002:00000100       __imp__GetOEMCP@0          00444100     kernel32:KERNEL32.dll
 0002:00000104       __imp__IsValidCodePage@4   00444104     kernel32:KERNEL32.dll
 0002:00000108       __imp__LCMapStringW@24     00444108     kernel32:KERNEL32.dll
 0002:0000010c       __imp__SetFilePointer@16   0044410c     kernel32:KERNEL32.dll
 0002:00000110       __imp__GetConsoleCP@0      00444110     kernel32:KERNEL32.dll
 0002:00000114       __imp__GetConsoleMode@8    00444114     kernel32:KERNEL32.dll
 0002:00000118       __imp__SetStdHandle@8      00444118     kernel32:KERNEL32.dll
 0002:0000011c       __imp__FlushFileBuffers@4  0044411c     kernel32:KERNEL32.dll
 0002:00000120       __imp__SetEndOfFile@4      00444120     kernel32:KERNEL32.dll
 0002:00000124       __imp__HeapFree@12         00444124     kernel32:KERNEL32.dll
 0002:00000128       __imp__GetTimeZoneInformation@4 00444128     kernel32:KERNEL32.dll
 0002:0000012c       __imp__LoadLibraryW@4      0044412c     kernel32:KERNEL32.dll
 0002:00000130       __imp__GetStringTypeW@16   00444130     kernel32:KERNEL32.dll
 0002:00000134       __imp__RaiseException@16   00444134     kernel32:KERNEL32.dll
 0002:00000138       __imp__WriteConsoleW@20    00444138     kernel32:KERNEL32.dll
 0002:0000013c       __imp__CreateFileW@28      0044413c     kernel32:KERNEL32.dll
 0002:00000140       __imp__CompareStringW@24   00444140     kernel32:KERNEL32.dll
 0002:00000144       __imp__GetSystemInfo@4     00444144     kernel32:KERNEL32.dll
 0002:00000148       __imp__CreateThread@24     00444148     kernel32:KERNEL32.dll
 0002:0000014c       \177KERNEL32_NULL_THUNK_DATA 0044414c     kernel32:KERNEL32.dll
 0002:00000150       __imp__Warning             00444150     tier0:tier0.dll
 0002:00000154       __imp__MemFreeScratch      00444154     tier0:tier0.dll
 0002:00000158       __imp__MemAllocScratch     00444158     tier0:tier0.dll
 0002:0000015c       __imp__AssertValidStringPtr 0044415c     tier0:tier0.dll
 0002:00000160       __imp__Error               00444160     tier0:tier0.dll
 0002:00000164       __imp__g_pMemAlloc         00444164     tier0:tier0.dll
 0002:00000168       __imp___AssertValidWritePtr 00444168     tier0:tier0.dll
 0002:0000016c       \177tier0_NULL_THUNK_DATA  0044416c     tier0:tier0.dll
 0002:00000170       ___xc_a                    00444170     LIBCMT:crt0init.obj
 0002:00000198       ___xc_z                    00444198     LIBCMT:crt0init.obj
 0002:0000019c       ___xi_a                    0044419c     LIBCMT:crt0init.obj
 0002:000001b8       ___xi_z                    004441b8     LIBCMT:crt0init.obj
 0002:000001bc       ___xp_a                    004441bc     LIBCMT:crt0init.obj
 0002:000001c8       ___xp_z                    004441c8     LIBCMT:crt0init.obj
 0002:000001cc       ___xt_a                    004441cc     LIBCMT:crt0init.obj
 0002:000001d0       ___xt_z                    004441d0     LIBCMT:crt0init.obj
 0002:000001fc       ??_C@_0CE@DBHPELAC@Usage?3?5vtfdiff?5file1?4vtf?5file2?4v@ 004441fc     vtfdiff.obj
 0002:00000220       ??_C@_03ODHGDBCI@CRC?$AA@  00444220     vtfdiff.obj
 0002:00000224       ??_C@_0BO@DFBHHAMH@VTF_RSRC_TEXTURE_LOD_SETTINGS?$AA@ 00444224     vtfdiff.obj
 0002:00000244       ??_C@_06IMJBDBNO@0x?$CF08X?$AA@ 00444244     vtfdiff.obj
 0002:0000024c       ??_C@_0BG@BKMCOKFJ@VTF_LEGACY_RSRC_IMAGE?$AA@ 0044424c     vtfdiff.obj
 0002:00000264       ??_C@_0BO@IECCPODP@VTF_LEGACY_RSRC_LOW_RES_IMAGE?$AA@ 00444264     vtfdiff.obj
 0002:00000284       ??_C@_0P@FDGAHJPO@VTF_RSRC_SHEET?$AA@ 00444284     vtfdiff.obj
 0002:00000294       ??_C@_0BN@CMHIKAFB@TEXTUREFLAGS_UNUSED_80000000?$AA@ 00444294     vtfdiff.obj
 0002:000002b4       ??_C@_0BN@MKEMFDEF@TEXTUREFLAGS_UNUSED_40000000?$AA@ 004442b4     vtfdiff.obj
 0002:000002d4       ??_C@_0BE@PCIFGIAI@TEXTUREFLAGS_BORDER?$AA@ 004442d4     vtfdiff.obj
 0002:000002e8       ??_C@_0BN@IANLBGAK@TEXTUREFLAGS_UNUSED_10000000?$AA@ 004442e8     vtfdiff.obj
 0002:00000308       ??_C@_0BE@PDFIKJNA@TEXTUREFLAGS_SSBUMP?$AA@ 00444308     vtfdiff.obj
 0002:0000031c       ??_C@_0BL@IEMEDOH@TEXTUREFLAGS_VERTEXTEXTURE?$AA@ 0044431c     vtfdiff.obj
 0002:00000338       ??_C@_0BE@NNICEEJG@TEXTUREFLAGS_CLAMPU?$AA@ 00444338     vtfdiff.obj
 0002:0000034c       ??_C@_0BN@FLAKACNH@TEXTUREFLAGS_UNUSED_01000000?$AA@ 0044434c     vtfdiff.obj
 0002:0000036c       ??_C@_0BL@NKFNOJPA@TEXTUREFLAGS_NODEPTHBUFFER?$AA@ 0044436c     vtfdiff.obj
 0002:00000388       ??_C@_0BN@GDOPCGFK@TEXTUREFLAGS_UNUSED_00400000?$AA@ 00444388     vtfdiff.obj
 0002:000003a8       ??_C@_0BN@DPBDGA@TEXTUREFLAGS_UNUSED_00200000?$AA@ 004443a8     vtfdiff.obj
 0002:000003c8       ??_C@_0BN@DBNHAJPN@TEXTUREFLAGS_UNUSED_00100000?$AA@ 004443c8     vtfdiff.obj
 0002:000003e8       ??_C@_0BN@HLPDIACE@TEXTUREFLAGS_UNUSED_00080000?$AA@ 004443e8     vtfdiff.obj
 0002:00000408       ??_C@_0BI@GAIAEFCM@TEXTUREFLAGS_SINGLECOPY?$AA@ 00444408     vtfdiff.obj
 0002:00000420       ??_C@_0BN@GEOGCJOG@TEXTUREFLAGS_NODEBUGOVERRIDE?$AA@ 00444420     vtfdiff.obj
 0002:00000440       ??_C@_0BP@GGLGICEE@TEXTUREFLAGS_DEPTHRENDERTARGET?$AA@ 00444440     vtfdiff.obj
 0002:00000460       ??_C@_0BK@CMACHINI@TEXTUREFLAGS_RENDERTARGET?$AA@ 00444460     vtfdiff.obj
 0002:0000047c       ??_C@_0BE@EBMJKGDH@TEXTUREFLAGS_ENVMAP?$AA@ 0044447c     vtfdiff.obj
 0002:00000490       ??_C@_0BL@FJKNCCHC@TEXTUREFLAGS_EIGHTBITALPHA?$AA@ 00444490     vtfdiff.obj
 0002:000004ac       ??_C@_0BJ@NHEBBCCG@TEXTUREFLAGS_ONEBITALPHA?$AA@ 004444ac     vtfdiff.obj
 0002:000004c8       ??_C@_0BI@IMFLBHMO@TEXTUREFLAGS_PROCEDURAL?$AA@ 004444c8     vtfdiff.obj
 0002:000004e0       ??_C@_0BG@CIAAAEHC@TEXTUREFLAGS_ALL_MIPS?$AA@ 004444e0     vtfdiff.obj
 0002:000004f8       ??_C@_0BD@LAEHEIPM@TEXTUREFLAGS_NOLOD?$AA@ 004444f8     vtfdiff.obj
 0002:0000050c       ??_C@_0BD@CCNIIEHO@TEXTUREFLAGS_NOMIP?$AA@ 0044450c     vtfdiff.obj
 0002:00000520       ??_C@_0BE@JLGFNKPF@TEXTUREFLAGS_NORMAL?$AA@ 00444520     vtfdiff.obj
 0002:00000534       ??_C@_0BC@GFJJBGCO@TEXTUREFLAGS_SRGB?$AA@ 00444534     vtfdiff.obj
 0002:00000548       ??_C@_0BH@JMMHLGOL@TEXTUREFLAGS_HINT_DXT5?$AA@ 00444548     vtfdiff.obj
 0002:00000560       ??_C@_0BJ@KIIOHMFD@TEXTUREFLAGS_ANISOTROPIC?$AA@ 00444560     vtfdiff.obj
 0002:0000057c       ??_C@_0BE@MEJJHFNH@TEXTUREFLAGS_CLAMPT?$AA@ 0044457c     vtfdiff.obj
 0002:00000590       ??_C@_0BE@ILNIODBA@TEXTUREFLAGS_CLAMPS?$AA@ 00444590     vtfdiff.obj
 0002:000005a4       ??_C@_0BH@NMCJDKAP@TEXTUREFLAGS_TRILINEAR?$AA@ 004445a4     vtfdiff.obj
 0002:000005bc       ??_C@_04HDOCAJNK@?$CFs?$CFs?$AA@ 004445bc     vtfdiff.obj
 0002:000005c4       ??_C@_0BJ@OIFHPCON@TEXTUREFLAGS_POINTSAMPLE?$AA@ 004445c4     vtfdiff.obj
 0002:000005dd       ??_C@_00CNPNBAHC@?$AA@     004445dd     vtfdiff.obj
 0002:000005e0       ??_C@_01DNKMNLPK@?$HM?$AA@ 004445e0     vtfdiff.obj
 0002:000005e4       ??_C@_0BE@DIJNDOLK@Can?8t?5find?5file?5?$CFs?6?$AA@ 004445e4     vtfdiff.obj
 0002:000005f8       ??_C@_02JDPG@rb?$AA@       004445f8     vtfdiff.obj
 0002:000005fc       ??_C@_0BG@EMENODEA@CUtlRBTree?5overflow?$CB?6?$AA@ 004445fc     vtfdiff.obj
 0002:00000614       ??_C@_0BP@OKBGBEPI@?$CFs?5different?5resource?5?$CFs?5data?6?$AA@ 00444614     vtfdiff.obj
 0002:00000634       ??_C@_0CI@KFJAJMLO@?$CFs?5different?5resource?5?$CFs?5size?5?$CFs@ 00444634     vtfdiff.obj
 0002:0000065c       ??_C@_0BN@OIEMGIAH@?$CFs?5different?5resource?5?$CFs?5?$CFs?6?$AA@ 0044465c     vtfdiff.obj
 0002:0000067c       ??_C@_07NCACNKHJ@missing?$AA@ 0044467c     vtfdiff.obj
 0002:00000684       ??_C@_07KONDCJBL@present?$AA@ 00444684     vtfdiff.obj
 0002:0000068c       ??_C@_0CB@FAAFLEPB@?$CFs?5differing?5low?5res?5image?5data?6@ 0044468c     vtfdiff.obj
 0002:000006b0       ??_C@_0DA@PKJHCAH@?$CFs?5differing?5low?5res?5image?5data?5@ 004446b0     vtfdiff.obj
 0002:000006e0       ??_C@_0CD@BFBNLPLK@image?5data?5significantly?5differs@ 004446e0     vtfdiff.obj
 0002:00000704       ??_C@_0CD@HNGDHFKA@image?5data?5at?5offset?5?$CFd?5differen@ 00444704     vtfdiff.obj
 0002:00000728       ??_C@_0ED@DIAOBEFE@Frame?5?$CFd?5Mip?5level?5?$CFd?5Face?5?$CFd?5Z?9@ 00444728     vtfdiff.obj
 0002:0000076c       ??_C@_0BJ@CMLFACD@?$CFs?5image?5data?5different?6?$AA@ 0044476c     vtfdiff.obj
 0002:00000788       ??_C@_0CI@KKDOFHB@?$CFs?5differing?5image?5data?5size?3?5?$CFd@ 00444788     vtfdiff.obj
 0002:000007b0       ??_C@_0DF@PGKIBFGO@?$CFs?5differing?5reflectivity?3?5?$FL?$CFf?0?$CF@ 004447b0     vtfdiff.obj
 0002:000007e8       __real@38d1b717            004447e8     vtfdiff.obj
 0002:000007ec       ??_C@_0CM@MDAIELEC@?$CFs?5differing?5lowres?5image?5format@ 004447ec     vtfdiff.obj
 0002:00000818       ??_C@_0CF@PEEEJLEE@?$CFs?5differing?5image?5format?3?5?$CFs?5?$CB?$DN@ 00444818     vtfdiff.obj
 0002:00000840       ??_C@_0CC@GOPFOPME@?$CFs?5differing?5bumpscale?3?5?$CFf?5?$CB?$DN?5?$CFf@ 00444840     vtfdiff.obj
 0002:00000864       ??_C@_02MBJIFMOJ@?$CC?6?$AA@ 00444864     vtfdiff.obj
 0002:00000868       ??_C@_06FMACCLAK@?$CC?5?$CB?$DN?5?$CC?$AA@ 00444868     vtfdiff.obj
 0002:00000870       ??_C@_0BG@NENLBEAP@?$CFs?5differing?5flags?3?5?$CC?$AA@ 00444870     vtfdiff.obj
 0002:00000888       ??_C@_0CD@CPJAJODF@?$CFs?5differing?5framecount?3?5?$CFd?5?$CB?$DN?5?$CF@ 00444888     vtfdiff.obj
 0002:000008ac       ??_C@_0CC@FHODHHOJ@?$CFs?5differing?5facecount?3?5?$CFd?5?$CB?$DN?5?$CFd@ 004448ac     vtfdiff.obj
 0002:000008d0       ??_C@_0CC@POFABOBF@?$CFs?5differing?5mipcounts?3?5?$CFd?5?$CB?$DN?5?$CFd@ 004448d0     vtfdiff.obj
 0002:000008f4       ??_C@_0CN@CAIELHGN@?$CFs?5lowres?5dimensions?5differ?3?5?$CFdx@ 004448f4     vtfdiff.obj
 0002:00000924       ??_C@_0CM@BBIGMHCD@?$CFs?5dimensions?5differ?3?5?$CFdx?$CFdx?$CFd?5?$CB@ 00444924     vtfdiff.obj
 0002:00000950       ??_C@_0BC@PHCFOKHI@error?5loading?5?$CFs?6?$AA@ 00444950     vtfdiff.obj
 0002:00000964       ??_C@_05OIKDKKFM@ATI2N?$AA@ 00444964     bitmap:imageformat.obj
 0002:0000096c       ??_C@_05OKOFBEAF@ATI1N?$AA@ 0044496c     bitmap:imageformat.obj
 0002:00000974       ??_C@_07CFELPLPD@NV_NULL?$AA@ 00444974     bitmap:imageformat.obj
 0002:0000097c       ??_C@_09JCCMAMGI@ATI_DST24?$AA@ 0044497c     bitmap:imageformat.obj
 0002:00000988       ??_C@_09KCFMNALD@ATI_DST16?$AA@ 00444988     bitmap:imageformat.obj
 0002:00000994       ??_C@_07FDMLLIPO@NV_RAWZ?$AA@ 00444994     bitmap:imageformat.obj
 0002:0000099c       ??_C@_07BONOLAGC@NV_INTZ?$AA@ 0044499c     bitmap:imageformat.obj
 0002:000009a4       ??_C@_08HKKCPHEG@NV_DST24?$AA@ 004449a4     bitmap:imageformat.obj
 0002:000009b0       ??_C@_08EKNCCLJN@NV_DST16?$AA@ 004449b0     bitmap:imageformat.obj
 0002:000009bc       ??_C@_0BL@OLOJPJLN@IMAGE_FORMAT_RGBA32323232F?$AA@ 004449bc     bitmap:imageformat.obj
 0002:000009d8       ??_C@_0BI@FLDBGJMJ@IMAGE_FORMAT_RGB323232F?$AA@ 004449d8     bitmap:imageformat.obj
 0002:000009f0       ??_C@_0BC@EJLIBMHN@IMAGE_FORMAT_R32F?$AA@ 004449f0     bitmap:imageformat.obj
 0002:00000a04       ??_C@_0BG@EPLNNPIA@IMAGE_FORMAT_UVLX8888?$AA@ 00444a04     bitmap:imageformat.obj
 0002:00000a1c       ??_C@_0N@GBJBEFCM@RGBA16161616?$AA@ 00444a1c     bitmap:imageformat.obj
 0002:00000a2c       ??_C@_0O@JEJKBFCF@RGBA16161616F?$AA@ 00444a2c     bitmap:imageformat.obj
 0002:00000a3c       ??_C@_08KPDDCJI@UVWQ8888?$AA@ 00444a3c     bitmap:imageformat.obj
 0002:00000a48       ??_C@_04BKKPBAPE@UV88?$AA@ 00444a48     bitmap:imageformat.obj
 0002:00000a50       ??_C@_08PAENDFNP@BGRA5551?$AA@ 00444a50     bitmap:imageformat.obj
 0002:00000a5c       ??_C@_0BB@BFEFPFPF@DXT1_ONEBITALPHA?$AA@ 00444a5c     bitmap:imageformat.obj
 0002:00000a70       ??_C@_08JCEOFHI@BGRA4444?$AA@ 00444a70     bitmap:imageformat.obj
 0002:00000a7c       ??_C@_08NEJEGGIM@BGRX5551?$AA@ 00444a7c     bitmap:imageformat.obj
 0002:00000a88       ??_C@_06KEKLLBKJ@BGR565?$AA@ 00444a88     bitmap:imageformat.obj
 0002:00000a90       ??_C@_08HHEFCPK@BGRX8888?$AA@ 00444a90     bitmap:imageformat.obj
 0002:00000a9c       ??_C@_04FDJDJFPM@DXT5?$AA@ 00444a9c     bitmap:imageformat.obj
 0002:00000aa4       ??_C@_04FMJDCHK@DXT3?$AA@  00444aa4     bitmap:imageformat.obj
 0002:00000aac       ??_C@_04DHPPFAPI@DXT1?$AA@ 00444aac     bitmap:imageformat.obj
 0002:00000ab4       ??_C@_08CDKNABKJ@BGRA8888?$AA@ 00444ab4     bitmap:imageformat.obj
 0002:00000ac0       ??_C@_08JNAJMDOE@ARGB8888?$AA@ 00444ac0     bitmap:imageformat.obj
 0002:00000acc       ??_C@_0BC@KDPNAOFO@BGR888_BLUESCREEN?$AA@ 00444acc     bitmap:imageformat.obj
 0002:00000ae0       ??_C@_0BC@GLHJGMNI@RGB888_BLUESCREEN?$AA@ 00444ae0     bitmap:imageformat.obj
 0002:00000af4       ??_C@_02GGHJHNOB@A8?$AA@   00444af4     bitmap:imageformat.obj
 0002:00000af8       ??_C@_02HLJNLEKG@P8?$AA@   00444af8     bitmap:imageformat.obj
 0002:00000afc       ??_C@_04HCHBAFFB@IA88?$AA@ 00444afc     bitmap:imageformat.obj
 0002:00000b04       ??_C@_02GIGKCMFJ@I8?$AA@   00444b04     bitmap:imageformat.obj
 0002:00000b08       ??_C@_06KDJFLKOF@RGB565?$AA@ 00444b08     bitmap:imageformat.obj
 0002:00000b10       ??_C@_06OJPBDKDD@BGR888?$AA@ 00444b10     bitmap:imageformat.obj
 0002:00000b18       ??_C@_06OOMPDBHP@RGB888?$AA@ 00444b18     bitmap:imageformat.obj
 0002:00000b20       ??_C@_08OCGEPAFE@ABGR8888?$AA@ 00444b20     bitmap:imageformat.obj
 0002:00000b2c       ??_C@_08OILDNPBG@RGBA8888?$AA@ 00444b2c     bitmap:imageformat.obj
 0002:00000b38       ??_C@_07NFANNNEC@UNKNOWN?$AA@ 00444b38     bitmap:imageformat.obj
 0002:00000b44       ??_C@_01BJJEKLCA@?$CC?$AA@ 00444b44     tier1:utlbuffer.obj
 0002:00000b48       ??_C@_01GEODFPGF@?8?$AA@   00444b48     tier1:utlbuffer.obj
 0002:00000b4c       ??_C@_01OGPIMHDM@?$DP?$AA@ 00444b4c     tier1:utlbuffer.obj
 0002:00000b50       ??_C@_01KICIPPFI@?2?$AA@   00444b50     tier1:utlbuffer.obj
 0002:00000b54       ??_C@_01MCMALHOG@a?$AA@    00444b54     tier1:utlbuffer.obj
 0002:00000b58       ??_C@_01INIBCBCB@f?$AA@    00444b58     tier1:utlbuffer.obj
 0002:00000b5c       ??_C@_01KDCPPGHE@r?$AA@    00444b5c     tier1:utlbuffer.obj
 0002:00000b60       ??_C@_01OJONOECF@b?$AA@    00444b60     tier1:utlbuffer.obj
 0002:00000b64       ??_C@_01MHEDDDHA@v?$AA@    00444b64     tier1:utlbuffer.obj
 0002:00000b68       ??_C@_01PFHFFBPC@t?$AA@    00444b68     tier1:utlbuffer.obj
 0002:00000b6c       ??_C@_01EFFIKLCJ@n?$AA@    00444b6c     tier1:utlbuffer.obj
 0002:00000b74       ??_7CUtlCharConversion@@6B@ 00444b74     tier1:utlbuffer.obj
 0002:00000b7c       ??_7CUtlNoEscConversion@@6B@ 00444b7c     tier1:utlbuffer.obj
 0002:00000b84       ??_7CUtlCStringConversion@@6B@ 00444b84     tier1:utlbuffer.obj
 0002:00000b88       __real@4048000000000000    00444b88     tier1:strtools.obj
 0002:00000b90       __real@0000000000000000    00444b90     tier1:strtools.obj
 0002:00000b98       __real@447a0000            00444b98     tier1:strtools.obj
 0002:00000b9c       ??_C@_01JOAMLHOP@?9?$AA@   00444b9c     tier1:strtools.obj
 0002:00000ba0       ??_C@_0BE@DFJMOMFG@VTFFileHeaderX360_t?$AA@ 00444ba0     vtf:vtf.obj
 0002:00000bb4       ??_C@_0BA@PDDLLJA@VTFFileHeader_t?$AA@ 00444bb4     vtf:vtf.obj
 0002:00000bc4       ??_C@_0BE@HIKFGPMP@VTFFileHeaderV7_3_t?$AA@ 00444bc4     vtf:vtf.obj
 0002:00000bd8       ??_C@_0BE@MABJAIKK@VTFFileHeaderV7_2_t?$AA@ 00444bd8     vtf:vtf.obj
 0002:00000bec       ??_C@_0BE@NCKMKHEE@VTFFileHeaderV7_1_t?$AA@ 00444bec     vtf:vtf.obj
 0002:00000c00       ??_C@_0BE@HCIDAHJO@VTFFileBaseHeader_t?$AA@ 00444c00     vtf:vtf.obj
 0002:00000c14       __real@3f800000            00444c14     vtf:vtf.obj
 0002:00000c18       __real@3ecccccd            00444c18     vtf:vtf.obj
 0002:00000c1c       ??_C@_0DO@GBPJBKJC@Warning?$CB?5Encountered?5old?5format?5@ 00444c1c     vtf:vtf.obj
 0002:00000c5c       ??_C@_0DJ@LIBGGGAP@?$CK?$CK?$CK?5Encountered?5VTF?5file?5with?5an@ 00444c5c     vtf:vtf.obj
 0002:00000c98       __real@bf800000            00444c98     vtf:vtf.obj
 0002:00000c9c       __real@3f000000            00444c9c     vtf:vtf.obj
 0002:00000ca0       __real@3fe0000000000000    00444ca0     vtf:vtf.obj
 0002:00000ca8       __real@c0000000            00444ca8     vtf:vtf.obj
 0002:00000cac       __real@3e800000            00444cac     vtf:vtf.obj
 0002:00000cb0       __real@437f0000            00444cb0     vtf:vtf.obj
 0002:00000cb4       __real@3e4ccccd            00444cb4     vtf:vtf.obj
 0002:00000cb8       __real@400ccccd            00444cb8     vtf:vtf.obj
 0002:00000cbc       ??_C@_01EEMJAFIK@?6?$AA@   00444cbc     vtf:vtf.obj
 0002:00000cc0       ??_C@_0P@DBIAMLO@?5?5?5?$CFc?$DN?$CFd?5?$HO?$CFd?$CF?$CF?$AA@ 00444cc0     vtf:vtf.obj
 0002:00000cd0       __real@42c80000            00444cd0     vtf:vtf.obj
 0002:00000cd4       ??_C@_0BI@BDJEJLNC@Blending?5mip?$CFd?5?$CFdx?$CFd?5to?$AA@ 00444cd4     vtf:vtf.obj
 0002:00000cec       ??_C@_0DF@GPPDIPDC@BlendCubeMapFaceEdges?3?5unsupport@ 00444cec     vtf:vtf.obj
 0002:00000d24       ??_C@_0DH@FCHKBKML@?$CK?$CK?$CK?5Encountered?5VTF?5file?5with?5an@ 00444d24     vtf:vtf.obj
 0002:00000d5c       ??_C@_0DD@PIDBFMOO@?$CK?$CK?$CK?5Encountered?5VTF?5file?5with?5an@ 00444d5c     vtf:vtf.obj
 0002:00000d90       ??_C@_0DB@LAMDBMNJ@?$CK?$CK?$CK?5Tried?5to?5load?5a?5non?9VTF?5file@ 00444d90     vtf:vtf.obj
 0002:00000dc4       ??_C@_03PNELBOHC@VTF?$AA@  00444dc4     vtf:vtf.obj
 0002:00000dc8       ??_C@_0DI@LLDOCADD@?$CK?$CK?$CK?5Error?5unserializing?5VTF?5file@ 00444dc8     vtf:vtf.obj
 0002:00000e04       ??_7CVTFTexture@@6B@       00444e04     vtf:vtf.obj
 0002:00000ee0       ??_C@_0DA@JGJBJOIC@?$CK?$CK?$CK?5Unable?5to?5serialize?4?4?4?5have?5@ 00444ee0     vtf:vtf.obj
 0002:00000f10       ??_C@_0P@MLAPKELC@fileTypeString?$AA@ 00444f10     vtf:vtf.obj
 0002:00000f20       ??_C@_07CPCPJPKL@version?$AA@ 00444f20     vtf:vtf.obj
 0002:00000f28       ??_C@_0L@LBANHNIC@headerSize?$AA@ 00444f28     vtf:vtf.obj
 0002:00000f34       ??_C@_05IGKADHGO@width?$AA@ 00444f34     vtf:vtf.obj
 0002:00000f3c       ??_C@_06LNLHEAAG@height?$AA@ 00444f3c     vtf:vtf.obj
 0002:00000f44       ??_C@_05GECEPKB@flags?$AA@ 00444f44     vtf:vtf.obj
 0002:00000f4c       ??_C@_09GEKACOOO@numFrames?$AA@ 00444f4c     vtf:vtf.obj
 0002:00000f58       ??_C@_0L@DAFMKFBI@startFrame?$AA@ 00444f58     vtf:vtf.obj
 0002:00000f64       ??_C@_0N@LJNLFOD@reflectivity?$AA@ 00444f64     vtf:vtf.obj
 0002:00000f74       ??_C@_09FKIAOKBL@bumpScale?$AA@ 00444f74     vtf:vtf.obj
 0002:00000f80       ??_C@_0M@KCNMOFJC@imageFormat?$AA@ 00444f80     vtf:vtf.obj
 0002:00000f8c       ??_C@_0N@PAMEODPM@numMipLevels?$AA@ 00444f8c     vtf:vtf.obj
 0002:00000f9c       ??_C@_0BC@ODLGANAI@lowResImageFormat?$AA@ 00444f9c     vtf:vtf.obj
 0002:00000fb0       ??_C@_0BB@HCODKAMG@lowResImageWidth?$AA@ 00444fb0     vtf:vtf.obj
 0002:00000fc4       ??_C@_0BC@GFEOCIEL@lowResImageHeight?$AA@ 00444fc4     vtf:vtf.obj
 0002:00000fd8       ??_C@_05BJGJGKJC@depth?$AA@ 00444fd8     vtf:vtf.obj
 0002:00000fe0       ??_C@_0N@GMGDCOGH@numResources?$AA@ 00444fe0     vtf:vtf.obj
 0002:00000ff0       ??_C@_0BA@NBJOFFPL@preloadDataSize?$AA@ 00444ff0     vtf:vtf.obj
 0002:00001000       ??_C@_0N@JKABNMJG@mipSkipCount?$AA@ 00445000     vtf:vtf.obj
 0002:00001010       ??_C@_0BC@PHJIOAED@lowResImageSample?$AA@ 00445010     vtf:vtf.obj
 0002:00001024       ??_C@_0P@IEFIMPBE@compressedSize?$AA@ 00445024     vtf:vtf.obj
 0002:00001034       ??_C@_0CL@EOJJNAIP@?$CK?$CK?$CK?5Encountered?5VTF?5invalid?5text@ 00445034     vtf:vtf.obj
 0002:00001060       ??_C@_0CN@NDAFOEKI@?$CK?$CK?$CK?5Encountered?5VTF?5volume?5textu@ 00445060     vtf:vtf.obj
 0002:00001090       ??_C@_0CJ@MFDAKNAJ@?$CK?$CK?$CK?5Encountered?5VTF?5non?9square?5c@ 00445090     vtf:vtf.obj
 0002:000010bc       ??_C@_0CJ@JBJPBPEG@Image?5dimensions?5must?5be?5multipl@ 004450bc     vtf:vtf.obj
 0002:000010e8       ??_C@_0BP@KGAAMOBJ@Depth?5must?5be?51?5for?5cubemaps?$CB?6?$AA@ 004450e8     vtf:vtf.obj
 0002:00001108       ??_C@_0CO@IPADFNJN@Height?5and?5width?5must?5be?5equal?5f@ 00445108     vtf:vtf.obj
 0002:00001138       ??_C@_0CP@BOKKEMAO@GenerateRepresentativePalette?3?5n@ 00445138     vtf:s3tc_decode.obj
 0002:00001168       ?nanmask@@3HB              00445168     mathlib:mathlib_base.obj
 0002:0000116c       __real@34000000            0044516c     mathlib:mathlib_base.obj
 0002:00001170       __real@400921fb54442d18    00445170     mathlib:mathlib_base.obj
 0002:00001178       __real@4000000000000000    00445178     mathlib:mathlib_base.obj
 0002:00001180       __real@3ff0000000000000    00445180     mathlib:mathlib_base.obj
 0002:00001188       __real@40400000            00445188     mathlib:mathlib_base.obj
 0002:0000118c       __real@bf000000            0044518c     mathlib:mathlib_base.obj
 0002:00001190       __real@406fe00000000000    00445190     mathlib:color_conversion.obj
 0002:00001198       __real@3b808081            00445198     mathlib:color_conversion.obj
 0002:000011a0       __real@3fc0000000000000    004451a0     mathlib:color_conversion.obj
 0002:00001270       __FPinit                   00445270     LIBCMT:_fpinit_.obj
 0002:00001274       ??_C@_03LLEJOLGL@?4?1?2?$AA@ 00445274     LIBCMT:stati32.obj
 0002:00001278       ??_C@_02EAOCEIGI@?$DP?$CK?$AA@ 00445278     LIBCMT:stati32.obj
 0002:00001280       ??_7type_info@@6B@         00445280     LIBCMT:typinfo.obj
 0002:000012e0       __OP_FMODjmptab            004452e0     LIBCMT:_87fmod_.obj
 0002:00001380       ??_C@_1O@CEDCILHN@?$AA?$CI?$AAn?$AAu?$AAl?$AAl?$AA?$CJ?$AA?$AA@ 00445380     LIBCMT:output.obj
 0002:00001390       ??_C@_06OJHGLDPL@?$CInull?$CJ?$AA@ 00445390     LIBCMT:output.obj
 0002:00001398       ___lookuptable             00445398     LIBCMT:output.obj
 0002:000013f4       ??_C@_05KLBDPFGC@e?$CL000?$AA@ 004453f4     LIBCMT:cvt.obj
 0002:0000141c       ??_C@_04PNGHFIJN@?4com?$AA@ 0044541c     LIBCMT:stat.obj
 0002:00001424       ??_C@_04NEEFLLOK@?4bat?$AA@ 00445424     LIBCMT:stat.obj
 0002:0000142c       ??_C@_04CPCBDHLK@?4cmd?$AA@ 0044542c     LIBCMT:stat.obj
 0002:00001434       ??_C@_04JLMDILM@?4exe?$AA@ 00445434     LIBCMT:stat.obj
 0002:0000143c       ??_C@_0P@MIGLKIOC@CorExitProcess?$AA@ 0044543c     LIBCMT:crt0dat.obj
 0002:0000144c       ??_C@_1BI@BGOHAHKC@?$AAm?$AAs?$AAc?$AAo?$AAr?$AAe?$AAe?$AA?4?$AAd?$AAl?$AAl?$AA?$AA@ 0044544c     LIBCMT:crt0dat.obj
 0002:00001464       ??_C@_1BO@BKOMIGKJ@?$AAr?$AAu?$AAn?$AAt?$AAi?$AAm?$AAe?$AA?5?$AAe?$AAr?$AAr?$AAo?$AAr?$AA?5?$AA?$AA@ 00445464     LIBCMT:crt0msg.obj
 0002:00001484       ??_C@_15JNBOKNOG@?$AA?$AN?$AA?6?$AA?$AA@ 00445484     LIBCMT:crt0msg.obj
 0002:0000148c       ??_C@_1BM@JBBEPPHI@?$AAT?$AAL?$AAO?$AAS?$AAS?$AA?5?$AAe?$AAr?$AAr?$AAo?$AAr?$AA?$AN?$AA?6?$AA?$AA@ 0044548c     LIBCMT:crt0msg.obj
 0002:000014a8       ??_C@_1BK@KMOMNAAI@?$AAS?$AAI?$AAN?$AAG?$AA?5?$AAe?$AAr?$AAr?$AAo?$AAr?$AA?$AN?$AA?6?$AA?$AA@ 004454a8     LIBCMT:crt0msg.obj
 0002:000014c4       ??_C@_1BO@BFCDCGC@?$AAD?$AAO?$AAM?$AAA?$AAI?$AAN?$AA?5?$AAe?$AAr?$AAr?$AAo?$AAr?$AA?$AN?$AA?6?$AA?$AA@ 004454c4     LIBCMT:crt0msg.obj
 0002:000014e8       ??_C@_1BOO@KGEDBGAJ@?$AAR?$AA6?$AA0?$AA3?$AA3?$AA?$AN?$AA?6?$AA?9?$AA?5?$AAA?$AAt?$AAt?$AAe?$AAm?$AAp?$AAt?$AA?5?$AAt?$AAo?$AA?5?$AAu?$AAs?$AAe?$AA?5?$AAM?$AAS?$AAI?$AAL?$AA?5?$AAc?$AAo?$AAd@ 004454e8     LIBCMT:crt0msg.obj
 0002:000016d8       ??_C@_1GG@GOPILAJP@?$AAR?$AA6?$AA0?$AA3?$AA2?$AA?$AN?$AA?6?$AA?9?$AA?5?$AAn?$AAo?$AAt?$AA?5?$AAe?$AAn?$AAo?$AAu?$AAg?$AAh?$AA?5?$AAs?$AAp?$AAa?$AAc?$AAe?$AA?5?$AAf?$AAo?$AAr?$AA?5?$AAl?$AAo@ 004456d8     LIBCMT:crt0msg.obj
 0002:00001740       ??_C@_1MG@ENCOOIDF@?$AAR?$AA6?$AA0?$AA3?$AA1?$AA?$AN?$AA?6?$AA?9?$AA?5?$AAA?$AAt?$AAt?$AAe?$AAm?$AAp?$AAt?$AA?5?$AAt?$AAo?$AA?5?$AAi?$AAn?$AAi?$AAt?$AAi?$AAa?$AAl?$AAi?$AAz?$AAe?$AA?5?$AAt@ 00445740     LIBCMT:crt0msg.obj
 0002:00001808       ??_C@_1DO@BMFCDCD@?$AAR?$AA6?$AA0?$AA3?$AA0?$AA?$AN?$AA?6?$AA?9?$AA?5?$AAC?$AAR?$AAT?$AA?5?$AAn?$AAo?$AAt?$AA?5?$AAi?$AAn?$AAi?$AAt?$AAi?$AAa?$AAl?$AAi?$AAz?$AAe?$AAd?$AA?$AN?$AA?6?$AA?$AA@ 00445808     LIBCMT:crt0msg.obj
 0002:00001848       ??_C@_1EK@HHFLMAOL@?$AAR?$AA6?$AA0?$AA2?$AA8?$AA?$AN?$AA?6?$AA?9?$AA?5?$AAu?$AAn?$AAa?$AAb?$AAl?$AAe?$AA?5?$AAt?$AAo?$AA?5?$AAi?$AAn?$AAi?$AAt?$AAi?$AAa?$AAl?$AAi?$AAz?$AAe?$AA?5?$AAh?$AAe@ 00445848     LIBCMT:crt0msg.obj
 0002:00001898       ??_C@_1GK@MFGOKLAG@?$AAR?$AA6?$AA0?$AA2?$AA7?$AA?$AN?$AA?6?$AA?9?$AA?5?$AAn?$AAo?$AAt?$AA?5?$AAe?$AAn?$AAo?$AAu?$AAg?$AAh?$AA?5?$AAs?$AAp?$AAa?$AAc?$AAe?$AA?5?$AAf?$AAo?$AAr?$AA?5?$AAl?$AAo@ 00445898     LIBCMT:crt0msg.obj
 0002:00001908       ??_C@_1GK@MCAAGJMO@?$AAR?$AA6?$AA0?$AA2?$AA6?$AA?$AN?$AA?6?$AA?9?$AA?5?$AAn?$AAo?$AAt?$AA?5?$AAe?$AAn?$AAo?$AAu?$AAg?$AAh?$AA?5?$AAs?$AAp?$AAa?$AAc?$AAe?$AA?5?$AAf?$AAo?$AAr?$AA?5?$AAs?$AAt@ 00445908     LIBCMT:crt0msg.obj
 0002:00001978       ??_C@_1EM@MAADIHMB@?$AAR?$AA6?$AA0?$AA2?$AA5?$AA?$AN?$AA?6?$AA?9?$AA?5?$AAp?$AAu?$AAr?$AAe?$AA?5?$AAv?$AAi?$AAr?$AAt?$AAu?$AAa?$AAl?$AA?5?$AAf?$AAu?$AAn?$AAc?$AAt?$AAi?$AAo?$AAn?$AA?5?$AAc@ 00445978     LIBCMT:crt0msg.obj
 0002:000019c8       ??_C@_1GK@FHCKBEFA@?$AAR?$AA6?$AA0?$AA2?$AA4?$AA?$AN?$AA?6?$AA?9?$AA?5?$AAn?$AAo?$AAt?$AA?5?$AAe?$AAn?$AAo?$AAu?$AAg?$AAh?$AA?5?$AAs?$AAp?$AAa?$AAc?$AAe?$AA?5?$AAf?$AAo?$AAr?$AA?5?$AA_?$AAo@ 004459c8     LIBCMT:crt0msg.obj
 0002:00001a38       ??_C@_1FC@ECHBIFBC@?$AAR?$AA6?$AA0?$AA1?$AA9?$AA?$AN?$AA?6?$AA?9?$AA?5?$AAu?$AAn?$AAa?$AAb?$AAl?$AAe?$AA?5?$AAt?$AAo?$AA?5?$AAo?$AAp?$AAe?$AAn?$AA?5?$AAc?$AAo?$AAn?$AAs?$AAo?$AAl?$AAe?$AA?5@ 00445a38     LIBCMT:crt0msg.obj
 0002:00001a90       ??_C@_1EC@JIBHAOPH@?$AAR?$AA6?$AA0?$AA1?$AA8?$AA?$AN?$AA?6?$AA?9?$AA?5?$AAu?$AAn?$AAe?$AAx?$AAp?$AAe?$AAc?$AAt?$AAe?$AAd?$AA?5?$AAh?$AAe?$AAa?$AAp?$AA?5?$AAe?$AAr?$AAr?$AAo?$AAr?$AA?$AN?$AA?6@ 00445a90     LIBCMT:crt0msg.obj
 0002:00001ad8       ??_C@_1FK@BEOGODMC@?$AAR?$AA6?$AA0?$AA1?$AA7?$AA?$AN?$AA?6?$AA?9?$AA?5?$AAu?$AAn?$AAe?$AAx?$AAp?$AAe?$AAc?$AAt?$AAe?$AAd?$AA?5?$AAm?$AAu?$AAl?$AAt?$AAi?$AAt?$AAh?$AAr?$AAe?$AAa?$AAd?$AA?5@ 00445ad8     LIBCMT:crt0msg.obj
 0002:00001b38       ??_C@_1FI@LOGNIKDM@?$AAR?$AA6?$AA0?$AA1?$AA6?$AA?$AN?$AA?6?$AA?9?$AA?5?$AAn?$AAo?$AAt?$AA?5?$AAe?$AAn?$AAo?$AAu?$AAg?$AAh?$AA?5?$AAs?$AAp?$AAa?$AAc?$AAe?$AA?5?$AAf?$AAo?$AAr?$AA?5?$AAt?$AAh@ 00445b38     LIBCMT:crt0msg.obj
 0002:00001b90       ??_C@_1EG@BEHAGFJD@?$AAR?$AA6?$AA0?$AA1?$AA0?$AA?$AN?$AA?6?$AA?9?$AA?5?$AAa?$AAb?$AAo?$AAr?$AAt?$AA?$CI?$AA?$CJ?$AA?5?$AAh?$AAa?$AAs?$AA?5?$AAb?$AAe?$AAe?$AAn?$AA?5?$AAc?$AAa?$AAl?$AAl?$AAe?$AAd@ 00445b90     LIBCMT:crt0msg.obj
 0002:00001bd8       ??_C@_1FI@HONFMGBI@?$AAR?$AA6?$AA0?$AA0?$AA9?$AA?$AN?$AA?6?$AA?9?$AA?5?$AAn?$AAo?$AAt?$AA?5?$AAe?$AAn?$AAo?$AAu?$AAg?$AAh?$AA?5?$AAs?$AAp?$AAa?$AAc?$AAe?$AA?5?$AAf?$AAo?$AAr?$AA?5?$AAe?$AAn@ 00445bd8     LIBCMT:crt0msg.obj
 0002:00001c30       ??_C@_1FE@LLNEDJMD@?$AAR?$AA6?$AA0?$AA0?$AA8?$AA?$AN?$AA?6?$AA?9?$AA?5?$AAn?$AAo?$AAt?$AA?5?$AAe?$AAn?$AAo?$AAu?$AAg?$AAh?$AA?5?$AAs?$AAp?$AAa?$AAc?$AAe?$AA?5?$AAf?$AAo?$AAr?$AA?5?$AAa?$AAr@ 00445c30     LIBCMT:crt0msg.obj
 0002:00001c88       ??_C@_1FK@PGACCAFB@?$AAR?$AA6?$AA0?$AA0?$AA2?$AA?$AN?$AA?6?$AA?9?$AA?5?$AAf?$AAl?$AAo?$AAa?$AAt?$AAi?$AAn?$AAg?$AA?5?$AAp?$AAo?$AAi?$AAn?$AAt?$AA?5?$AAs?$AAu?$AAp?$AAp?$AAo?$AAr?$AAt?$AA?5@ 00445c88     LIBCMT:crt0msg.obj
 0002:00001d98       ??_C@_1EK@MBDPDCGA@?$AAM?$AAi?$AAc?$AAr?$AAo?$AAs?$AAo?$AAf?$AAt?$AA?5?$AAV?$AAi?$AAs?$AAu?$AAa?$AAl?$AA?5?$AAC?$AA?$CL?$AA?$CL?$AA?5?$AAR?$AAu?$AAn?$AAt?$AAi?$AAm?$AAe?$AA?5?$AAL?$AAi?$AAb@ 00445d98     LIBCMT:crt0msg.obj
 0002:00001de4       ??_C@_15IABLJNFO@?$AA?6?$AA?6?$AA?$AA@ 00445de4     LIBCMT:crt0msg.obj
 0002:00001dec       ??_C@_17LGKOMLJ@?$AA?4?$AA?4?$AA?4?$AA?$AA@ 00445dec     LIBCMT:crt0msg.obj
 0002:00001df4       ??_C@_1CO@EAEJAADC@?$AA?$DM?$AAp?$AAr?$AAo?$AAg?$AAr?$AAa?$AAm?$AA?5?$AAn?$AAa?$AAm?$AAe?$AA?5?$AAu?$AAn?$AAk?$AAn?$AAo?$AAw?$AAn?$AA?$DO?$AA?$AA@ 00445df4     LIBCMT:crt0msg.obj
 0002:00001e24       ??_C@_1DE@JNGNBFGO@?$AAR?$AAu?$AAn?$AAt?$AAi?$AAm?$AAe?$AA?5?$AAE?$AAr?$AAr?$AAo?$AAr?$AA?$CB?$AA?6?$AA?6?$AAP?$AAr?$AAo?$AAg?$AAr?$AAa?$AAm?$AA?3?$AA?5?$AA?$AA@ 00445e24     LIBCMT:crt0msg.obj
 0002:00001e58       __XcptActTab               00445e58     LIBCMT:winxfltr.obj
 0002:00001ee8       __First_FPE_Indx           00445ee8     LIBCMT:winxfltr.obj
 0002:00001eec       __Num_FPE                  00445eec     LIBCMT:winxfltr.obj
 0002:00001ef0       __XcptActTabSize           00445ef0     LIBCMT:winxfltr.obj
 0002:00001ef4       __XcptActTabCount          00445ef4     LIBCMT:winxfltr.obj
 0002:00001ef8       ??_C@_1BK@DBDEIDLH@?$AAK?$AAE?$AAR?$AAN?$AAE?$AAL?$AA3?$AA2?$AA?4?$AAD?$AAL?$AAL?$AA?$AA@ 00445ef8     LIBCMT:tidtable.obj
 0002:00001f14       ??_C@_07PEJMOBNF@FlsFree?$AA@ 00445f14     LIBCMT:tidtable.obj
 0002:00001f1c       ??_C@_0M@JCPCPOEF@FlsSetValue?$AA@ 00445f1c     LIBCMT:tidtable.obj
 0002:00001f28       ??_C@_0M@GDNOONDI@FlsGetValue?$AA@ 00445f28     LIBCMT:tidtable.obj
 0002:00001f34       ??_C@_08KNHFBNJ@FlsAlloc?$AA@ 00445f34     LIBCMT:tidtable.obj
 0002:00001f40       ??_C@_1BC@GDGBMEMK@?$AAH?$AAH?$AA?3?$AAm?$AAm?$AA?3?$AAs?$AAs?$AA?$AA@ 00445f40     LIBCMT:nlsdata2.obj
 0002:00001f54       ??_C@_1CI@KNAKOEBC@?$AAd?$AAd?$AAd?$AAd?$AA?0?$AA?5?$AAM?$AAM?$AAM?$AAM?$AA?5?$AAd?$AAd?$AA?0?$AA?5?$AAy?$AAy?$AAy?$AAy?$AA?$AA@ 00445f54     LIBCMT:nlsdata2.obj
 0002:00001f7c       ??_C@_1BC@IEBCMHCM@?$AAM?$AAM?$AA?1?$AAd?$AAd?$AA?1?$AAy?$AAy?$AA?$AA@ 00445f7c     LIBCMT:nlsdata2.obj
 0002:00001f90       ??_C@_15CLMNNGEL@?$AAP?$AAM?$AA?$AA@ 00445f90     LIBCMT:nlsdata2.obj
 0002:00001f98       ??_C@_15ODEHAHHF@?$AAA?$AAM?$AA?$AA@ 00445f98     LIBCMT:nlsdata2.obj
 0002:00001fa0       ??_C@_1BC@FEMKIFH@?$AAD?$AAe?$AAc?$AAe?$AAm?$AAb?$AAe?$AAr?$AA?$AA@ 00445fa0     LIBCMT:nlsdata2.obj
 0002:00001fb4       ??_C@_1BC@BGLIFPF@?$AAN?$AAo?$AAv?$AAe?$AAm?$AAb?$AAe?$AAr?$AA?$AA@ 00445fb4     LIBCMT:nlsdata2.obj
 0002:00001fc8       ??_C@_1BA@EPANDLNG@?$AAO?$AAc?$AAt?$AAo?$AAb?$AAe?$AAr?$AA?$AA@ 00445fc8     LIBCMT:nlsdata2.obj
 0002:00001fd8       ??_C@_1BE@DKAAMBJL@?$AAS?$AAe?$AAp?$AAt?$AAe?$AAm?$AAb?$AAe?$AAr?$AA?$AA@ 00445fd8     LIBCMT:nlsdata2.obj
 0002:00001fec       ??_C@_1O@PAHLKOAC@?$AAA?$AAu?$AAg?$AAu?$AAs?$AAt?$AA?$AA@ 00445fec     LIBCMT:nlsdata2.obj
 0002:00001ffc       ??_C@_19BIFMLPCD@?$AAJ?$AAu?$AAl?$AAy?$AA?$AA@ 00445ffc     LIBCMT:nlsdata2.obj
 0002:00002008       ??_C@_19EPFLPGAP@?$AAJ?$AAu?$AAn?$AAe?$AA?$AA@ 00446008     LIBCMT:nlsdata2.obj
 0002:00002014       ??_C@_1M@GJNLMHFD@?$AAA?$AAp?$AAr?$AAi?$AAl?$AA?$AA@ 00446014     LIBCMT:nlsdata2.obj
 0002:00002020       ??_C@_1M@IKEENEDF@?$AAM?$AAa?$AAr?$AAc?$AAh?$AA?$AA@ 00446020     LIBCMT:nlsdata2.obj
 0002:0000202c       ??_C@_1BC@JGDDFFAM@?$AAF?$AAe?$AAb?$AAr?$AAu?$AAa?$AAr?$AAy?$AA?$AA@ 0044602c     LIBCMT:nlsdata2.obj
 0002:00002040       ??_C@_1BA@EFMEIEBA@?$AAJ?$AAa?$AAn?$AAu?$AAa?$AAr?$AAy?$AA?$AA@ 00446040     LIBCMT:nlsdata2.obj
 0002:00002050       ??_C@_17EGKACKIF@?$AAD?$AAe?$AAc?$AA?$AA@ 00446050     LIBCMT:nlsdata2.obj
 0002:00002058       ??_C@_17BBDMLCIG@?$AAN?$AAo?$AAv?$AA?$AA@ 00446058     LIBCMT:nlsdata2.obj
 0002:00002060       ??_C@_17FNLKOI@?$AAO?$AAc?$AAt?$AA?$AA@ 00446060     LIBCMT:nlsdata2.obj
 0002:00002068       ??_C@_17HCHCOKMG@?$AAS?$AAe?$AAp?$AA?$AA@ 00446068     LIBCMT:nlsdata2.obj
 0002:00002070       ??_C@_17ICPELBCN@?$AAA?$AAu?$AAg?$AA?$AA@ 00446070     LIBCMT:nlsdata2.obj
 0002:00002078       ??_C@_17IJPCKHK@?$AAJ?$AAu?$AAl?$AA?$AA@ 00446078     LIBCMT:nlsdata2.obj
 0002:00002080       ??_C@_17KCJGOCPB@?$AAJ?$AAu?$AAn?$AA?$AA@ 00446080     LIBCMT:nlsdata2.obj
 0002:00002088       ??_C@_17PNNKMEED@?$AAM?$AAa?$AAy?$AA?$AA@ 00446088     LIBCMT:nlsdata2.obj
 0002:00002090       ??_C@_17LFPOIHDD@?$AAA?$AAp?$AAr?$AA?$AA@ 00446090     LIBCMT:nlsdata2.obj
 0002:00002098       ??_C@_17CKNLEDEC@?$AAM?$AAa?$AAr?$AA?$AA@ 00446098     LIBCMT:nlsdata2.obj
 0002:000020a0       ??_C@_17LMDJEKJN@?$AAF?$AAe?$AAb?$AA?$AA@ 004460a0     LIBCMT:nlsdata2.obj
 0002:000020a8       ??_C@_17DKNBKCHM@?$AAJ?$AAa?$AAn?$AA?$AA@ 004460a8     LIBCMT:nlsdata2.obj
 0002:000020b0       ??_C@_1BC@ENMNNPAJ@?$AAS?$AAa?$AAt?$AAu?$AAr?$AAd?$AAa?$AAy?$AA?$AA@ 004460b0     LIBCMT:nlsdata2.obj
 0002:000020c4       ??_C@_1O@PDICJHAG@?$AAF?$AAr?$AAi?$AAd?$AAa?$AAy?$AA?$AA@ 004460c4     LIBCMT:nlsdata2.obj
 0002:000020d4       ??_C@_1BC@HHMNLIHE@?$AAT?$AAh?$AAu?$AAr?$AAs?$AAd?$AAa?$AAy?$AA?$AA@ 004460d4     LIBCMT:nlsdata2.obj
 0002:000020e8       ??_C@_1BE@EBOGMDOH@?$AAW?$AAe?$AAd?$AAn?$AAe?$AAs?$AAd?$AAa?$AAy?$AA?$AA@ 004460e8     LIBCMT:nlsdata2.obj
 0002:000020fc       ??_C@_1BA@ENFBFFEK@?$AAT?$AAu?$AAe?$AAs?$AAd?$AAa?$AAy?$AA?$AA@ 004460fc     LIBCMT:nlsdata2.obj
 0002:0000210c       ??_C@_1O@MMNBFLIA@?$AAM?$AAo?$AAn?$AAd?$AAa?$AAy?$AA?$AA@ 0044610c     LIBCMT:nlsdata2.obj
 0002:0000211c       ??_C@_1O@IHNHDHPB@?$AAS?$AAu?$AAn?$AAd?$AAa?$AAy?$AA?$AA@ 0044611c     LIBCMT:nlsdata2.obj
 0002:0000212c       ??_C@_17GGIBDPIH@?$AAS?$AAa?$AAt?$AA?$AA@ 0044612c     LIBCMT:nlsdata2.obj
 0002:00002134       ??_C@_17HFOLPPLP@?$AAF?$AAr?$AAi?$AA?$AA@ 00446134     LIBCMT:nlsdata2.obj
 0002:0000213c       ??_C@_17PDPHAADD@?$AAT?$AAh?$AAu?$AA?$AA@ 0044613c     LIBCMT:nlsdata2.obj
 0002:00002144       ??_C@_17CJEDCEPE@?$AAW?$AAe?$AAd?$AA?$AA@ 00446144     LIBCMT:nlsdata2.obj
 0002:0000214c       ??_C@_17BMKGEGOJ@?$AAT?$AAu?$AAe?$AA?$AA@ 0044614c     LIBCMT:nlsdata2.obj
 0002:00002154       ??_C@_17KBOMKBF@?$AAM?$AAo?$AAn?$AA?$AA@ 00446154     LIBCMT:nlsdata2.obj
 0002:0000215c       ??_C@_17MBGCMIPB@?$AAS?$AAu?$AAn?$AA?$AA@ 0044615c     LIBCMT:nlsdata2.obj
 0002:00002164       ??_C@_08JCCMCCIL@HH?3mm?3ss?$AA@ 00446164     LIBCMT:nlsdata2.obj
 0002:00002170       ??_C@_0BE@CKGJFCPC@dddd?0?5MMMM?5dd?0?5yyyy?$AA@ 00446170     LIBCMT:nlsdata2.obj
 0002:00002184       ??_C@_08BPBNCDIB@MM?1dd?1yy?$AA@ 00446184     LIBCMT:nlsdata2.obj
 0002:00002190       ??_C@_02CJNFDJBF@PM?$AA@   00446190     LIBCMT:nlsdata2.obj
 0002:00002194       ??_C@_02DEDBPAFC@AM?$AA@   00446194     LIBCMT:nlsdata2.obj
 0002:00002198       ??_C@_08EDHMEBNP@December?$AA@ 00446198     LIBCMT:nlsdata2.obj
 0002:000021a4       ??_C@_08HCHEGEOA@November?$AA@ 004461a4     LIBCMT:nlsdata2.obj
 0002:000021b0       ??_C@_07JJNFCEND@October?$AA@ 004461b0     LIBCMT:nlsdata2.obj
 0002:000021b8       ??_C@_09BHHEALKD@September?$AA@ 004461b8     LIBCMT:nlsdata2.obj
 0002:000021c4       ??_C@_06LBBHFDDG@August?$AA@ 004461c4     LIBCMT:nlsdata2.obj
 0002:000021cc       ??_C@_04MIEPOIFP@July?$AA@ 004461cc     LIBCMT:nlsdata2.obj
 0002:000021d4       ??_C@_04CNLMGBGM@June?$AA@ 004461d4     LIBCMT:nlsdata2.obj
 0002:000021dc       ??_C@_05DMJDNLEJ@April?$AA@ 004461dc     LIBCMT:nlsdata2.obj
 0002:000021e4       ??_C@_05HPCKOFNC@March?$AA@ 004461e4     LIBCMT:nlsdata2.obj
 0002:000021ec       ??_C@_08GNJGEPFN@February?$AA@ 004461ec     LIBCMT:nlsdata2.obj
 0002:000021f8       ??_C@_07CGJPFGJA@January?$AA@ 004461f8     LIBCMT:nlsdata2.obj
 0002:00002200       ??_C@_03MKABNOCG@Dec?$AA@  00446200     LIBCMT:nlsdata2.obj
 0002:00002204       ??_C@_03JPJOFNIA@Nov?$AA@  00446204     LIBCMT:nlsdata2.obj
 0002:00002208       ??_C@_03BMAOKBAD@Oct?$AA@  00446208     LIBCMT:nlsdata2.obj
 0002:0000220c       ??_C@_03GGCAPAJC@Sep?$AA@  0044620c     LIBCMT:nlsdata2.obj
 0002:00002210       ??_C@_03IFJFEIGA@Aug?$AA@  00446210     LIBCMT:nlsdata2.obj
 0002:00002214       ??_C@_03LBGABGKK@Jul?$AA@  00446214     LIBCMT:nlsdata2.obj
 0002:00002218       ??_C@_03IDFGHECI@Jun?$AA@  00446218     LIBCMT:nlsdata2.obj
 0002:0000221c       ??_C@_03CNMDKL@May?$AA@    0044621c     LIBCMT:nlsdata2.obj
 0002:00002220       ??_C@_03LEOLGMJP@Apr?$AA@  00446220     LIBCMT:nlsdata2.obj
 0002:00002224       ??_C@_03ODNJBKGA@Mar?$AA@  00446224     LIBCMT:nlsdata2.obj
 0002:00002228       ??_C@_03HJBDCHOM@Feb?$AA@  00446228     LIBCMT:nlsdata2.obj
 0002:0000222c       ??_C@_03JIHJHPIE@Jan?$AA@  0044622c     LIBCMT:nlsdata2.obj
 0002:00002230       ??_C@_08INBOOONO@Saturday?$AA@ 00446230     LIBCMT:nlsdata2.obj
 0002:0000223c       ??_C@_06JECMNKMI@Friday?$AA@ 0044623c     LIBCMT:nlsdata2.obj
 0002:00002244       ??_C@_08HACCIKIA@Thursday?$AA@ 00446244     LIBCMT:nlsdata2.obj
 0002:00002250       ??_C@_09DLIGFAKA@Wednesday?$AA@ 00446250     LIBCMT:nlsdata2.obj
 0002:0000225c       ??_C@_07BAAGCFCM@Tuesday?$AA@ 0044625c     LIBCMT:nlsdata2.obj
 0002:00002264       ??_C@_06JLEDEDGH@Monday?$AA@ 00446264     LIBCMT:nlsdata2.obj
 0002:0000226c       ??_C@_06OOPIFAJ@Sunday?$AA@ 0044626c     LIBCMT:nlsdata2.obj
 0002:00002274       ??_C@_03FEFJNEK@Sat?$AA@   00446274     LIBCMT:nlsdata2.obj
 0002:00002278       ??_C@_03IDIOELNC@Fri?$AA@  00446278     LIBCMT:nlsdata2.obj
 0002:0000227c       ??_C@_03IOFIKPDN@Thu?$AA@  0044627c     LIBCMT:nlsdata2.obj
 0002:00002280       ??_C@_03MHOMLAJA@Wed?$AA@  00446280     LIBCMT:nlsdata2.obj
 0002:00002284       ??_C@_03NAGEINEP@Tue?$AA@  00446284     LIBCMT:nlsdata2.obj
 0002:00002288       ??_C@_03PDAGKDH@Mon?$AA@   00446288     LIBCMT:nlsdata2.obj
 0002:0000228c       ??_C@_03KOEHGMDN@Sun?$AA@  0044628c     LIBCMT:nlsdata2.obj
 0002:00002310       ??_C@_01NEMOKFLO@?$DN?$AA@ 00446310     LIBCMT:setlocal.obj
 0002:00002380       ??_C@_03IIINPABG@tan?$AA@  00446380     LIBCMT:_libm_error_.obj
 0002:00002384       ??_C@_03LALBNOCG@cos?$AA@  00446384     LIBCMT:_libm_error_.obj
 0002:00002388       ??_C@_03BLEJJJBH@sin?$AA@  00446388     LIBCMT:_libm_error_.obj
 0002:0000238c       ??_C@_04EHEDPDJG@modf?$AA@ 0044638c     LIBCMT:_libm_error_.obj
 0002:00002394       ??_C@_05PBJFFIGL@floor?$AA@ 00446394     LIBCMT:_libm_error_.obj
 0002:0000239c       ??_C@_04GFPJNGEK@ceil?$AA@ 0044639c     LIBCMT:_libm_error_.obj
 0002:000023a4       ??_C@_04MLLJIGOK@atan?$AA@ 004463a4     LIBCMT:_libm_error_.obj
 0002:000023ac       ??_C@_05EOHGHCHD@exp10?$AA@ 004463ac     LIBCMT:_libm_error_.obj
 0002:000023b4       ??_C@_04PDIFKINK@acos?$AA@ 004463b4     LIBCMT:_libm_error_.obj
 0002:000023bc       ??_C@_04FIHNOPOL@asin?$AA@ 004463bc     LIBCMT:_libm_error_.obj
 0002:000023c4       ??_C@_03MGHMBJCF@log?$AA@  004463c4     LIBCMT:_libm_error_.obj
 0002:000023c8       ??_C@_05HGHHAHAP@log10?$AA@ 004463c8     LIBCMT:_libm_error_.obj
 0002:000023d0       ??_C@_03KHJOGHMM@exp?$AA@  004463d0     LIBCMT:_libm_error_.obj
 0002:000023d4       ??_C@_03JGHBODFD@pow?$AA@  004463d4     LIBCMT:_libm_error_.obj
 0002:00003c00       __indefinite               00447c00     LIBCMT:_87disp_.obj
 0002:00003c0a       __piby2                    00447c0a     LIBCMT:_87disp_.obj
 0002:00003c38       __DEFAULT_CW_in_mem        00447c38     LIBCMT:_common_.obj
 0002:00003c3a       __pi_by_2_to_61            00447c3a     LIBCMT:_common_.obj
 0002:00008dd0       __infinity                 0044cdd0     LIBCMT:_87tran_.obj
 0002:00008dda       __minfinity                0044cdda     LIBCMT:_87tran_.obj
 0002:00008de4       __logemax                  0044cde4     LIBCMT:_87tran_.obj
 0002:00008e0a       __OP_EXPjmptab             0044ce0a     LIBCMT:_87tran_.obj
 0002:00008e30       ___lookuptable_s           0044ce30     LIBCMT:outputs.obj
 0002:00008e8c       ??_C@_02CLFPBFFP@TZ?$AA@   0044ce8c     LIBCMT:tzset.obj
 0002:00008e90       ___dnames                  0044ce90     LIBCMT:timeset.obj
 0002:00008ea8       ___mnames                  0044cea8     LIBCMT:timeset.obj
 0002:00008ed8       ??_C@_0BI@DFKBFLJE@GetProcessWindowStation?$AA@ 0044ced8     LIBCMT:crtmboxw.obj
 0002:00008ef0       ??_C@_0BK@DEKFELLI@GetUserObjectInformationW?$AA@ 0044cef0     LIBCMT:crtmboxw.obj
 0002:00008f0c       ??_C@_0BD@HHGDFDBJ@GetLastActivePopup?$AA@ 0044cf0c     LIBCMT:crtmboxw.obj
 0002:00008f20       ??_C@_0BA@HNOPNCHB@GetActiveWindow?$AA@ 0044cf20     LIBCMT:crtmboxw.obj
 0002:00008f30       ??_C@_0M@DLDCCGNP@MessageBoxW?$AA@ 0044cf30     LIBCMT:crtmboxw.obj
 0002:00008f3c       ??_C@_1BG@GOEBHBDC@?$AAU?$AAS?$AAE?$AAR?$AA3?$AA2?$AA?4?$AAD?$AAL?$AAL?$AA?$AA@ 0044cf3c     LIBCMT:crtmboxw.obj
 0002:00008f54       ??_C@_0BK@CFCOFLF@?5Complete?5Object?5Locator?8?$AA@ 0044cf54     LIBCMT:undname.obj
 0002:00008f70       ??_C@_0BN@MECKDCOJ@?5Class?5Hierarchy?5Descriptor?8?$AA@ 0044cf70     LIBCMT:undname.obj
 0002:00008f90       ??_C@_0BD@LGICGFMM@?5Base?5Class?5Array?8?$AA@ 0044cf90     LIBCMT:undname.obj
 0002:00008fa4       ??_C@_0BM@LDKODKLH@?5Base?5Class?5Descriptor?5at?5?$CI?$AA@ 0044cfa4     LIBCMT:undname.obj
 0002:00008fc0       ??_C@_0BC@DAFEJGAK@?5Type?5Descriptor?8?$AA@ 0044cfc0     LIBCMT:undname.obj
 0002:00008fd4       ??_C@_0BM@PMGGMLDN@?$GAlocal?5static?5thread?5guard?8?$AA@ 0044cfd4     LIBCMT:undname.obj
 0002:00008ff0       ??_C@_0CL@FGIJHLCE@?$GAmanaged?5vector?5copy?5constructor@ 0044cff0     LIBCMT:undname.obj
 0002:0000901c       ??_C@_0CJ@GJELGAMM@?$GAvector?5vbase?5copy?5constructor?5i@ 0044d01c     LIBCMT:undname.obj
 0002:00009048       ??_C@_0CD@CGAJBKEJ@?$GAvector?5copy?5constructor?5iterato@ 0044d048     LIBCMT:undname.obj
 0002:0000906c       ??_C@_0CB@PDBIFEP@?$GAdynamic?5atexit?5destructor?5for?5?8@ 0044d06c     LIBCMT:undname.obj
 0002:00009090       ??_C@_0BL@CLIPGLGB@?$GAdynamic?5initializer?5for?5?8?$AA@ 0044d090     LIBCMT:undname.obj
 0002:000090ac       ??_C@_0CM@FCBBDIGB@?$GAeh?5vector?5vbase?5copy?5constructo@ 0044d0ac     LIBCMT:undname.obj
 0002:000090d8       ??_C@_0CG@HLDDJMAG@?$GAeh?5vector?5copy?5constructor?5iter@ 0044d0d8     LIBCMT:undname.obj
 0002:00009100       ??_C@_0CF@IMGKMJNO@?$GAmanaged?5vector?5destructor?5itera@ 0044d100     LIBCMT:undname.obj
 0002:00009128       ??_C@_0CG@CFDHKGGD@?$GAmanaged?5vector?5constructor?5iter@ 0044d128     LIBCMT:undname.obj
 0002:00009150       ??_C@_0BN@CKNJLHMB@?$GAplacement?5delete?$FL?$FN?5closure?8?$AA@ 0044d150     LIBCMT:undname.obj
 0002:00009170       ??_C@_0BL@CNOONJFP@?$GAplacement?5delete?5closure?8?$AA@ 0044d170     LIBCMT:undname.obj
 0002:0000918c       ??_C@_0P@HJKNJFNN@?$GAomni?5callsig?8?$AA@ 0044d18c     LIBCMT:undname.obj
 0002:0000919c       ??_C@_09LBNFPBCA@?5delete?$FL?$FN?$AA@ 0044d19c     LIBCMT:undname.obj
 0002:000091a8       ??_C@_06FHBGPFGH@?5new?$FL?$FN?$AA@ 0044d1a8     LIBCMT:undname.obj
 0002:000091b0       ??_C@_0CE@IIHCMGGL@?$GAlocal?5vftable?5constructor?5closu@ 0044d1b0     LIBCMT:undname.obj
 0002:000091d4       ??_C@_0BA@KKLDJDLB@?$GAlocal?5vftable?8?$AA@ 0044d1d4     LIBCMT:undname.obj
 0002:000091e4       ??_C@_05KHLCHHI@?$GARTTI?$AA@ 0044d1e4     LIBCMT:undname.obj
 0002:000091ec       ??_C@_03KLGMFNMG@?$GAEH?$AA@ 0044d1ec     LIBCMT:undname.obj
 0002:000091f0       ??_C@_0BA@KBCDOMBN@?$GAudt?5returning?8?$AA@ 0044d1f0     LIBCMT:undname.obj
 0002:00009200       ??_C@_0BL@LLKPOHJI@?$GAcopy?5constructor?5closure?8?$AA@ 0044d200     LIBCMT:undname.obj
 0002:0000921c       ??_C@_0CH@OOJPLCPH@?$GAeh?5vector?5vbase?5constructor?5ite@ 0044d21c     LIBCMT:undname.obj
 0002:00009244       ??_C@_0CA@GCEOPDGL@?$GAeh?5vector?5destructor?5iterator?8?$AA@ 0044d244     LIBCMT:undname.obj
 0002:00009264       ??_C@_0CB@JONCMFFK@?$GAeh?5vector?5constructor?5iterator?8@ 0044d264     LIBCMT:undname.obj
 0002:00009288       ??_C@_0BL@NILFHHPC@?$GAvirtual?5displacement?5map?8?$AA@ 0044d288     LIBCMT:undname.obj
 0002:000092a4       ??_C@_0CE@IKBNEHA@?$GAvector?5vbase?5constructor?5iterat@ 0044d2a4     LIBCMT:undname.obj
 0002:000092c8       ??_C@_0BN@LFPFMEDL@?$GAvector?5destructor?5iterator?8?$AA@ 0044d2c8     LIBCMT:undname.obj
 0002:000092e8       ??_C@_0BO@PFGOCPJJ@?$GAvector?5constructor?5iterator?8?$AA@ 0044d2e8     LIBCMT:undname.obj
 0002:00009308       ??_C@_0BN@IMDCHIKM@?$GAscalar?5deleting?5destructor?8?$AA@ 0044d308     LIBCMT:undname.obj
 0002:00009328       ??_C@_0BO@OBMKPJIG@?$GAdefault?5constructor?5closure?8?$AA@ 0044d328     LIBCMT:undname.obj
 0002:00009348       ??_C@_0BN@DEGPLNFK@?$GAvector?5deleting?5destructor?8?$AA@ 0044d348     LIBCMT:undname.obj
 0002:00009368       ??_C@_0BD@JDLKDPAB@?$GAvbase?5destructor?8?$AA@ 0044d368     LIBCMT:undname.obj
 0002:0000937c       ??_C@_08OBABFOLI@?$GAstring?8?$AA@ 0044d37c     LIBCMT:undname.obj
 0002:00009388       ??_C@_0BF@KDPPACIK@?$GAlocal?5static?5guard?8?$AA@ 0044d388     LIBCMT:undname.obj
 0002:000093a0       ??_C@_08LLFFHHDJ@?$GAtypeof?8?$AA@ 0044d3a0     LIBCMT:undname.obj
 0002:000093ac       ??_C@_07FEEIOKP@?$GAvcall?8?$AA@ 0044d3ac     LIBCMT:undname.obj
 0002:000093b4       ??_C@_09BLBHBJP@?$GAvbtable?8?$AA@ 0044d3b4     LIBCMT:undname.obj
 0002:000093c0       ??_C@_09IFPLHPGF@?$GAvftable?8?$AA@ 0044d3c0     LIBCMT:undname.obj
 0002:000093cc       ??_C@_02MHEGNOJ@?$FO?$DN?$AA@ 0044d3cc     LIBCMT:undname.obj
 0002:000093d0       ??_C@_02DHLNPPGH@?$HM?$DN?$AA@ 0044d3d0     LIBCMT:undname.obj
 0002:000093d4       ??_C@_02FGJGFEAB@?$CG?$DN?$AA@ 0044d3d4     LIBCMT:undname.obj
 0002:000093d8       ??_C@_03CDNPDDLA@?$DM?$DM?$DN?$AA@ 0044d3d8     LIBCMT:undname.obj
 0002:000093dc       ??_C@_03IKFCCPFF@?$DO?$DO?$DN?$AA@ 0044d3dc     LIBCMT:undname.obj
 0002:000093e0       ??_C@_02FENAOKFI@?$CF?$DN?$AA@ 0044d3e0     LIBCMT:undname.obj
 0002:000093e4       ??_C@_02FJEHGPIO@?1?$DN?$AA@ 0044d3e4     LIBCMT:undname.obj
 0002:000093e8       ??_C@_02FKMDLLOA@?9?$DN?$AA@ 0044d3e8     LIBCMT:undname.obj
 0002:000093ec       ??_C@_02FOEOMHFC@?$CL?$DN?$AA@ 0044d3ec     LIBCMT:undname.obj
 0002:000093f0       ??_C@_02FPIMKNGF@?$CK?$DN?$AA@ 0044d3f0     LIBCMT:undname.obj
 0002:000093f4       ??_C@_02NONPIBCD@?$HM?$HM?$AA@ 0044d3f4     LIBCMT:undname.obj
 0002:000093f8       ??_C@_02PPKAJPJL@?$CG?$CG?$AA@ 0044d3f8     LIBCMT:undname.obj
 0002:000093fc       ??_C@_01JKBOJNNK@?$FO?$AA@ 0044d3fc     LIBCMT:undname.obj
 0002:00009400       ??_C@_01PJKLJHI@?$HO?$AA@  0044d400     LIBCMT:undname.obj
 0002:00009404       ??_C@_02HCKGKOFO@?$CI?$CJ?$AA@ 0044d404     LIBCMT:undname.obj
 0002:00009408       ??_C@_01IHBHIGKO@?0?$AA@   0044d408     LIBCMT:undname.obj
 0002:0000940c       ??_C@_02EEKDKGMJ@?$DO?$DN?$AA@ 0044d40c     LIBCMT:undname.obj
 0002:00009410       ??_C@_01PPODPGHN@?$DO?$AA@ 0044d410     LIBCMT:undname.obj
 0002:00009414       ??_C@_02EHCHHCKH@?$DM?$DN?$AA@ 0044d414     LIBCMT:undname.obj
 0002:00009418       ??_C@_01MNNFJEPP@?$DM?$AA@ 0044d418     LIBCMT:undname.obj
 0002:0000941c       ??_C@_01FGNFDNOH@?$CF?$AA@ 0044d41c     LIBCMT:undname.obj
 0002:00009420       ??_C@_01KMDKNFGN@?1?$AA@   0044d420     LIBCMT:undname.obj
 0002:00009424       ??_C@_03MNHNFDLC@?9?$DO?$CK?$AA@ 0044d424     LIBCMT:undname.obj
 0002:00009428       ??_C@_01HNPIGOCE@?$CG?$AA@ 0044d428     LIBCMT:undname.obj
 0002:0000942c       ??_C@_01MIFGBAGJ@?$CL?$AA@ 0044d42c     LIBCMT:undname.obj
 0002:00009430       ??_C@_02BAABKJLB@?9?9?$AA@ 0044d430     LIBCMT:undname.obj
 0002:00009434       ??_C@_02ECNGHCIF@?$CL?$CL?$AA@ 0044d434     LIBCMT:undname.obj
 0002:00009438       ??_C@_01NBENCBCI@?$CK?$AA@ 0044d438     LIBCMT:undname.obj
 0002:0000943c       ??_C@_02HBOOOICD@?9?$DO?$AA@ 0044d43c     LIBCMT:undname.obj
 0002:00009440       ??_C@_08LHJFAFGD@operator?$AA@ 0044d440     LIBCMT:undname.obj
 0002:0000944c       ??_C@_02GPECMEKF@?$FL?$FN?$AA@ 0044d44c     LIBCMT:undname.obj
 0002:00009450       ??_C@_02FDNJECIE@?$CB?$DN?$AA@ 0044d450     LIBCMT:undname.obj
 0002:00009454       ??_C@_02EGOFBIJA@?$DN?$DN?$AA@ 0044d454     LIBCMT:undname.obj
 0002:00009458       ??_C@_01DCLJPIOD@?$CB?$AA@ 0044d458     LIBCMT:undname.obj
 0002:0000945c       ??_C@_02FODMEDOG@?$DM?$DM?$AA@ 0044d45c     LIBCMT:undname.obj
 0002:00009460       ??_C@_02GPIOPFAK@?$DO?$DO?$AA@ 0044d460     LIBCMT:undname.obj
 0002:00009464       ??_C@_07FPCDHGMM@?5delete?$AA@ 0044d464     LIBCMT:undname.obj
 0002:0000946c       ??_C@_04NIHEBCM@?5new?$AA@ 0044d46c     LIBCMT:undname.obj
 0002:00009474       ??_C@_0M@GFIIJFMG@__unaligned?$AA@ 0044d474     LIBCMT:undname.obj
 0002:00009480       ??_C@_0L@PILCLIHE@__restrict?$AA@ 0044d480     LIBCMT:undname.obj
 0002:0000948c       ??_C@_07JOMMBBKO@__ptr64?$AA@ 0044d48c     LIBCMT:undname.obj
 0002:00009494       ??_C@_06GHPCKEAG@__eabi?$AA@ 0044d494     LIBCMT:undname.obj
 0002:0000949c       ??_C@_09HIJEGCPM@__clrcall?$AA@ 0044d49c     LIBCMT:undname.obj
 0002:000094a8       ??_C@_0L@JMKHOMEK@__fastcall?$AA@ 0044d4a8     LIBCMT:undname.obj
 0002:000094b4       ??_C@_0L@NPHFGOKO@__thiscall?$AA@ 0044d4b4     LIBCMT:undname.obj
 0002:000094c0       ??_C@_09IFJBGAPI@__stdcall?$AA@ 0044d4c0     LIBCMT:undname.obj
 0002:000094cc       ??_C@_08GHMPAG@__pascal?$AA@ 0044d4cc     LIBCMT:undname.obj
 0002:000094d8       ??_C@_07KOLFKCDI@__cdecl?$AA@ 0044d4d8     LIBCMT:undname.obj
 0002:000094e0       ??_C@_08EHJDFFNH@__based?$CI?$AA@ 0044d4e0     LIBCMT:undname.obj
 0002:00009678       ___newctype                0044d678     LIBCMT:ctype.obj
 0002:00009978       __wctype                   0044d978     LIBCMT:ctype.obj
 0002:00009b80       ___newclmap                0044db80     LIBCMT:ctype.obj
 0002:00009d00       ___newcumap                0044dd00     LIBCMT:ctype.obj
 0002:00009e80       ??_C@_0L@KDOEJCKC@_nextafter?$AA@ 0044de80     LIBCMT:_fpexcept_.obj
 0002:00009e8c       ??_C@_05JGDBENOH@_logb?$AA@ 0044de8c     LIBCMT:_fpexcept_.obj
 0002:00009e94       ??_C@_03ONILCKOB@_yn?$AA@  0044de94     LIBCMT:_fpexcept_.obj
 0002:00009e98       ??_C@_03NAKIGLHK@_y1?$AA@  0044de98     LIBCMT:_fpexcept_.obj
 0002:00009e9c       ??_C@_03MJLDFKDL@_y0?$AA@  0044de9c     LIBCMT:_fpexcept_.obj
 0002:00009ea0       ??_C@_05GKKHEGJL@frexp?$AA@ 0044dea0     LIBCMT:_fpexcept_.obj
 0002:00009ea8       ??_C@_04KEPJIHGP@fmod?$AA@ 0044dea8     LIBCMT:_fpexcept_.obj
 0002:00009eb0       ??_C@_06MEIMCGCF@_hypot?$AA@ 0044deb0     LIBCMT:_fpexcept_.obj
 0002:00009eb8       ??_C@_05KBKMEMPO@_cabs?$AA@ 0044deb8     LIBCMT:_fpexcept_.obj
 0002:00009ec0       ??_C@_05CEJMAHNP@ldexp?$AA@ 0044dec0     LIBCMT:_fpexcept_.obj
 0002:00009ec8       ??_C@_04ODHECPBC@fabs?$AA@ 0044dec8     LIBCMT:_fpexcept_.obj
 0002:00009ed0       ??_C@_04EIAKFFMI@sqrt?$AA@ 0044ded0     LIBCMT:_fpexcept_.obj
 0002:00009ed8       ??_C@_05KNGEOGJB@atan2?$AA@ 0044ded8     LIBCMT:_fpexcept_.obj
 0002:00009ee0       ??_C@_04FJHINJAO@tanh?$AA@ 0044dee0     LIBCMT:_fpexcept_.obj
 0002:00009ee8       ??_C@_04HPJJNFIM@cosh?$AA@ 0044dee8     LIBCMT:_fpexcept_.obj
 0002:00009ef0       ??_C@_04COOMCNPB@sinh?$AA@ 0044def0     LIBCMT:_fpexcept_.obj
 0002:00009ef8       ??_C@_06IMKFLFPG@1?$CDQNAN?$AA@ 0044def8     LIBCMT:_x10fout_.obj
 0002:00009f00       ??_C@_05DNEBIAHO@1?$CDINF?$AA@ 0044df00     LIBCMT:_x10fout_.obj
 0002:00009f08       ??_C@_05PHHOCPM@1?$CDIND?$AA@ 0044df08     LIBCMT:_x10fout_.obj
 0002:00009f10       ??_C@_06PGGFOGJG@1?$CDSNAN?$AA@ 0044df10     LIBCMT:_x10fout_.obj
 0002:00009f18       ??_C@_1BA@BALFACEM@?$AAC?$AAO?$AAN?$AAO?$AAU?$AAT?$AA$?$AA?$AA@ 0044df18     LIBCMT:initcon.obj
 0002:00009f2c       __real@c77fe000            0044df2c     bitmap:colorconversion.obj
 0002:00009f30       __real@38800000            0044df30     bitmap:colorconversion.obj
 0002:00009f34       __real@3a800000            0044df34     bitmap:colorconversion.obj
 0002:00009f38       __real@3da7ef9e            0044df38     bitmap:colorconversion.obj
 0002:00009f3c       __real@3f1c01a3            0044df3c     bitmap:colorconversion.obj
 0002:00009f40       __real@3e9e00d2            0044df40     bitmap:colorconversion.obj
 0002:00009f44       __real@39800000            0044df44     bitmap:colorconversion.obj
 0002:00009f48       __real@477fff00            0044df48     bitmap:colorconversion.obj
 0002:00009f4c       __real@45800000            0044df4c     bitmap:colorconversion.obj
 0002:00009f50       __real@41000000            0044df50     bitmap:colorconversion.obj
 0002:00009f54       __real@43000000            0044df54     bitmap:colorconversion.obj
 0002:00009f58       __real@42fe0000            0044df58     bitmap:colorconversion.obj
 0002:00009f5c       __real@3c010204            0044df5c     bitmap:colorconversion.obj
 0002:00009f60       __real@3e991687            0044df60     bitmap:colorconversion.obj
 0002:00009f64       __real@3f1645a2            0044df64     bitmap:colorconversion.obj
 0002:00009f68       __real@3de978d5            0044df68     bitmap:colorconversion.obj
 0002:00009f6c       __real@37800000            0044df6c     bitmap:colorconversion.obj
 0002:00009f74       __real@3eaaaaab            0044df74     bitmap:resample.obj
 0002:00009f78       __real@42cc0000            0044df78     bitmap:resample.obj
 0002:00009f7c       ??_C@_0P@JPKGKFHD@AlphaThreshold?$AA@ 0044df7c     bitmap:ATI_Compress.obj
 0002:00009f8c       ??_C@_0N@PCNBPLHN@DXT1UseAlpha?$AA@ 0044df8c     bitmap:ATI_Compress.obj
 0002:00009f9c       ??_C@_0BF@OHABJJJO@UseAdaptiveWeighting?$AA@ 0044df9c     bitmap:ATI_Compress.obj
 0002:00009fb4       ??_C@_07HHHMHOCD@WeightB?$AA@ 0044dfb4     bitmap:ATI_Compress.obj
 0002:00009fbc       ??_C@_07KALIKGG@WeightG?$AA@ 0044dfbc     bitmap:ATI_Compress.obj
 0002:00009fc4       ??_C@_07DNLOGMHC@WeightR?$AA@ 0044dfc4     bitmap:ATI_Compress.obj
 0002:00009fcc       __real@3c23d70a            0044dfcc     bitmap:ATI_Compress.obj
 0002:00009fd0       __real@3f847ae140000000    0044dfd0     bitmap:ATI_Compress.obj
 0002:00009fd8       ??_C@_0BE@DKLHGILP@UseChannelWeighting?$AA@ 0044dfd8     bitmap:ATI_Compress.obj
 0002:00009ff0       __real@3f70101010101010    0044dff0     bitmap:S3_intrf.obj
 0002:00009ff8       __real@41700000            0044dff8     bitmap:S3_intrf.obj
 0002:00009ffc       ??_7CCodec@ATI_Compress@@6B@ 0044dffc     bitmap:Codec.obj
 0002:0000a028       __real@4060000000000000    0044e028     bitmap:Codec.obj
 0002:0000a030       __real@405fc00000000000    0044e030     bitmap:Codec.obj
 0002:0000a038       ??_7CCodecBuffer@@6B@      0044e038     bitmap:CodecBuffer.obj
 0002:0000a118       __real@40efffe000000000    0044e118     bitmap:CodecBuffer.obj
 0002:0000a130       __real@3f40000000000000    0044e130     bitmap:S3_quant.obj
 0002:0000a138       __real@400c000000000000    0044e138     bitmap:S3_quant.obj
 0002:0000a140       __real@4008000000000000    0044e140     bitmap:S3_quant.obj
 0002:0000a148       __real@4014000000000000    0044e148     bitmap:S3_quant.obj
 0002:0000a150       __real@4058000000000000    0044e150     bitmap:S3_quant.obj
 0002:0000a158       ??_7CCodec_ATI2N_DXT5@@6B@ 0044e158     bitmap:Codec_ATI2N_DXT5.obj
 0002:0000a1d8       __real@4059000000000000    0044e1d8     bitmap:Codec_ATI2N_DXT5.obj
 0002:0000a1e0       __real@4f800000            0044e1e0     bitmap:Codec_ATI2N_DXT5.obj
 0002:0000a1e8       ??_7CCodec_ATI2N@@6B@      0044e1e8     bitmap:Codec_ATI2N.obj
 0002:0000a268       ??_7CCodec_ATI1N@@6B@      0044e268     bitmap:Codec_ATI1N.obj
 0002:0000a2e0       ??_7CCodec_DXT5_xGxR@@6B@  0044e2e0     bitmap:Codec_DXT5_xGxR.obj
 0002:0000a368       ??_7CCodec_DXT5_RGxB@@6B@  0044e368     bitmap:Codec_DXT5_RGxB.obj
 0002:0000a3f0       ??_7CCodec_DXT5_xRBG@@6B@  0044e3f0     bitmap:Codec_DXT5_xRBG.obj
 0002:0000a478       ??_7CCodec_DXT5_RBxG@@6B@  0044e478     bitmap:Codec_DXT5_RBxG.obj
 0002:0000a500       ??_7CCodec_DXT5_RxBG@@6B@  0044e500     bitmap:Codec_DXT5_RxBG.obj
 0002:0000a588       ??_7CCodec_DXT5_xGBR@@6B@  0044e588     bitmap:Codec_DXT5_xGBR.obj
 0002:0000a610       ??_7CCodec_DXT5@@6B@       0044e610     bitmap:Codec_DXT5.obj
 0002:0000a688       ??_7CCodec_DXT3@@6B@       0044e688     bitmap:Codec_DXT3.obj
 0002:0000a700       ??_7CCodec_DXT1@@6B@       0044e700     bitmap:Codec_DXT1.obj
 0002:0000a778       ?_toFloat@half@@0QBTuif@1@B 0044e778     bitmap:half.obj
 0002:0004a778       ?_eLut@half@@0QBGB         0048e778     bitmap:half.obj
 0002:0004ab78       __real@501502f9            0048eb78     bitmap:half.obj
 0002:0004ab80       ??_7CCodecBuffer_Block@@6B@ 0048eb80     bitmap:CodecBuffer_Block.obj
 0002:0004ac60       ??_7CCodecBuffer_RGBA32F@@6B@ 0048ec60     bitmap:CodecBuffer_RGBA32F.obj
 0002:0004ad48       ??_7CCodecBuffer_RGBA16F@@6B@ 0048ed48     bitmap:CodecBuffer_RGBA16F.obj
 0002:0004ae30       ??_7CCodecBuffer_RGBA16@@6B@ 0048ee30     bitmap:CodecBuffer_RGBA16.obj
 0002:0004af18       ??_7CCodecBuffer_RGBA2101010@@6B@ 0048ef18     bitmap:CodecBuffer_RGBA2101010.obj
 0002:0004b000       ??_7CCodecBuffer_RGBA8888@@6B@ 0048f000     bitmap:CodecBuffer_RGBA8888.obj
 0002:0004b0e8       ??_7CCodec_DXTC@@6B@       0048f0e8     bitmap:Codec_DXTC.obj
 0002:0004b160       ??_C@_0P@GGJMOEEN@ForceFloatPath?$AA@ 0048f160     bitmap:Codec_DXTC.obj
 0002:0004b170       ??_C@_0BA@FGFEHBI@RefinementSteps?$AA@ 0048f170     bitmap:Codec_DXTC.obj
 0002:0004b180       ??_C@_0N@GJGMBLDI@3DRefinement?$AA@ 0048f180     bitmap:Codec_DXTC.obj
 0002:0004b190       ??_C@_07DPIIIHGG@UseSSE2?$AA@ 0048f190     bitmap:Codec_DXTC.obj
 0002:0004b198       ??_7CCodec_Block_4x4@@6B@  0048f198     bitmap:Codec_Block_4x4.obj
 0002:0004b1c0       __real@4010000000000000    0048f1c0     bitmap:Codec_DXTC_Alpha.obj
 0002:0004b1c8       __real@401c000000000000    0048f1c8     bitmap:Codec_DXTC_Alpha.obj
 0002:0004b1d0       __real@4018000000000000    0048f1d0     bitmap:Codec_DXTC_Alpha.obj
 0002:0004b1d8       __real@7f7fffff            0048f1d8     bitmap:Codec_DXTC_Alpha.obj
 0002:0004b1e0       __real@3fd0000000000000    0048f1e0     bitmap:Codec_DXTC_RGBA.obj
 0002:0004b1e8       __real@3fb0000000000000    0048f1e8     bitmap:Codec_DXTC_RGBA.obj
 0002:0004b1f0       ??_7CCodec_DXT5_Swizzled@@6B@ 0048f1f0     bitmap:Codec_DXT5_Swizzled.obj
 0002:0004b278       ??_7CCodec_Block@@6B@      0048f278     bitmap:Codec_Block.obj
 0002:0004b2e4       __real@51ba43b7            0048f2e4     bitmap:ATiXCodec.obj
 0002:0004b2e8       __real@4b189680            0048f2e8     bitmap:ATiXCodec.obj
 0002:0004b2f0       __real@3fe3333340000000    0048f2f0     bitmap:ATiXCodec.obj
 0002:0004b2f8       __real@3f926e9780000000    0048f2f8     bitmap:ATiXCodec.obj
 0002:0004b300       __real@3fb99999a0000000    0048f300     bitmap:ATiXCodec.obj
 0002:0004b308       __real@47fa0000            0048f308     bitmap:ATiXCodec.obj
 0002:0004b30c       __real@43010000            0048f30c     bitmap:ATiXCodec.obj
 0002:0004b310       __real@c000000000000000    0048f310     bitmap:ATiXCodec.obj
 0002:0004b318       __real@3fefcfcfcfcfcfd0    0048f318     bitmap:ATiXCodec.obj
 0002:0004b320       __real@3f78181818181818    0048f320     bitmap:ATiXCodec.obj
 0002:0004b328       __real@49742400            0048f328     bitmap:ATiXCodec.obj
 0002:0004b32c       __real@47c35000            0048f32c     bitmap:ATiXCodec.obj
 0002:0004b330       __real@3f80101020000000    0048f330     bitmap:ATiXCodec.obj
 0002:0004b338       __real@3f50624dd2f1a9fc    0048f338     bitmap:ATiXCodec.obj
 0002:0004b340       __real@3f999999a0000000    0048f340     bitmap:ATiXCodec.obj
 0002:0004b348       __real@3fa99999a0000000    0048f348     bitmap:ATiXCodec.obj
 0002:0004b350       __real@c47a0000            0048f350     bitmap:ATiXCodec.obj
 0002:0004b354       __pDestructExceptionObject 0048f354     LIBCMT:frame.obj
 0002:0004b35c       ??_7bad_exception@std@@6B@ 0048f35c     LIBCMT:frame.obj
 0002:0004b364       ??_C@_0O@DPKOEFFH@bad?5exception?$AA@ 0048f364     LIBCMT:frame.obj
 0002:0004b378       ??_7exception@std@@6B@     0048f378     LIBCMT:stdexcpt.obj
 0002:0004b380       ??_C@_0BC@EOODALEL@Unknown?5exception?$AA@ 0048f380     LIBCMT:stdexcpt.obj
 0002:0004b400       ??_R4CUtlCharConversion@@6B@ 0048f400     tier1:utlbuffer.obj
 0002:0004b414       ??_R3CUtlCharConversion@@8 0048f414     tier1:utlbuffer.obj
 0002:0004b424       ??_R2CUtlCharConversion@@8 0048f424     tier1:utlbuffer.obj
 0002:0004b42c       ??_R1A@?0A@EA@CUtlCharConversion@@8 0048f42c     tier1:utlbuffer.obj
 0002:0004b448       ??_R4CUtlNoEscConversion@@6B@ 0048f448     tier1:utlbuffer.obj
 0002:0004b45c       ??_R3CUtlNoEscConversion@@8 0048f45c     tier1:utlbuffer.obj
 0002:0004b46c       ??_R2CUtlNoEscConversion@@8 0048f46c     tier1:utlbuffer.obj
 0002:0004b478       ??_R1A@?0A@EA@CUtlNoEscConversion@@8 0048f478     tier1:utlbuffer.obj
 0002:0004b494       ??_R4CUtlCStringConversion@@6B@ 0048f494     tier1:utlbuffer.obj
 0002:0004b4a8       ??_R3CUtlCStringConversion@@8 0048f4a8     tier1:utlbuffer.obj
 0002:0004b4b8       ??_R2CUtlCStringConversion@@8 0048f4b8     tier1:utlbuffer.obj
 0002:0004b4c4       ??_R1A@?0A@EA@CUtlCStringConversion@@8 0048f4c4     tier1:utlbuffer.obj
 0002:0004b4e0       ??_R3IVTFTexture@@8        0048f4e0     vtf:vtf.obj
 0002:0004b4f0       ??_R2IVTFTexture@@8        0048f4f0     vtf:vtf.obj
 0002:0004b4f8       ??_R1A@?0A@EA@IVTFTexture@@8 0048f4f8     vtf:vtf.obj
 0002:0004b514       ??_R4CVTFTexture@@6B@      0048f514     vtf:vtf.obj
 0002:0004b528       ??_R3CVTFTexture@@8        0048f528     vtf:vtf.obj
 0002:0004b538       ??_R2CVTFTexture@@8        0048f538     vtf:vtf.obj
 0002:0004b544       ??_R1A@?0A@EA@CVTFTexture@@8 0048f544     vtf:vtf.obj
 0002:0004b560       ??_R4type_info@@6B@        0048f560     LIBCMT:typinfo.obj
 0002:0004b574       ??_R3type_info@@8          0048f574     LIBCMT:typinfo.obj
 0002:0004b584       ??_R2type_info@@8          0048f584     LIBCMT:typinfo.obj
 0002:0004b58c       ??_R1A@?0A@EA@type_info@@8 0048f58c     LIBCMT:typinfo.obj
 0002:0004b5a8       ??_R4bad_exception@std@@6B@ 0048f5a8     LIBCMT:frame.obj
 0002:0004b5bc       ??_R3bad_exception@std@@8  0048f5bc     LIBCMT:frame.obj
 0002:0004b5cc       ??_R2bad_exception@std@@8  0048f5cc     LIBCMT:frame.obj
 0002:0004b5d8       ??_R1A@?0A@EA@bad_exception@std@@8 0048f5d8     LIBCMT:frame.obj
 0002:0004b5f4       ??_R1A@?0A@EA@exception@std@@8 0048f5f4     LIBCMT:frame.obj
 0002:0004b610       ??_R3exception@std@@8      0048f610     LIBCMT:frame.obj
 0002:0004b620       ??_R2exception@std@@8      0048f620     LIBCMT:frame.obj
 0002:0004b628       ??_R4exception@std@@6B@    0048f628     LIBCMT:stdexcpt.obj
 0002:0004b63c       ___rtc_iaa                 0048f63c     LIBCMT:_initsect_.obj
 0002:0004b640       ___rtc_izz                 0048f640     LIBCMT:_initsect_.obj
 0002:0004b644       ___rtc_taa                 0048f644     LIBCMT:_initsect_.obj
 0002:0004b648       ___rtc_tzz                 0048f648     LIBCMT:_initsect_.obj
 0002:0004bd6c       __TI2?AVbad_exception@std@@ 0048fd6c     LIBCMT:frame.obj
 0002:0004bd7c       __CTA2?AVbad_exception@std@@ 0048fd7c     LIBCMT:frame.obj
 0002:0004bd88       __CT??_R0?AVbad_exception@std@@@8??0bad_exception@std@@QAE@ABV01@@Z12 0048fd88     LIBCMT:frame.obj
 0002:0004bda4       __CT??_R0?AVexception@std@@@8??0exception@std@@QAE@ABV01@@Z12 0048fda4     LIBCMT:frame.obj
 0002:0004bdc0       __IMPORT_DESCRIPTOR_KERNEL32 0048fdc0     kernel32:KERNEL32.dll
 0002:0004bdd4       __IMPORT_DESCRIPTOR_tier0  0048fdd4     tier0:tier0.dll
 0002:0004bde8       __NULL_IMPORT_DESCRIPTOR   0048fde8     kernel32:KERNEL32.dll
 0003:00000000       __amblksiz                 00491000     memoverride.obj
 0003:00000004       __crtheap                  00491004     memoverride.obj
 0003:00000008       ___active_heap             00491008     memoverride.obj
 0003:0000000c       __crtDbgFlag               0049100c     memoverride.obj
 0003:00000010       __crtAssertBusy            00491010     memoverride.obj
 0003:000004f0       ??_R0?AVCUtlCharConversion@@@8 004914f0     tier1:utlbuffer.obj
 0003:00000514       ??_R0?AVCUtlNoEscConversion@@@8 00491514     tier1:utlbuffer.obj
 0003:00000538       ??_R0?AVCUtlCStringConversion@@@8 00491538     tier1:utlbuffer.obj
 0003:00000570       ?m_DataMap@VTFFileBaseHeader_t@@2Udatamap_t@@A 00491570     vtf:vtf.obj
 0003:00000588       ?m_DataMap@VTFFileHeaderV7_1_t@@2Udatamap_t@@A 00491588     vtf:vtf.obj
 0003:000005a0       ?m_DataMap@VTFFileHeaderV7_2_t@@2Udatamap_t@@A 004915a0     vtf:vtf.obj
 0003:000005b8       ?m_DataMap@VTFFileHeaderV7_3_t@@2Udatamap_t@@A 004915b8     vtf:vtf.obj
 0003:000005d0       ?m_DataMap@VTFFileHeader_t@@2Udatamap_t@@A 004915d0     vtf:vtf.obj
 0003:000005e8       ?m_DataMap@VTFFileHeaderX360_t@@2Udatamap_t@@A 004915e8     vtf:vtf.obj
 0003:00000600       ?g_leftFaceVerts@@3PAHA    00491600     vtf:vtf.obj
 0003:00000610       ?g_frontFaceVerts@@3PAHA   00491610     vtf:vtf.obj
 0003:00000620       ?g_downFaceVerts@@3PAHA    00491620     vtf:vtf.obj
 0003:00000630       ?g_rightFaceVerts@@3PAHA   00491630     vtf:vtf.obj
 0003:00000640       ?g_backFaceVerts@@3PAHA    00491640     vtf:vtf.obj
 0003:00000650       ?g_upFaceVerts@@3PAHA      00491650     vtf:vtf.obj
 0003:00000660       ?g_FaceVerts@@3PAPAHA      00491660     vtf:vtf.obj
 0003:00000678       ?g_skybox_rightFaceVerts@@3PAHA 00491678     vtf:vtf.obj
 0003:00000688       ?g_skybox_leftFaceVerts@@3PAHA 00491688     vtf:vtf.obj
 0003:00000698       ?g_skybox_backFaceVerts@@3PAHA 00491698     vtf:vtf.obj
 0003:000006a8       ?g_skybox_frontFaceVerts@@3PAHA 004916a8     vtf:vtf.obj
 0003:000006b8       ?g_skybox_upFaceVerts@@3PAHA 004916b8     vtf:vtf.obj
 0003:000006c8       ?g_skybox_downFaceVerts@@3PAHA 004916c8     vtf:vtf.obj
 0003:000006d8       ?g_skybox_FaceVerts@@3PAPAHA 004916d8     vtf:vtf.obj
 0003:000006f8       ??_R0?AVIVTFTexture@@@8    004916f8     vtf:vtf.obj
 0003:00000714       ??_R0?AVCVTFTexture@@@8    00491714     vtf:vtf.obj
 0003:00000e58       ?pfSqrt@@3P6AMM@ZA         00491e58     mathlib:mathlib_base.obj
 0003:00000e5c       ?pfRSqrt@@3P6AMM@ZA        00491e5c     mathlib:mathlib_base.obj
 0003:00000e60       ?pfRSqrtFast@@3P6AMM@ZA    00491e60     mathlib:mathlib_base.obj
 0003:00000e64       ?pfVectorNormalize@@3P6IMAAVVector@@@ZA 00491e64     mathlib:mathlib_base.obj
 0003:00000e68       ?pfVectorNormalizeFast@@3P6IXAAVVector@@@ZA 00491e68     mathlib:mathlib_base.obj
 0003:00000e6c       ?pfInvRSquared@@3P6AMPBM@ZA 00491e6c     mathlib:mathlib_base.obj
 0003:00000e70       ?pfFastSinCos@@3P6AXMPAM0@ZA 00491e70     mathlib:mathlib_base.obj
 0003:00000e74       ?pfFastCos@@3P6AMM@ZA      00491e74     mathlib:mathlib_base.obj
 0003:00000e80       ?vec3_invalid@@3VVector@@B 00491e80     mathlib:mathlib_base.obj
 0003:00000f00       ?power2_n@@3PAMA           00491f00     mathlib:color_conversion.obj
 0003:00001320       __fltused                  00492320     LIBCMT:_fpinit_.obj
 0003:00001324       __ldused                   00492324     LIBCMT:_fpinit_.obj
 0003:00001330       ___app_type                00492330     LIBCMT:crt0.obj
 0003:00001334       ??_R0?AVtype_info@@@8      00492334     LIBCMT:typinfo.obj
 0003:00001370       __half                     00492370     LIBCMT:_pow_.obj
 0003:00001380       ___nullstring              00492380     LIBCMT:output.obj
 0003:00001384       ___wnullstring             00492384     LIBCMT:output.obj
 0003:000014f8       __cfltcvt_tab              004924f8     LIBCMT:cmiscdat.obj
 0003:00001520       __iob                      00492520     LIBCMT:_file.obj
 0003:000017a0       ___security_cookie         004927a0     LIBCMT:gs_cookie.obj
 0003:000017a4       ___security_cookie_complement 004927a4     LIBCMT:gs_cookie.obj
 0003:000017a8       __lookuptrailbytes         004927a8     LIBCMT:read.obj
 0003:000018b0       ___badioinfo               004928b0     LIBCMT:ioinit.obj
 0003:000018f0       ___flsindex                004928f0     LIBCMT:tidtable.obj
 0003:000018f4       ___getvalueindex           004928f4     LIBCMT:tidtable.obj
 0003:00001900       ___initialmbcinfo          00492900     LIBCMT:mbctype.obj
 0003:00001b20       __mbctype                  00492b20     LIBCMT:mbctype.obj
 0003:00001c28       __mbcasemap                00492c28     LIBCMT:mbctype.obj
 0003:00001d28       ___ptmbcinfo               00492d28     LIBCMT:mbctype.obj
 0003:00001e20       ___globallocalestatus      00492e20     LIBCMT:glstatus.obj
 0003:00001e24       ___clocalestr              00492e24     LIBCMT:nlsdata2.obj
 0003:00001e28       ___lc_time_c               00492e28     LIBCMT:nlsdata2.obj
 0003:00001f90       ___initiallocinfo          00492f90     LIBCMT:nlsdata2.obj
 0003:00002068       ___ptlocinfo               00493068     LIBCMT:nlsdata2.obj
 0003:0000206c       ___initiallocalestructinfo 0049306c     LIBCMT:nlsdata2.obj
 0003:00002080       __HUGE                     00493080     LIBCMT:_huge_.obj
 0003:000021ac       ___abort_behavior          004931ac     LIBCMT:abort.obj
 0003:000021c0       __NLG_Destination          004931c0     LIBCMT:exsup.obj
 0003:000021e8       __timezone                 004931e8     LIBCMT:timeset.obj
 0003:000021ec       __daylight                 004931ec     LIBCMT:timeset.obj
 0003:000021f0       __dstbias                  004931f0     LIBCMT:timeset.obj
 0003:00002278       __tzname                   00493278     LIBCMT:timeset.obj
 0003:00002280       __lpdays                   00493280     LIBCMT:days.obj
 0003:000022b4       __days                     004932b4     LIBCMT:days.obj
 0003:000022f0       ___lconv_static_decimal    004932f0     LIBCMT:lconv.obj
 0003:000022f4       ___lconv_static_W_decimal  004932f4     LIBCMT:lconv.obj
 0003:000022f8       ___lconv_c                 004932f8     LIBCMT:lconv.obj
 0003:00002348       ___lconv                   00493348     LIBCMT:lconv.obj
 0003:0000234c       __pctype                   0049334c     LIBCMT:ctype.obj
 0003:00002350       __pwctype                  00493350     LIBCMT:ctype.obj
 0003:00002354       ___mb_cur_max              00493354     LIBCMT:nlsdata1.obj
 0003:00002358       ___decimal_point           00493358     LIBCMT:nlsdata1.obj
 0003:0000235c       ___decimal_point_length    0049335c     LIBCMT:nlsdata1.obj
 0003:00002390       __matherr_flag             00493390     LIBCMT:_matherr_.obj
 0003:00002480       __d_inf                    00493480     LIBCMT:_util_.obj
 0003:00002488       __d_ind                    00493488     LIBCMT:_util_.obj
 0003:00002490       __d_max                    00493490     LIBCMT:_util_.obj
 0003:00002498       __d_min                    00493498     LIBCMT:_util_.obj
 0003:000024a0       __d_mzero                  004934a0     LIBCMT:_util_.obj
 0003:000024c8       __pow10pos                 004934c8     LIBCMT:_constpow_.obj
 0003:00002628       __pow10neg                 00493628     LIBCMT:_constpow_.obj
 0003:00002784       __confh                    00493784     LIBCMT:initcon.obj
 0003:000027c4       ?S3TC_BLOCK_WIDTH@@3HA     004937c4     bitmap:S3_intrf.obj
 0003:00002b68       ?nByteBitsMask@@3PAEA      00493b68     bitmap:ATiXCodec.obj
 0003:00002b74       ?dwRndAmount@@3PAKA        00493b74     bitmap:ATiXCodec.obj
 0003:00002bb8       ??_R0?AVbad_exception@std@@@8 00493bb8     LIBCMT:frame.obj
 0003:00002bd8       ??_R0?AVexception@std@@@8  00493bd8     LIBCMT:frame.obj
 0003:00002c00       __crtBreakAlloc            00493c00     memoverride.obj
 0003:00002c04       ___crtDebugCheckCount      00493c04     memoverride.obj
 0003:00002c08       ___crtDebugFillThreshold   00493c08     memoverride.obj
 0003:00002d20       ?s_Sentinel@?1??Links@?$CUtlRBTree@UNode_t@?$CUtlMap@H_NG@@GVCKeyLess@2@V?$CUtlMemory@U?$UtlRBTreeNode_t@UNode_t@?$CUtlMap@H_NG@@G@@G@@@@IBEABU?$UtlRBTreeLinks_t@G@@G@Z@4U3@A 00493d20     vtfdiff.obj
 0003:00002d28       ??_B?1??Links@?$CUtlRBTree@UNode_t@?$CUtlMap@H_NG@@GVCKeyLess@2@V?$CUtlMemory@U?$UtlRBTreeNode_t@UNode_t@?$CUtlMap@H_NG@@G@@G@@@@IBEABU?$UtlRBTreeLinks_t@G@@G@Z@51 00493d28     vtfdiff.obj
 0003:00002d48       ?s_StringCharConversion@@3VCUtlCStringConversion@@A 00493d48     tier1:utlbuffer.obj
 0003:00003758       ?s_NoEscConversion@@3VCUtlNoEscConversion@@A 00494758     tier1:utlbuffer.obj
 0003:0000416c       ?g_DataMapHolder@VTFFileHeaderV7_3_t_DataDescInit@@3PAUdatamap_t@@A 0049516c     vtf:vtf.obj
 0003:00004170       ?g_DataMapHolder@VTFFileHeaderV7_1_t_DataDescInit@@3PAUdatamap_t@@A 00495170     vtf:vtf.obj
 0003:00004174       ?g_DataMapHolder@VTFFileBaseHeader_t_DataDescInit@@3PAUdatamap_t@@A 00495174     vtf:vtf.obj
 0003:00004178       ?g_DataMapHolder@VTFFileHeaderV7_2_t_DataDescInit@@3PAUdatamap_t@@A 00495178     vtf:vtf.obj
 0003:0000417c       ?g_DataMapHolder@VTFFileHeader_t_DataDescInit@@3PAUdatamap_t@@A 0049517c     vtf:vtf.obj
 0003:00004180       ?g_DataMapHolder@VTFFileHeaderX360_t_DataDescInit@@3PAUdatamap_t@@A 00495180     vtf:vtf.obj
 0003:00004190       ?SinCosTable@@3PAMA        00495190     mathlib:mathlib_base.obj
 0003:00004590       ?s_bMathlibInitialized@@3_NA 00495590     mathlib:mathlib_base.obj
 0003:000045a0       ?vec3_origin@@3VVector@@B  004955a0     mathlib:mathlib_base.obj
 0003:000045ac       ?vec3_angle@@3VQAngle@@B   004955ac     mathlib:mathlib_base.obj
 0003:000049b8       ?lineartolightmap@@3PAEA   004959b8     mathlib:color_conversion.obj
 0003:000081b8       ?lineartovertex@@3PAMA     004991b8     mathlib:color_conversion.obj
 0003:0000c2d8       ___fastflag                0049d2d8     LIBCMT:_fpinit_.obj
 0003:0000c2e0       __aenvptr                  0049d2e0     LIBCMT:crt0.obj
 0003:0000c2e4       __wenvptr                  0049d2e4     LIBCMT:crt0.obj
 0003:0000c2e8       ___error_mode              0049d2e8     LIBCMT:crt0.obj
 0003:0000c2ec       ___pInvalidArgHandler      0049d2ec     LIBCMT:invarg.obj
 0003:0000c2f0       __cflush                   0049d2f0     LIBCMT:_file.obj
 0003:0000c2f4       __stdbuf                   0049d2f4     LIBCMT:_sftbuf.obj
 0003:0000c2fc       __umaskval                 0049d2fc     LIBCMT:crt0dat.obj
 0003:0000c300       ___argc                    0049d300     LIBCMT:crt0dat.obj
 0003:0000c304       ___argv                    0049d304     LIBCMT:crt0dat.obj
 0003:0000c308       ___wargv                   0049d308     LIBCMT:crt0dat.obj
 0003:0000c30c       __environ                  0049d30c     LIBCMT:crt0dat.obj
 0003:0000c310       ___initenv                 0049d310     LIBCMT:crt0dat.obj
 0003:0000c314       __wenviron                 0049d314     LIBCMT:crt0dat.obj
 0003:0000c318       ___winitenv                0049d318     LIBCMT:crt0dat.obj
 0003:0000c31c       __pgmptr                   0049d31c     LIBCMT:crt0dat.obj
 0003:0000c320       __wpgmptr                  0049d320     LIBCMT:crt0dat.obj
 0003:0000c324       __exitflag                 0049d324     LIBCMT:crt0dat.obj
 0003:0000c328       __C_Termination_Done       0049d328     LIBCMT:crt0dat.obj
 0003:0000c32c       __C_Exit_Done              0049d32c     LIBCMT:crt0dat.obj
 0003:0000ca60       _gpFlsAlloc                0049da60     LIBCMT:tidtable.obj
 0003:0000ca64       _gpFlsGetValue             0049da64     LIBCMT:tidtable.obj
 0003:0000ca68       _gpFlsSetValue             0049da68     LIBCMT:tidtable.obj
 0003:0000ca6c       _gpFlsFree                 0049da6c     LIBCMT:tidtable.obj
 0003:0000ca7c       ___mbulinfo                0049da7c     LIBCMT:mbctype.obj
 0003:0000ca88       ___mbcodepage              0049da88     LIBCMT:mbctype.obj
 0003:0000ca8c       ___ismbcodepage            0049da8c     LIBCMT:mbctype.obj
 0003:0000ca90       ___mblcid                  0049da90     LIBCMT:mbctype.obj
 0003:0000ca94       ___locale_changed          0049da94     LIBCMT:setlocal.obj
 0003:0000cbec       ___pPurecall               0049dbec     LIBCMT:inithelp.obj
 0003:0000cbf0       __outputformat             0049dbf0     LIBCMT:outputformat.obj
 0003:0000cbf4       __commode                  0049dbf4     LIBCMT:ncommode.obj
 0003:0000cfd4       ?__pInconsistency@@3P6AXXZA 0049dfd4     LIBCMT:hooks.obj
 0003:0000cff0       ?_pnhHeap@@3P6AHI@ZA       0049dff0     LIBCMT:handler.obj
 0003:0000d01c       ?pArgList@UnDecorator@@0PAVReplicator@@A 0049e01c     LIBCMT:undname.obj
 0003:0000d020       ?pZNameList@UnDecorator@@0PAVReplicator@@A 0049e020     LIBCMT:undname.obj
 0003:0000d024       ?pTemplateArgList@UnDecorator@@0PAVReplicator@@A 0049e024     LIBCMT:undname.obj
 0003:0000d028       ?gName@UnDecorator@@0PBDB  0049e028     LIBCMT:undname.obj
 0003:0000d02c       ?name@UnDecorator@@0PBDB   0049e02c     LIBCMT:undname.obj
 0003:0000d030       ?outputString@UnDecorator@@0PADA 0049e030     LIBCMT:undname.obj
 0003:0000d034       ?maxStringLength@UnDecorator@@0HA 0049e034     LIBCMT:undname.obj
 0003:0000d038       ?disableFlags@UnDecorator@@0KA 0049e038     LIBCMT:undname.obj
 0003:0000d03c       ?m_pGetParameter@UnDecorator@@0P6APADJ@ZA 0049e03c     LIBCMT:undname.obj
 0003:0000d040       ?fExplicitTemplateParams@UnDecorator@@0_NA 0049e040     LIBCMT:undname.obj
 0003:0000d041       ?fGetTemplateArgumentList@UnDecorator@@0_NA 0049e041     LIBCMT:undname.obj
 0003:0000d044       ___lconv_static_null       0049e044     LIBCMT:lconv.obj
 0003:0000d048       ___lconv_static_W_null     0049e048     LIBCMT:lconv.obj
 0003:0000d04c       __fmode                    0049e04c     LIBCMT:txtmode.obj
 0003:0000d738       ?bS3TCForce4@@3_NA         0049e738     bitmap:S3_intrf.obj
 0003:00016fc8       ?g_pFullFileSystem@@3PAVIFileSystem@@A 004a7fc8     tier2:tier2.obj
 0003:00016fcc       ?materials@@3PAVIMaterialSystem@@A 004a7fcc     tier2:tier2.obj
 0003:00016fd0       ?g_pMaterialSystem@@3PAVIMaterialSystem@@A 004a7fd0     tier2:tier2.obj
 0003:00016fd4       ?g_pInputSystem@@3PAVIInputSystem@@A 004a7fd4     tier2:tier2.obj
 0003:00016fd8       ?g_pNetworkSystem@@3PAVINetworkSystem@@A 004a7fd8     tier2:tier2.obj
 0003:00016fdc       ?g_pMaterialSystemHardwareConfig@@3PAVIMaterialSystemHardwareConfig@@A 004a7fdc     tier2:tier2.obj
 0003:00016fe0       ?g_pMaterialSystemDebugTextureInfo@@3PAVIDebugTextureInfo@@A 004a7fe0     tier2:tier2.obj
 0003:00016fe4       ?g_VBAllocTracker@@3PAVIVBAllocTracker@@A 004a7fe4     tier2:tier2.obj
 0003:00016fe8       ?colorcorrection@@3PAVIColorCorrectionSystem@@A 004a7fe8     tier2:tier2.obj
 0003:00016fec       ?p4@@3PAVIP4@@A            004a7fec     tier2:tier2.obj
 0003:00016ff0       ?mdllib@@3PAVIMdlLib@@A    004a7ff0     tier2:tier2.obj
 0003:00016ff4       ?g_pQueuedLoader@@3PAVIQueuedLoader@@A 004a7ff4     tier2:tier2.obj
 0003:00017010       __debugger_hook_dummy      004a8010     <common>
 0003:00017014       ___use_sse2_mathfcns       004a8014     <common>
 0003:00017018       __pmatherr                 004a8018     <common>
 0003:0001701c       __nhandle                  004a801c     <common>
 0003:00017020       ___pioinfo                 004a8020     <common>
 0003:00017120       ___env_initialized         004a8120     <common>
 0003:00017124       ___onexitend               004a8124     <common>
 0003:00017128       ___onexitbegin             004a8128     <common>
 0003:0001712c       ___mbctype_initialized     004a812c     <common>
 0003:00017130       ___dyn_tls_init_callback   004a8130     <common>
 0003:00017134       ___piob                    004a8134     <common>
 0003:00017140       __bufin                    004a8140     <common>
 0003:00018140       __nstream                  004a9140     <common>
 0003:00018144       ___sse2_available          004a9144     <common>
 0003:00018148       __acmdln                   004a9148     <common>
 0003:0001814c       __NoHeapEnableTerminationOnCorruption 004a914c     <common>

 entry point at        0001:00009076

 Static symbols

 0001:000032a0       ?ReadHeaderFromBufferPastBaseHeader@@YA_NAAVCUtlBuffer@@AAUVTFFileHeader_t@@@Z 004042a0 f   vtf:vtf.obj
 0001:00003af0       ?CalcInit@@YAXPAUSphereCalc_t@@HPAPAEW4LookDir_t@@@Z 00404af0 f   vtf:vtf.obj
 0001:00003bb0       ?TransformNormal@@YAXPAUSphereCalc_t@@AAVVector@@@Z 00404bb0 f   vtf:vtf.obj
 0001:00003c60       ?CalcFaceIndex@@YAHABVVector@@@Z 00404c60 f   vtf:vtf.obj
 0001:00003d00       ?CalcColor@@YAXPAUSphereCalc_t@@HABVVector@@PAE@Z 00404d00 f   vtf:vtf.obj
 0001:00003df0       ?CalcSphereColor@@YAXPAUSphereCalc_t@@MM@Z 00404df0 f   vtf:vtf.obj
 0001:00003ee0       ?CalcHemisphereColor@@YAXPAUSphereCalc_t@@MM@Z 00404ee0 f   vtf:vtf.obj
 0001:000041a0       ?FixCubeMapFacing@@YAXPAEHHW4ImageFormat@@@Z 004051a0 f   vtf:vtf.obj
 0001:00008986       _IsRootUNCName             00409986 f   LIBCMT:stati32.obj
 0001:00008a00       __fullpath_helper          00409a00 f   LIBCMT:stati32.obj
 0001:00008eec       _fast_error_exit           00409eec f   LIBCMT:crt0.obj
 0001:00008f15       ___tmainCRTStartup         00409f15 f   LIBCMT:crt0.obj
 0001:000092ae       ?strtoxl@@YAKPAUlocaleinfo_struct@@PBDPAPBDHH@Z 0040a2ae f   LIBCMT:strtol.obj
 0001:0000a227       __onexit_nolock            0040b227 f   LIBCMT:onexit.obj
 0001:0000ac4f       _write_char                0040bc4f f   LIBCMT:output.obj
 0001:0000ac82       _write_string              0040bc82 f   LIBCMT:output.obj
 0001:0000bd11       __shift                    0040cd11 f   LIBCMT:cvt.obj
 0001:0000bd56       __cftoe2_l                 0040cd56 f   LIBCMT:cvt.obj
 0001:0000c314       __cftof2_l                 0040d314 f   LIBCMT:cvt.obj
 0001:0000cd96       _flsall                    0040dd96 f   LIBCMT:fflush.obj
 0001:0000db20       __unwind_handler4          0040eb20 f   LIBCMT:exsup4.obj
 0001:0000e181       __tsopen_nolock            0040f181 f   LIBCMT:open.obj
 0001:0000f03e       _doexit                    0041003e f   LIBCMT:crt0dat.obj
 0001:0000f61a       _parse_cmdline             0041061a f   LIBCMT:stdargv.obj
 0001:000101a8       ?CPtoLCID@@YAHH@Z          004111a8 f   LIBCMT:mbctype.obj
 0001:000101d7       ?setSBCS@@YAXPAUthreadmbcinfostruct@@@Z 004111d7 f   LIBCMT:mbctype.obj
 0001:0001023b       ?setSBUpLow@@YAXPAUthreadmbcinfostruct@@@Z 0041123b f   LIBCMT:mbctype.obj
 0001:0001046f       ?getSystemCP@@YAHH@Z       0041146f f   LIBCMT:mbctype.obj
 0001:00010ca0       ?__crtLCMapStringA_stat@@YAHPAUlocaleinfo_struct@@KKPBDHPADHHH@Z 00411ca0 f   LIBCMT:a_map.obj
 0001:00015120       __unwind_handler           00416120 f   LIBCMT:exsup.obj
 0001:0001587a       __tzset_nolock             0041687a f   LIBCMT:tzset.obj
 0001:00015b8d       _cvtdate                   00416b8d f   LIBCMT:tzset.obj
 0001:00015d84       __isindst_nolock           00416d84 f   LIBCMT:tzset.obj
 0001:00016289       _siglookup                 00417289 f   LIBCMT:winsig.obj
 0001:000167f9       ?x_ismbbtype_l@@YAHPAUlocaleinfo_struct@@IHH@Z 004177f9 f   LIBCMT:ismbbyte.obj
 0001:00016864       ?__crtGetStringTypeA_stat@@YAHPAUlocaleinfo_struct@@KPBDHPAGHHH@Z 00417864 f   LIBCMT:a_str.obj
 0001:00019795       __hw_cw                    0041a795 f   LIBCMT:_ieee87_.obj
 0001:00019823       ___hw_cw_sse2              0041a823 f   LIBCMT:_ieee87_.obj
 0001:0001a5c0       ?__crtCompareStringA_stat@@YAHPAUlocaleinfo_struct@@KKPBDH1HH@Z 0041b5c0 f   LIBCMT:a_cmp.obj
 0001:0001a95a       _findenv                   0041b95a f   LIBCMT:setenv.obj
 0001:0001a9ac       _copy_environ              0041b9ac f   LIBCMT:setenv.obj
 0001:0001b190       ?GetColorBlockColorsBGRA8888@ImageLoader@@YAXPAUDXTColBlock@1@PAUBGRA8888_t@@111AAG@Z 0041c190 f   bitmap:colorconversion.obj
 0001:0001b350       ?GetDXTCEncodeType@ImageLoader@@YAKW4ImageFormat@@@Z 0041c350 f   bitmap:colorconversion.obj
 0001:0001c4a0       ?RGBA8888ToABGR8888@ImageLoader@@YAXPBEPAEH@Z 0041d4a0 f   bitmap:colorconversion.obj
 0001:0001c4a0       ?ABGR8888ToRGBA8888@ImageLoader@@YAXPBEPAEH@Z 0041d4a0 f   bitmap:colorconversion.obj
 0001:0001c4e0       ?RGBA8888ToRGB888@ImageLoader@@YAXPBEPAEH@Z 0041d4e0 f   bitmap:colorconversion.obj
 0001:0001c520       ?RGBA8888ToBGR888@ImageLoader@@YAXPBEPAEH@Z 0041d520 f   bitmap:colorconversion.obj
 0001:0001c560       ?RGBA8888ToI8@ImageLoader@@YAXPBEPAEH@Z 0041d560 f   bitmap:colorconversion.obj
 0001:0001c5f0       ?RGBA8888ToIA88@ImageLoader@@YAXPBEPAEH@Z 0041d5f0 f   bitmap:colorconversion.obj
 0001:0001c690       ?RGBA8888ToA8@ImageLoader@@YAXPBEPAEH@Z 0041d690 f   bitmap:colorconversion.obj
 0001:0001c6c0       ?RGBA8888ToRGB888_BLUESCREEN@ImageLoader@@YAXPBEPAEH@Z 0041d6c0 f   bitmap:colorconversion.obj
 0001:0001c710       ?RGBA8888ToBGR888_BLUESCREEN@ImageLoader@@YAXPBEPAEH@Z 0041d710 f   bitmap:colorconversion.obj
 0001:0001c760       ?RGBA8888ToARGB8888@ImageLoader@@YAXPBEPAEH@Z 0041d760 f   bitmap:colorconversion.obj
 0001:0001c7a0       ?RGBA8888ToBGRX8888@ImageLoader@@YAXPBEPAEH@Z 0041d7a0 f   bitmap:colorconversion.obj
 0001:0001c7e0       ?RGBA8888ToBGR565@ImageLoader@@YAXPBEPAEH@Z 0041d7e0 f   bitmap:colorconversion.obj
 0001:0001c850       ?RGBA8888ToBGRX5551@ImageLoader@@YAXPBEPAEH@Z 0041d850 f   bitmap:colorconversion.obj
 0001:0001c8b0       ?RGBA8888ToBGRA5551@ImageLoader@@YAXPBEPAEH@Z 0041d8b0 f   bitmap:colorconversion.obj
 0001:0001c920       ?RGBA8888ToBGRA4444@ImageLoader@@YAXPBEPAEH@Z 0041d920 f   bitmap:colorconversion.obj
 0001:0001c990       ?RGBA8888ToUV88@ImageLoader@@YAXPBEPAEH@Z 0041d990 f   bitmap:colorconversion.obj
 0001:0001c9c0       ?RGB888ToRGBA8888@ImageLoader@@YAXPBEPAEH@Z 0041d9c0 f   bitmap:colorconversion.obj
 0001:0001ca10       ?BGR888ToRGBA8888@ImageLoader@@YAXPBEPAEH@Z 0041da10 f   bitmap:colorconversion.obj
 0001:0001ca60       ?I8ToRGBA8888@ImageLoader@@YAXPBEPAEH@Z 0041da60 f   bitmap:colorconversion.obj
 0001:0001caa0       ?IA88ToRGBA8888@ImageLoader@@YAXPBEPAEH@Z 0041daa0 f   bitmap:colorconversion.obj
 0001:0001cae0       ?A8ToRGBA8888@ImageLoader@@YAXPBEPAEH@Z 0041dae0 f   bitmap:colorconversion.obj
 0001:0001cb20       ?RGB888_BLUESCREENToRGBA8888@ImageLoader@@YAXPBEPAEH@Z 0041db20 f   bitmap:colorconversion.obj
 0001:0001cb80       ?BGR888_BLUESCREENToRGBA8888@ImageLoader@@YAXPBEPAEH@Z 0041db80 f   bitmap:colorconversion.obj
 0001:0001cbe0       ?ARGB8888ToRGBA8888@ImageLoader@@YAXPBEPAEH@Z 0041dbe0 f   bitmap:colorconversion.obj
 0001:0001cc20       ?BGRA8888ToRGBA8888@ImageLoader@@YAXPBEPAEH@Z 0041dc20 f   bitmap:colorconversion.obj
 0001:0001cc20       ?RGBA8888ToBGRA8888@ImageLoader@@YAXPBEPAEH@Z 0041dc20 f   bitmap:colorconversion.obj
 0001:0001cc60       ?BGRX8888ToRGBA8888@ImageLoader@@YAXPBEPAEH@Z 0041dc60 f   bitmap:colorconversion.obj
 0001:0001ccb0       ?BGR565ToRGBA8888@ImageLoader@@YAXPBEPAEH@Z 0041dcb0 f   bitmap:colorconversion.obj
 0001:0001cd30       ?BGRX5551ToRGBA8888@ImageLoader@@YAXPBEPAEH@Z 0041dd30 f   bitmap:colorconversion.obj
 0001:0001cda0       ?BGRA5551ToRGBA8888@ImageLoader@@YAXPBEPAEH@Z 0041dda0 f   bitmap:colorconversion.obj
 0001:0001ce30       ?BGRA4444ToRGBA8888@ImageLoader@@YAXPBEPAEH@Z 0041de30 f   bitmap:colorconversion.obj
 0001:0001cec0       ?UV88ToRGBA8888@ImageLoader@@YAXPBEPAEH@Z 0041dec0 f   bitmap:colorconversion.obj
 0001:0001cf00       ?RGBA8888ToUVLX8888@ImageLoader@@YAXPBEPAEH@Z 0041df00 f   bitmap:colorconversion.obj
 0001:0001cf00       ?UVWQ8888ToRGBA8888@ImageLoader@@YAXPBEPAEH@Z 0041df00 f   bitmap:colorconversion.obj
 0001:0001cf00       ?RGBA8888ToRGBA8888@ImageLoader@@YAXPBEPAEH@Z 0041df00 f   bitmap:colorconversion.obj
 0001:0001cf00       ?RGBA8888ToUVWQ8888@ImageLoader@@YAXPBEPAEH@Z 0041df00 f   bitmap:colorconversion.obj
 0001:0001cf00       ?UVLX8888ToRGBA8888@ImageLoader@@YAXPBEPAEH@Z 0041df00 f   bitmap:colorconversion.obj
 0001:0001cf20       ?RGBA16161616ToRGBA8888@ImageLoader@@YAXPBEPAEH@Z 0041df20 f   bitmap:colorconversion.obj
 0001:0001cff0       ??$DecodeColorBlock@URGBA8888_t@@@ImageLoader@@YAXPAURGBA8888_t@@PAUDXTColBlock@0@HPAUBGRA8888_t@@222@Z 0041dff0 f   bitmap:colorconversion.obj
 0001:0001d130       ??$DecodeColorBlock@UBGRA8888_t@@@ImageLoader@@YAXPAUBGRA8888_t@@PAUDXTColBlock@0@H0000@Z 0041e130 f   bitmap:colorconversion.obj
 0001:0001d200       ??$DecodeColorBlock@URGB888_t@@@ImageLoader@@YAXPAURGB888_t@@PAUDXTColBlock@0@HPAUBGRA8888_t@@222@Z 0041e200 f   bitmap:colorconversion.obj
 0001:0001d310       ??$DecodeColorBlock@UBGR888_t@@@ImageLoader@@YAXPAUBGR888_t@@PAUDXTColBlock@0@HPAUBGRA8888_t@@222@Z 0041e310 f   bitmap:colorconversion.obj
 0001:0001d410       ??$DecodeColorBlock@UBGR565_t@@@ImageLoader@@YAXPAUBGR565_t@@PAUDXTColBlock@0@HPAUBGRA8888_t@@222@Z 0041e410 f   bitmap:colorconversion.obj
 0001:0001d600       ??$DecodeColorBlock@UBGRA5551_t@@@ImageLoader@@YAXPAUBGRA5551_t@@PAUDXTColBlock@0@HPAUBGRA8888_t@@222@Z 0041e600 f   bitmap:colorconversion.obj
 0001:0001d6d0       ??$DecodeColorBlock@UBGRA4444_t@@@ImageLoader@@YAXPAUBGRA4444_t@@PAUDXTColBlock@0@HPAUBGRA8888_t@@222@Z 0041e6d0 f   bitmap:colorconversion.obj
 0001:0001d7a0       ??$DecodeAlpha3BitLinear@UBGRA8888_t@@@ImageLoader@@YAXPAUBGRA8888_t@@PAUDXTAlphaBlock3BitLinear@0@HH@Z 0041e7a0 f   bitmap:colorconversion.obj
 0001:0001dab0       ??$DecodeAlpha3BitLinear@URGBA8888_t@@@ImageLoader@@YAXPAURGBA8888_t@@PAUDXTAlphaBlock3BitLinear@0@HH@Z 0041eab0 f   bitmap:colorconversion.obj
 0001:0001ddd0       ??$DecodeAlpha3BitLinear@UBGRA5551_t@@@ImageLoader@@YAXPAUBGRA5551_t@@PAUDXTAlphaBlock3BitLinear@0@HH@Z 0041edd0 f   bitmap:colorconversion.obj
 0001:0001e100       ??$DecodeAlpha3BitLinear@UBGRA4444_t@@@ImageLoader@@YAXPAUBGRA4444_t@@PAUDXTAlphaBlock3BitLinear@0@HH@Z 0041f100 f   bitmap:colorconversion.obj
 0001:0001e440       ?GetUserFormatToRGBA8888Func_t@ImageLoader@@YAP6AXPBEPAEH@ZW4ImageFormat@@@Z 0041f440 f   bitmap:colorconversion.obj
 0001:0001e540       ?GetRGBA8888ToUserFormatFunc_t@ImageLoader@@YAP6AXPBEPAEH@ZW4ImageFormat@@@Z 0041f540 f   bitmap:colorconversion.obj
 0001:0001e910       ??$ConvertFromDXT1@URGBA8888_t@@@ImageLoader@@YAXPBEPAURGBA8888_t@@HH@Z 0041f910 f   bitmap:colorconversion.obj
 0001:0001ea60       ??$ConvertFromDXT1@UBGRA8888_t@@@ImageLoader@@YAXPBEPAUBGRA8888_t@@HH@Z 0041fa60 f   bitmap:colorconversion.obj
 0001:0001ebc0       ??$ConvertFromDXT1@URGB888_t@@@ImageLoader@@YAXPBEPAURGB888_t@@HH@Z 0041fbc0 f   bitmap:colorconversion.obj
 0001:0001ed20       ??$ConvertFromDXT1@UBGR888_t@@@ImageLoader@@YAXPBEPAUBGR888_t@@HH@Z 0041fd20 f   bitmap:colorconversion.obj
 0001:0001ee80       ??$ConvertFromDXT1@UBGR565_t@@@ImageLoader@@YAXPBEPAUBGR565_t@@HH@Z 0041fe80 f   bitmap:colorconversion.obj
 0001:0001efc0       ??$ConvertFromDXT1@UBGRA5551_t@@@ImageLoader@@YAXPBEPAUBGRA5551_t@@HH@Z 0041ffc0 f   bitmap:colorconversion.obj
 0001:0001f110       ??$ConvertFromDXT1@UBGRA4444_t@@@ImageLoader@@YAXPBEPAUBGRA4444_t@@HH@Z 00420110 f   bitmap:colorconversion.obj
 0001:0001f260       ??$ConvertFromATIxN@UBGRA8888_t@@@ImageLoader@@YAXPBEPAUBGRA8888_t@@HH_N@Z 00420260 f   bitmap:colorconversion.obj
 0001:0001f390       ??$ConvertFromDXT5@URGBA8888_t@@@ImageLoader@@YAXPBEPAURGBA8888_t@@HH@Z 00420390 f   bitmap:colorconversion.obj
 0001:0001f500       ??$ConvertFromDXT5@UBGRA8888_t@@@ImageLoader@@YAXPBEPAUBGRA8888_t@@HH@Z 00420500 f   bitmap:colorconversion.obj
 0001:0001f670       ??$ConvertFromDXT5IgnoreAlpha@URGB888_t@@@ImageLoader@@YAXPBEPAURGB888_t@@HH@Z 00420670 f   bitmap:colorconversion.obj
 0001:0001f7d0       ??$ConvertFromDXT5IgnoreAlpha@UBGR888_t@@@ImageLoader@@YAXPBEPAUBGR888_t@@HH@Z 004207d0 f   bitmap:colorconversion.obj
 0001:0001f930       ??$ConvertFromDXT5IgnoreAlpha@UBGR565_t@@@ImageLoader@@YAXPBEPAUBGR565_t@@HH@Z 00420930 f   bitmap:colorconversion.obj
 0001:0001fa80       ??$ConvertFromDXT5@UBGRA5551_t@@@ImageLoader@@YAXPBEPAUBGRA5551_t@@HH@Z 00420a80 f   bitmap:colorconversion.obj
 0001:0001fbe0       ??$ConvertFromDXT5@UBGRA4444_t@@@ImageLoader@@YAXPBEPAUBGRA4444_t@@HH@Z 00420be0 f   bitmap:colorconversion.obj
 0001:00020450       ?ConstructFloatGammaTable@ImageLoader@@YAXPAMMM@Z 00421450 f   bitmap:resample.obj
 0001:000206d0       ?GenerateNiceFilter@ImageLoader@@YAXMMMHPAM0@Z 004216d0 f   bitmap:resample.obj
 0001:0002c270       ?getAxis@@YAXHPAY02NQAN@Z  0042d270 f   bitmap:S3_quant.obj
 0001:0002c670       ?getDiameter@@YAXHPAY02NQAN@Z 0042d670 f   bitmap:S3_quant.obj
 0001:0002c780       ?sortProjection@@YAXHPAY02NQANQAHH@Z 0042d780 f   bitmap:S3_quant.obj
 0001:0002c8d0       ?sameOrder@@YAHHQAH0@Z     0042d8d0 f   bitmap:S3_quant.obj
 0001:0002c940       ?search43Mult@@YANPAHHPAY02NPANQAHQAY02NQAN@Z 0042d940 f   bitmap:S3_quant.obj
 0001:0002cfe0       ?searchClipped43Mult@@YANPAHHPAY02NPANQAHQAY02N4QAN@Z 0042dfe0 f   bitmap:S3_quant.obj
 0001:0002d9f0       ?allSame@@YANPAHHPAY02NQANQAY02HQAH@Z 0042e9f0 f   bitmap:S3_quant.obj
 0001:0002df40       ?mapAndRoundMult@@YANPAHHHPAY02NPANQANQAY02NQAY02HQAH@Z 0042ef40 f   bitmap:S3_quant.obj
 0001:0002e120       ?roundMult@@YANHHPAY02NPANQANQAY02NQAY02HQAH@Z 0042f120 f   bitmap:S3_quant.obj
 0001:0002ec50       ?quantizeAlpha@@YANHHQANQAH1@Z 0042fc50 f   bitmap:S3_quant.obj
 0001:000380a0       ?QSortIntCmp@@YAHPBX0@Z    004390a0 f   bitmap:ATiXCodec.obj
 0001:000380b0       ?QSortFloatCmp@@YAHPBX0@Z  004390b0 f   bitmap:ATiXCodec.obj
 0001:00038120       ?ClstrErr@@YAMQAY03MQAMQAY0BA@MHH_NPAM@Z 00439120 f   bitmap:ATiXCodec.obj
 0001:00038550       ?ClstrIntnl@@YAMQAY03MPAEQAY0BA@MHE_NPAM3@Z 00439550 f   bitmap:ATiXCodec.obj
 0001:000386d0       ?RampSrchWSS2E@@YAMQAM00MMMHE@Z 004396d0 f   bitmap:ATiXCodec.obj
 0001:000387c0       ?BldRmp1@@YAXQAM0H@Z       004397c0 f   bitmap:ATiXCodec.obj
 0001:00038910       ?GetRmp1@@YAXQAM0H_NHH1@Z  00439910 f   bitmap:ATiXCodec.obj
 0001:00038a20       ?Clstr1@@YAMPAEQAM1HH_NHH2@Z 00439a20 f   bitmap:ATiXCodec.obj
 0001:00038b90       ?RmpSrch1SSE2@@YAMQAM0MMMHE@Z 00439b90 f   bitmap:ATiXCodec.obj
 0001:00038c80       ?RmpSrch1@@YAMQAM0MMMHE@Z  00439c80 f   bitmap:ATiXCodec.obj
 0001:00038de0       ?Refine1@@YAMQAM0MAAM1MMMHE_N@Z 00439de0 f   bitmap:ATiXCodec.obj
 0001:00038fa0       ?QSortFCmp@@YAHPBX0@Z      00439fa0 f   bitmap:ATiXCodec.obj
 0001:00038fe0       ?CompBlock1@@YAMQAM0HE_NHH11@Z 00439fe0 f   bitmap:ATiXCodec.obj
 0001:00039cb0       ?MkRmpOnGrid@@YAXQAY01M0MMEEE@Z 0043acb0 f   bitmap:ATiXCodec.obj
 0001:00039e80       ?ClstrBas@@YAMPAEQAY03MQAY01MHEPAM_NEEE@Z 0043ae80 f   bitmap:ATiXCodec.obj
 0001:0003a520       ?RampSrchW@@YAMQAM00MMMHH@Z 0043b520 f   bitmap:ATiXCodec.obj
 0001:0003a690       ?FindAxis@@YAXQAY03MQAM1PA_N01HH@Z 0043b690 f   bitmap:ATiXCodec.obj
 0001:0003ad80       ?Refine@@YAMQAY01M0QAY03MQAMHEPAMEEEE@Z 0043bd80 f   bitmap:ATiXCodec.obj
 0001:0003bff0       ?Refine3D@@YAMQAY01M0QAY03MQAMHEPAMEEEE@Z 0043cff0 f   bitmap:ATiXCodec.obj
 0001:0003ca40       ?RefineSSE2@@YAMQAY01M0QAY03MQAMHEPAMEEEE@Z 0043da40 f   bitmap:ATiXCodec.obj
 0001:0003ddd0       ?Refine3DSSE2@@YAMQAY01M0QAY03MQAMHEPAMEEEE@Z 0043edd0 f   bitmap:ATiXCodec.obj
 0001:0003f1e0       ?CompressRGBBlockX@@YAXQAY01MQAY03MQAMHE_NEPAMEEE@Z 004401e0 f   bitmap:ATiXCodec.obj
 0001:0004078c       ?CatchGuardHandler@@YA?AW4_EXCEPTION_DISPOSITION@@PAUEHExceptionRecord@@PAUCatchGuardRN@@PAX2@Z 0044178c f   LIBCMT:_trnsctrl_.obj
 0001:00040896       ?TranslatorGuardHandler@@YA?AW4_EXCEPTION_DISPOSITION@@PAUEHExceptionRecord@@PAUTranslatorGuardRN@@PAX2@Z 00441896 f   LIBCMT:_trnsctrl_.obj
 0001:00040cb0       _shortsort                 00441cb0 f   LIBCMT:qsort.obj
 0001:00041187       ?ExFilterRethrow@@YAHPAU_EXCEPTION_POINTERS@@@Z 00442187 f   LIBCMT:frame.obj
 0001:0004124a       ?IsInExceptionSpec@@YAEPAUEHExceptionRecord@@PBU_s_ESTypeList@@@Z 0044224a f   LIBCMT:frame.obj
 0001:000412c0       ?CallUnexpected@@YAXPBU_s_ESTypeList@@@Z 004422c0 f   LIBCMT:frame.obj
 0001:000412f1       __catch$?CallUnexpected@@YAXPBU_s_ESTypeList@@@Z$0 004422f1 f   LIBCMT:frame.obj
 0001:00041309       ?CallCatchBlock@@YAPAXPAUEHExceptionRecord@@PAUEHRegistrationNode@@PAU_CONTEXT@@PBU_s_FuncInfo@@PAXHK@Z 00442309 f   LIBCMT:frame.obj
 0001:000416b6       ?CatchIt@@YAXPAUEHExceptionRecord@@PAUEHRegistrationNode@@PAU_CONTEXT@@PAXPBU_s_FuncInfo@@PBU_s_HandlerType@@PBU_s_CatchableType@@PBU_s_TryBlockMapEntry@@H1E@Z 004426b6 f   LIBCMT:frame.obj
 0001:00041724       ?FindHandlerForForeignException@@YAXPAUEHExceptionRecord@@PAUEHRegistrationNode@@PAU_CONTEXT@@PAXPBU_s_FuncInfo@@HH1@Z 00442724 f   LIBCMT:frame.obj
 0001:0004182b       ?FindHandler@@YAXPAUEHExceptionRecord@@PAUEHRegistrationNode@@PAU_CONTEXT@@PAXPBU_s_FuncInfo@@EH1@Z 0044282b f   LIBCMT:frame.obj
 0001:00041eb0       __unwindfunclet$?ThreadedCompressTexture@@YA?AW4ATI_TC_ERROR@@PBU_ATI_TC_Texture@@PAU2@PBU_ATI_TC_CompressOptions@@P6A_NMKK@ZKKW4_CodecType@@@Z$0 00442eb0 f   bitmap:ATI_Compress.obj
 0001:00041ec6       __ehhandler$?ThreadedCompressTexture@@YA?AW4ATI_TC_ERROR@@PBU_ATI_TC_Texture@@PAU2@PBU_ATI_TC_CompressOptions@@P6A_NMKK@ZKKW4_CodecType@@@Z 00442ec6 f   bitmap:ATI_Compress.obj
 0001:00041ef0       __unwindfunclet$?CreateCodec@@YAPAVCCodec@ATI_Compress@@W4_CodecType@@@Z$0 00442ef0 f   bitmap:Codec.obj
 0001:00041efb       __unwindfunclet$?CreateCodec@@YAPAVCCodec@ATI_Compress@@W4_CodecType@@@Z$1 00442efb f   bitmap:Codec.obj
 0001:00041f06       __unwindfunclet$?CreateCodec@@YAPAVCCodec@ATI_Compress@@W4_CodecType@@@Z$2 00442f06 f   bitmap:Codec.obj
 0001:00041f11       __unwindfunclet$?CreateCodec@@YAPAVCCodec@ATI_Compress@@W4_CodecType@@@Z$3 00442f11 f   bitmap:Codec.obj
 0001:00041f1c       __unwindfunclet$?CreateCodec@@YAPAVCCodec@ATI_Compress@@W4_CodecType@@@Z$4 00442f1c f   bitmap:Codec.obj
 0001:00041f27       __unwindfunclet$?CreateCodec@@YAPAVCCodec@ATI_Compress@@W4_CodecType@@@Z$5 00442f27 f   bitmap:Codec.obj
 0001:00041f32       __unwindfunclet$?CreateCodec@@YAPAVCCodec@ATI_Compress@@W4_CodecType@@@Z$6 00442f32 f   bitmap:Codec.obj
 0001:00041f3d       __unwindfunclet$?CreateCodec@@YAPAVCCodec@ATI_Compress@@W4_CodecType@@@Z$7 00442f3d f   bitmap:Codec.obj
 0001:00041f48       __unwindfunclet$?CreateCodec@@YAPAVCCodec@ATI_Compress@@W4_CodecType@@@Z$8 00442f48 f   bitmap:Codec.obj
 0001:00041f53       __unwindfunclet$?CreateCodec@@YAPAVCCodec@ATI_Compress@@W4_CodecType@@@Z$9 00442f53 f   bitmap:Codec.obj
 0001:00041f5e       __unwindfunclet$?CreateCodec@@YAPAVCCodec@ATI_Compress@@W4_CodecType@@@Z$10 00442f5e f   bitmap:Codec.obj
 0001:00041f69       __unwindfunclet$?CreateCodec@@YAPAVCCodec@ATI_Compress@@W4_CodecType@@@Z$11 00442f69 f   bitmap:Codec.obj
 0001:00041f74       __unwindfunclet$?CreateCodec@@YAPAVCCodec@ATI_Compress@@W4_CodecType@@@Z$12 00442f74 f   bitmap:Codec.obj
 0001:00041f7f       __ehhandler$?CreateCodec@@YAPAVCCodec@ATI_Compress@@W4_CodecType@@@Z 00442f7f f   bitmap:Codec.obj
 0001:00041fa0       __unwindfunclet$?CreateCodecBuffer@@YAPAVCCodecBuffer@@W4_CodecBufferType@@KKKPAE@Z$0 00442fa0 f   bitmap:CodecBuffer.obj
 0001:00041fab       __unwindfunclet$?CreateCodecBuffer@@YAPAVCCodecBuffer@@W4_CodecBufferType@@KKKPAE@Z$1 00442fab f   bitmap:CodecBuffer.obj
 0001:00041fb6       __unwindfunclet$?CreateCodecBuffer@@YAPAVCCodecBuffer@@W4_CodecBufferType@@KKKPAE@Z$2 00442fb6 f   bitmap:CodecBuffer.obj
 0001:00041fc1       __unwindfunclet$?CreateCodecBuffer@@YAPAVCCodecBuffer@@W4_CodecBufferType@@KKKPAE@Z$3 00442fc1 f   bitmap:CodecBuffer.obj
 0001:00041fcc       __unwindfunclet$?CreateCodecBuffer@@YAPAVCCodecBuffer@@W4_CodecBufferType@@KKKPAE@Z$4 00442fcc f   bitmap:CodecBuffer.obj
 0001:00041fd7       __unwindfunclet$?CreateCodecBuffer@@YAPAVCCodecBuffer@@W4_CodecBufferType@@KKKPAE@Z$5 00442fd7 f   bitmap:CodecBuffer.obj
 0001:00041fe2       __ehhandler$?CreateCodecBuffer@@YAPAVCCodecBuffer@@W4_CodecBufferType@@KKKPAE@Z 00442fe2 f   bitmap:CodecBuffer.obj
 0001:00042000       __unwindfunclet$??0CCodec_DXTC@@QAE@W4_CodecType@@@Z$0 00443000 f   bitmap:Codec_DXTC.obj
 0001:00042008       __ehhandler$??0CCodec_DXTC@@QAE@W4_CodecType@@@Z 00443008 f   bitmap:Codec_DXTC.obj
 0001:00042023       __ehhandler$?CallUnexpected@@YAXPBU_s_ESTypeList@@@Z 00443023 f   LIBCMT:frame.obj
 0001:00042040       ??__Es_StringCharConversion@@YAXXZ 00443040 f   tier1:utlbuffer.obj
 0001:000420a0       ??__Es_NoEscConversion@@YAXXZ 004430a0 f   tier1:utlbuffer.obj
 0001:000420d0       ??__Eg_DataMapHolder@VTFFileBaseHeader_t_DataDescInit@@YAXXZ 004430d0 f   vtf:vtf.obj
 0001:000420e0       ??__Eg_DataMapHolder@VTFFileHeaderV7_1_t_DataDescInit@@YAXXZ 004430e0 f   vtf:vtf.obj
 0001:000420f0       ??__Eg_DataMapHolder@VTFFileHeaderV7_2_t_DataDescInit@@YAXXZ 004430f0 f   vtf:vtf.obj
 0001:00042100       ??__Eg_DataMapHolder@VTFFileHeaderV7_3_t_DataDescInit@@YAXXZ 00443100 f   vtf:vtf.obj
 0001:00042110       ??__Eg_DataMapHolder@VTFFileHeader_t_DataDescInit@@YAXXZ 00443110 f   vtf:vtf.obj
 0001:00042120       ??__Eg_DataMapHolder@VTFFileHeaderX360_t_DataDescInit@@YAXXZ 00443120 f   vtf:vtf.obj
 0001:00042130       ??__Ef_dwProcessorCount@@YAXXZ 00443130 f   bitmap:ATI_Compress.obj
 0001:00042150       ??__FnameHolder@?1???$DataMapInit@UVTFFileBaseHeader_t@@@@YAPAUdatamap_t@@PAUVTFFileBaseHeader_t@@@Z@YAXXZ 00443150 f   vtf:vtf.obj
 0001:00042160       ??__FnameHolder@?1???$DataMapInit@UVTFFileHeaderV7_1_t@@@@YAPAUdatamap_t@@PAUVTFFileHeaderV7_1_t@@@Z@YAXXZ 00443160 f   vtf:vtf.obj
 0001:00042170       ??__FnameHolder@?1???$DataMapInit@UVTFFileHeaderV7_2_t@@@@YAPAUdatamap_t@@PAUVTFFileHeaderV7_2_t@@@Z@YAXXZ 00443170 f   vtf:vtf.obj
 0001:00042180       ??__FnameHolder@?1???$DataMapInit@UVTFFileHeaderV7_3_t@@@@YAPAUdatamap_t@@PAUVTFFileHeaderV7_3_t@@@Z@YAXXZ 00443180 f   vtf:vtf.obj
 0001:00042190       ??__FnameHolder@?1???$DataMapInit@UVTFFileHeader_t@@@@YAPAUdatamap_t@@PAUVTFFileHeader_t@@@Z@YAXXZ 00443190 f   vtf:vtf.obj
 0001:000421a0       ??__FnameHolder@?1???$DataMapInit@UVTFFileHeaderX360_t@@@@YAPAUdatamap_t@@PAUVTFFileHeaderX360_t@@@Z@YAXXZ 004431a0 f   vtf:vtf.obj
